

Microchip MPLAB XC8 Assembler V2.40 build 20220703182018 
                                                                                               Thu Mar 16 03:43:19 2023

Microchip MPLAB XC8 C Compiler v2.40 (Free license) build 20220703182018 Og1 
     1                           	processor	18F4550
     2                           	fnconf	rparam,??,?,0
     3                           	pagewidth 120
     4                           	opt	flic
     5                           	psect	smallconst,global,reloc=2,class=SMALLCONST,delta=1,noexec
     6                           	psect	cinit,global,reloc=2,class=CODE,delta=1
     7                           	psect	bssCOMRAM,global,class=COMRAM,space=1,delta=1,lowdata,noexec
     8                           	psect	cstackCOMRAM,global,class=COMRAM,space=1,delta=1,lowdata,noexec
     9                           	psect	text0,global,reloc=2,class=CODE,delta=1
    10                           	psect	text1,global,reloc=2,class=CODE,delta=1
    11                           	psect	text2,global,reloc=2,class=CODE,delta=1
    12                           	psect	text3,global,reloc=2,class=CODE,delta=1
    13                           	psect	text4,global,reloc=2,class=CODE,delta=1
    14                           	psect	text5,global,reloc=2,class=CODE,delta=1
    15                           	psect	text6,global,reloc=2,class=CODE,delta=1
    16                           	psect	text7,global,reloc=2,class=CODE,delta=1
    17                           	psect	text8,global,reloc=2,class=CODE,delta=1,group=2
    18                           	psect	text9,global,reloc=2,class=CODE,delta=1
    19                           	psect	text10,global,reloc=2,class=CODE,delta=1
    20                           	psect	text11,global,reloc=2,class=CODE,delta=1
    21                           	psect	text12,global,reloc=2,class=CODE,delta=1
    22                           	psect	text13,global,reloc=2,class=CODE,delta=1
    23                           	psect	text14,global,reloc=2,class=CODE,delta=1,group=2
    24                           	psect	text15,global,reloc=2,class=CODE,delta=1
    25                           	psect	text16,global,reloc=2,class=CODE,delta=1
    26                           	psect	text17,global,reloc=2,class=CODE,delta=1
    27                           	psect	text18,global,reloc=2,class=CODE,delta=1
    28                           	psect	text19,global,reloc=2,class=CODE,delta=1
    29                           	psect	text20,global,reloc=2,class=CODE,delta=1
    30                           	psect	text21,global,reloc=2,class=CODE,delta=1
    31                           	psect	text22,global,reloc=2,class=CODE,delta=1
    32                           	psect	text23,global,reloc=2,class=CODE,delta=1
    33                           	psect	text24,global,reloc=2,class=CODE,delta=1
    34                           	psect	text25,global,reloc=2,class=CODE,delta=1
    35                           	psect	text26,global,reloc=2,class=CODE,delta=1
    36                           	psect	text27,global,reloc=2,class=CODE,delta=1
    37                           	psect	text28,global,reloc=2,class=CODE,delta=1
    38                           	psect	text29,global,reloc=2,class=CODE,delta=1
    39                           	psect	text30,global,reloc=2,class=CODE,delta=1
    40                           	psect	text31,global,reloc=2,class=CODE,delta=1
    41                           	psect	text32,global,reloc=2,class=CODE,delta=1
    42                           	psect	text33,global,reloc=2,class=CODE,delta=1
    43                           	psect	text34,global,reloc=2,class=CODE,delta=1
    44                           	psect	text35,global,reloc=2,class=CODE,delta=1
    45                           	psect	text36,global,reloc=2,class=CODE,delta=1
    46                           	psect	intcode,global,reloc=2,class=CODE,delta=1
    47                           	psect	intcode_body,global,reloc=2,class=CODE,delta=1
    48                           	psect	intsave_regs,global,class=BIGRAM,space=1,delta=1,noexec
    49                           	psect	rparam,global,class=COMRAM,space=1,delta=1,noexec
    50                           	psect	temp,global,ovrld,common,class=COMRAM,space=1,delta=1
    51                           	psect	idloc,global,abs,ovrld,class=IDLOC,space=5,delta=1,noexec
    52                           	psect	config,global,abs,ovrld,class=CONFIG,space=4,delta=1,noexec
    53                           	dabs	1,0x400,32,_BDT
    54                           	dabs	1,0x428,8,_CtrlTrfData
    55                           	dabs	1,0x420,8,_SetupPkt
    56                           	dabs	1,0x500,6,_joystick_input
    57   000000                     
    58                           ; Version 2.40
    59                           ; Generated 17/11/2021 GMT
    60                           ; 
    61                           ; Copyright © 2021, Microchip Technology Inc. and its subsidiaries ("Microchip")
    62                           ; All rights reserved.
    63                           ; 
    64                           ; This software is developed by Microchip Technology Inc. and its subsidiaries ("Microch
      +                          ip").
    65                           ; 
    66                           ; Redistribution and use in source and binary forms, with or without modification, are
    67                           ; permitted provided that the following conditions are met:
    68                           ; 
    69                           ;     1. Redistributions of source code must retain the above copyright notice, this lis
      +                          t of
    70                           ;        conditions and the following disclaimer.
    71                           ; 
    72                           ;     2. Redistributions in binary form must reproduce the above copyright notice, this 
      +                          list
    73                           ;        of conditions and the following disclaimer in the documentation and/or other
    74                           ;        materials provided with the distribution. Publication is not required when
    75                           ;        this file is used in an embedded application.
    76                           ; 
    77                           ;     3. Microchip's name may not be used to endorse or promote products derived from th
      +                          is
    78                           ;        software without specific prior written permission.
    79                           ; 
    80                           ; THIS SOFTWARE IS PROVIDED BY MICROCHIP "AS IS" AND ANY EXPRESS OR IMPLIED WARRANTIES,
    81                           ; INCLUDING, BUT NOT LIMITED TO, THE IMPLIED WARRANTIES OF MERCHANTABILITY AND FITNESS F
      +                          OR
    82                           ; PURPOSE ARE DISCLAIMED.  IN NO EVENT SHALL MICROCHIP BE LIABLE FOR ANY DIRECT, INDIREC
      +                          T,
    83                           ; INCIDENTAL, SPECIAL, EXEMPLARY, OR CONSEQUENTIAL DAMAGES (INCLUDING BUT NOT LIMITED TO
    84                           ; PROCUREMENT OF SUBSTITUTE GOODS OR SERVICES; LOSS OF USE, DATA OR PROFITS; OR BUSINESS
    85                           ; INTERRUPTION) HOWSOEVER CAUSED AND ON ANY THEORY OF LIABILITY, WHETHER IN CONTRACT, ST
      +                          RICT
    86                           ; LIABILITY, OR TORT (INCLUDING NEGLIGENCE OR OTHERWISE) ARISING IN ANY WAY OUT OF THE U
      +                          SE OF
    87                           ; THIS SOFTWARE, EVEN IF ADVISED OF THE POSSIBILITY OF SUCH DAMAGE.
    88                           ; 
    89                           ; 
    90                           ; Code-generator required, PIC18F4550 Definitions
    91                           ; 
    92                           ; SFR Addresses
    93   000000                     
    94                           	psect	smallconst
    95   000800                     __psmallconst:
    96                           	callstack 0
    97   000800  00                 	db	0
    98   000801                     _USB_SD_Ptr:
    99                           	callstack 0
   100   000801  A0                 	db	low _sd000
   101   000802  08                 	db	high _sd000
   102   000803  36                 	db	low _sd001
   103   000804  08                 	db	high _sd001
   104   000805  7C                 	db	low _sd002
   105   000806  08                 	db	high _sd002
   106   000807                     __end_of_USB_SD_Ptr:
   107                           	callstack 0
   108   000807                     _USB_CD_Ptr:
   109                           	callstack 0
   110   000807  5A                 	db	low _configDescriptor1
   111   000808  08                 	db	high _configDescriptor1
   112   000809                     __end_of_USB_CD_Ptr:
   113                           	callstack 0
   114   000809                     _hid_rpt01:
   115                           	callstack 0
   116   000809  05                 	db	5
   117   00080A  01                 	db	1
   118   00080B  09                 	db	9
   119   00080C  05                 	db	5
   120   00080D  A1                 	db	161
   121   00080E  01                 	db	1
   122   00080F  15                 	db	21
   123   000810  00                 	db	0
   124   000811  25                 	db	37
   125   000812  01                 	db	1
   126   000813  75                 	db	117
   127   000814  01                 	db	1
   128   000815  95                 	db	149
   129   000816  1C                 	db	28
   130   000817  05                 	db	5
   131   000818  09                 	db	9
   132   000819  19                 	db	25
   133   00081A  01                 	db	1
   134   00081B  29                 	db	41
   135   00081C  1C                 	db	28
   136   00081D  81                 	db	129
   137   00081E  02                 	db	2
   138   00081F  95                 	db	149
   139   000820  04                 	db	4
   140   000821  81                 	db	129
   141   000822  01                 	db	1
   142   000823  05                 	db	5
   143   000824  01                 	db	1
   144   000825  26                 	db	38
   145   000826  FF                 	db	255
   146   000827  00                 	db	0
   147   000828  46                 	db	70
   148   000829  FF                 	db	255
   149   00082A  00                 	db	0
   150   00082B  09                 	db	9
   151   00082C  30                 	db	48
   152   00082D  09                 	db	9
   153   00082E  31                 	db	49
   154   00082F  75                 	db	117
   155   000830  08                 	db	8
   156   000831  95                 	db	149
   157   000832  02                 	db	2
   158   000833  81                 	db	129
   159   000834  02                 	db	2
   160   000835  C0                 	db	192
   161   000836                     __end_of_hid_rpt01:
   162                           	callstack 0
   163   000836                     _sd001:
   164                           	callstack 0
   165   000836  24                 	db	36
   166   000837  03                 	db	3
   167   000838  0052               	dw	82
   168   00083A  0075               	dw	117
   169   00083C  0062               	dw	98
   170   00083E  0062               	dw	98
   171   000840  0065               	dw	101
   172   000842  0072               	dw	114
   173   000844  0020               	dw	32
   174   000846  0048               	dw	72
   175   000848  0065               	dw	101
   176   00084A  006C               	dw	108
   177   00084C  0069               	dw	105
   178   00084E  0078               	dw	120
   179   000850  0020               	dw	32
   180   000852  004C               	dw	76
   181   000854  0061               	dw	97
   182   000856  0062               	dw	98
   183   000858  0073               	dw	115
   184   00085A                     __end_of_sd001:
   185                           	callstack 0
   186   00085A                     _configDescriptor1:
   187                           	callstack 0
   188   00085A  09                 	db	9
   189   00085B  02                 	db	2
   190   00085C  22                 	db	34
   191   00085D  00                 	db	0
   192   00085E  01                 	db	1
   193   00085F  01                 	db	1
   194   000860  00                 	db	0
   195   000861  C0                 	db	192
   196   000862  32                 	db	50
   197   000863  09                 	db	9
   198   000864  04                 	db	4
   199   000865  00                 	db	0
   200   000866  00                 	db	0
   201   000867  01                 	db	1
   202   000868  03                 	db	3
   203   000869  00                 	db	0
   204   00086A  00                 	db	0
   205   00086B  00                 	db	0
   206   00086C  09                 	db	9
   207   00086D  21                 	db	33
   208   00086E  11                 	db	17
   209   00086F  01                 	db	1
   210   000870  00                 	db	0
   211   000871  01                 	db	1
   212   000872  22                 	db	34
   213   000873  2D                 	db	45
   214   000874  00                 	db	0
   215   000875  07                 	db	7
   216   000876  05                 	db	5
   217   000877  81                 	db	129
   218   000878  03                 	db	3
   219   000879  40                 	db	64
   220   00087A  00                 	db	0
   221   00087B  01                 	db	1
   222   00087C                     __end_of_configDescriptor1:
   223                           	callstack 0
   224   00087C                     _sd002:
   225                           	callstack 0
   226   00087C  12                 	db	18
   227   00087D  03                 	db	3
   228   00087E  004A               	dw	74
   229   000880  006F               	dw	111
   230   000882  0079               	dw	121
   231   000884  0073               	dw	115
   232   000886  0074               	dw	116
   233   000888  0069               	dw	105
   234   00088A  0063               	dw	99
   235   00088C  006B               	dw	107
   236   00088E                     __end_of_sd002:
   237                           	callstack 0
   238   00088E                     _device_dsc:
   239                           	callstack 0
   240   00088E  12                 	db	18
   241   00088F  01                 	db	1
   242   000890  0200               	dw	512
   243   000892  00                 	db	0
   244   000893  00                 	db	0
   245   000894  00                 	db	0
   246   000895  08                 	db	8
   247   000896  04D8               	dw	1240
   248   000898  0269               	dw	617
   249   00089A  0001               	dw	1
   250   00089C  01                 	db	1
   251   00089D  02                 	db	2
   252   00089E  00                 	db	0
   253   00089F  01                 	db	1
   254   0008A0                     __end_of_device_dsc:
   255                           	callstack 0
   256   0008A0                     _sd000:
   257                           	callstack 0
   258   0008A0  04                 	db	4
   259   0008A1  03                 	db	3
   260   0008A2  0409               	dw	1033
   261   0008A4                     __end_of_sd000:
   262                           	callstack 0
   263   000000                     _USTAT	set	3948
   264   000000                     _UADDR	set	3950
   265   000000                     _UCONbits	set	3949
   266   000000                     _UIE	set	3945
   267   000000                     _UEIE	set	3947
   268   000000                     _UCFG	set	3951
   269   000000                     _ADRESL	set	4035
   270   000000                     _ADRESH	set	4036
   271   000000                     _UEP0	set	3952
   272   000000                     _UEP0bits	set	3952
   273   000000                     _UIEbits	set	3945
   274   000000                     _UCON	set	3949
   275   000000                     _UIRbits	set	3944
   276   000000                     _ADCON2bits	set	4032
   277   000000                     _ADCON0	set	4034
   278   000000                     _UIR	set	3944
   279   000000                     _UEIR	set	3946
   280   000000                     _PORTCbits	set	3970
   281   000000                     _TRISAbits	set	3986
   282   000000                     _TRISCbits	set	3988
   283   000000                     _PORTDbits	set	3971
   284   000000                     _PIE2bits	set	4000
   285   000000                     _ADCON2	set	4032
   286   000000                     _ADCON1bits	set	4033
   287   000000                     _TRISEbits	set	3990
   288   000000                     _ADCON0bits	set	4034
   289   000000                     _TRISDbits	set	3989
   290   000000                     _PIR2bits	set	4001
   291   000000                     _UEP1	set	3953
   292   0008A4  00                 	db	0	; dummy byte at the end
   293   000000                     
   294                           ; #config settings
   295                           
   296                           	psect	cinit
   297   002CB2                     __pcinit:
   298                           	callstack 0
   299   002CB2                     start_initialization:
   300                           	callstack 0
   301   002CB2                     __initialization:
   302                           	callstack 0
   303                           
   304                           ; Clear objects allocated to COMRAM (57 bytes)
   305   002CB2  EE00  F001         	lfsr	0,__pbssCOMRAM
   306   002CB6  0E39               	movlw	57
   307   002CB8                     clear_0:
   308   002CB8  6AEE               	clrf	postinc0,c
   309   002CBA  06E8               	decf	wreg,f,c
   310   002CBC  E1FD               	bnz	clear_0
   311   002CBE                     end_of_initialization:
   312                           	callstack 0
   313   002CBE                     __end_of__initialization:
   314                           	callstack 0
   315   002CBE  905B               	bcf	int$flags,0,c	;clear compiler interrupt flag (level 1)
   316   002CC0  925B               	bcf	int$flags,1,c	;clear compiler interrupt flag (level 2)
   317   002CC2  0E00               	movlw	low (__Lmediumconst shr (0+16))
   318   002CC4  6EF8               	movwf	tblptru,c
   319   002CC6  0100               	movlb	0
   320   002CC8  EFD8  F015         	goto	_main	;jump to C main() function
   321                           
   322                           	psect	bssCOMRAM
   323   000001                     __pbssCOMRAM:
   324                           	callstack 0
   325   000001                     _outPipes:
   326                           	callstack 0
   327   000001                     	ds	8
   328   000009                     _inPipes:
   329                           	callstack 0
   330   000009                     	ds	6
   331   00000F                     _USB1msTickCount:
   332                           	callstack 0
   333   00000F                     	ds	4
   334   000013                     _pBDTEntryIn:
   335                           	callstack 0
   336   000013                     	ds	4
   337   000017                     _pBDTEntryOut:
   338                           	callstack 0
   339   000017                     	ds	4
   340   00001B                     _lastTransmission:
   341                           	callstack 0
   342   00001B                     	ds	2
   343   00001D                     _ep_data_out:
   344                           	callstack 0
   345   00001D                     	ds	2
   346   00001F                     _ep_data_in:
   347                           	callstack 0
   348   00001F                     	ds	2
   349   000021                     _pDst:
   350                           	callstack 0
   351   000021                     	ds	2
   352   000023                     _pBDTEntryEP0OutNext:
   353                           	callstack 0
   354   000023                     	ds	2
   355   000025                     _pBDTEntryEP0OutCurrent:
   356                           	callstack 0
   357   000025                     	ds	2
   358   000027                     _USBTicksSinceSuspendEnd:
   359                           	callstack 0
   360   000027                     	ds	1
   361   000028                     _USBDeferOUTDataStagePackets:
   362                           	callstack 0
   363   000028                     	ds	1
   364   000029                     _USBDeferINDataStagePackets:
   365                           	callstack 0
   366   000029                     	ds	1
   367   00002A                     _USBStatusStageEnabledFlag2:
   368                           	callstack 0
   369   00002A                     	ds	1
   370   00002B                     _USBStatusStageEnabledFlag1:
   371                           	callstack 0
   372   00002B                     	ds	1
   373   00002C                     _USBDeferStatusStagePacket:
   374                           	callstack 0
   375   00002C                     	ds	1
   376   00002D                     _USBStatusStageTimeoutCounter:
   377                           	callstack 0
   378   00002D                     	ds	1
   379   00002E                     _BothEP0OutUOWNsSet:
   380                           	callstack 0
   381   00002E                     	ds	1
   382   00002F                     _endpoint_number:
   383                           	callstack 0
   384   00002F                     	ds	1
   385   000030                     _USBBusIsSuspended:
   386                           	callstack 0
   387   000030                     	ds	1
   388   000031                     _RemoteWakeup:
   389                           	callstack 0
   390   000031                     	ds	1
   391   000032                     _controlTransferState:
   392                           	callstack 0
   393   000032                     	ds	1
   394   000033                     _shortPacketStatus:
   395                           	callstack 0
   396   000033                     	ds	1
   397   000034                     _USBDeviceState:
   398                           	callstack 0
   399   000034                     	ds	1
   400   000035                     _active_protocol:
   401                           	callstack 0
   402   000035                     	ds	1
   403   000036                     _idle_rate:
   404                           	callstack 0
   405   000036                     	ds	1
   406   000037                     _USTATcopy:
   407                           	callstack 0
   408   000037                     	ds	1
   409   000038                     _USBAlternateInterface:
   410                           	callstack 0
   411   000038                     	ds	1
   412   000039                     _USBActiveConfiguration:
   413                           	callstack 0
   414   000039                     	ds	1
   415                           
   416                           	psect	cstackCOMRAM
   417   00003A                     __pcstackCOMRAM:
   418                           	callstack 0
   419   00003A                     ??_BUTTON_IsPressed:
   420   00003A                     ??_BUTTON_Enable:
   421   00003A                     ??_ADC_Enable:
   422   00003A                     ??_USBStdGetDscHandler:
   423   00003A                     ??_USBStdGetStatusHandler:
   424   00003A                     ??_USBCheckHIDRequest:
   425   00003A                     ?_ADC_Readbits:
   426                           	callstack 0
   427   00003A                     ?_USBTransferOnePacket:
   428                           	callstack 0
   429   00003A                     ADC_SetConfiguration@configuration:
   430                           	callstack 0
   431   00003A                     USBTransferOnePacket@dir:
   432                           	callstack 0
   433   00003A                     USBConfigureEndpoint@direction:
   434                           	callstack 0
   435   00003A                     USBCtrlTrfTxService@byteToSend:
   436                           	callstack 0
   437   00003A                     USBCtrlTrfRxService@i:
   438                           	callstack 0
   439   00003A                     memcpy@d1:
   440                           	callstack 0
   441   00003A                     memset@dest:
   442                           	callstack 0
   443                           
   444                           ; 2 bytes @ 0x0
   445   00003A                     	ds	1
   446   00003B                     ??_USBConfigureEndpoint:
   447   00003B                     USBCtrlTrfRxService@byteToRead:
   448                           	callstack 0
   449   00003B                     USBCtrlTrfInHandler@lastDTS:
   450                           	callstack 0
   451   00003B                     USBTransferOnePacket@data:
   452                           	callstack 0
   453                           
   454                           ; 2 bytes @ 0x1
   455   00003B                     	ds	1
   456   00003C                     ??_ADC_Readbits:
   457   00003C                     BUTTON_IsPressed@button:
   458                           	callstack 0
   459   00003C                     BUTTON_Enable@button:
   460                           	callstack 0
   461   00003C                     ADC_Enable@channel:
   462                           	callstack 0
   463   00003C                     USBStdGetStatusHandler@p:
   464                           	callstack 0
   465   00003C                     memcpy@s1:
   466                           	callstack 0
   467   00003C                     memset@c:
   468                           	callstack 0
   469                           
   470                           ; 2 bytes @ 0x2
   471   00003C                     	ds	1
   472   00003D                     ??_SYSTEM_Initialize:
   473   00003D                     USBTransferOnePacket@len:
   474                           	callstack 0
   475                           
   476                           ; 1 bytes @ 0x3
   477   00003D                     	ds	1
   478   00003E                     ??_USBTransferOnePacket:
   479   00003E                     ADC_Readbits@result:
   480                           	callstack 0
   481   00003E                     memcpy@n:
   482                           	callstack 0
   483   00003E                     memset@n:
   484                           	callstack 0
   485                           
   486                           ; 2 bytes @ 0x4
   487   00003E                     	ds	1
   488   00003F                     SYSTEM_Initialize@state:
   489                           	callstack 0
   490                           
   491                           ; 1 bytes @ 0x5
   492   00003F                     	ds	1
   493   000040                     ??_memset:
   494   000040                     ADC_Readbits@channel:
   495                           	callstack 0
   496   000040                     memcpy@d:
   497                           	callstack 0
   498                           
   499                           ; 2 bytes @ 0x6
   500   000040                     	ds	1
   501   000041                     ?_ADC_multiButton:
   502                           	callstack 0
   503   000041                     USBConfigureEndpoint@EPNum:
   504                           	callstack 0
   505                           
   506                           ; 1 bytes @ 0x7
   507   000041                     	ds	1
   508   000042                     USBTransferOnePacket@ep:
   509                           	callstack 0
   510   000042                     USBConfigureEndpoint@handle:
   511                           	callstack 0
   512   000042                     memcpy@s:
   513                           	callstack 0
   514   000042                     memset@k:
   515                           	callstack 0
   516                           
   517                           ; 2 bytes @ 0x8
   518   000042                     	ds	1
   519   000043                     ADC_multiButton@channel:
   520                           	callstack 0
   521   000043                     USBTransferOnePacket@handle:
   522                           	callstack 0
   523                           
   524                           ; 2 bytes @ 0x9
   525   000043                     	ds	1
   526   000044                     USBEnableEndpoint@options:
   527                           	callstack 0
   528   000044                     memcpy@tmp:
   529                           	callstack 0
   530   000044                     ADC_multiButton@adc_volt:
   531                           	callstack 0
   532   000044                     memset@s:
   533                           	callstack 0
   534                           
   535                           ; 2 bytes @ 0xA
   536   000044                     	ds	1
   537   000045                     USBEnableEndpoint@p:
   538                           	callstack 0
   539                           
   540                           ; 2 bytes @ 0xB
   541   000045                     	ds	1
   542   000046                     ??_APP_DeviceJoystickTasks:
   543   000046                     USBDeviceInit@i:
   544                           	callstack 0
   545                           
   546                           ; 1 bytes @ 0xC
   547   000046                     	ds	1
   548   000047                     USBEnableEndpoint@ep:
   549                           	callstack 0
   550                           
   551                           ; 1 bytes @ 0xD
   552   000047                     	ds	1
   553   000048                     USER_USB_CALLBACK_EVENT_HANDLER@event:
   554                           	callstack 0
   555                           
   556                           ; 2 bytes @ 0xE
   557   000048                     	ds	2
   558   00004A                     USER_USB_CALLBACK_EVENT_HANDLER@pdata:
   559                           	callstack 0
   560                           
   561                           ; 2 bytes @ 0x10
   562   00004A                     	ds	2
   563   00004C                     USER_USB_CALLBACK_EVENT_HANDLER@size:
   564                           	callstack 0
   565                           
   566                           ; 2 bytes @ 0x12
   567   00004C                     	ds	2
   568   00004E                     ??_USER_USB_CALLBACK_EVENT_HANDLER:
   569                           
   570                           ; 1 bytes @ 0x14
   571   00004E                     	ds	2
   572   000050                     ??_USBStdFeatureReqHandler:
   573   000050                     USBStdSetCfgHandler@i:
   574                           	callstack 0
   575                           
   576                           ; 1 bytes @ 0x16
   577   000050                     	ds	2
   578   000052                     USBStdFeatureReqHandler@pUEP:
   579                           	callstack 0
   580                           
   581                           ; 2 bytes @ 0x18
   582   000052                     	ds	2
   583   000054                     USBStdFeatureReqHandler@current_ep_data:
   584                           	callstack 0
   585                           
   586                           ; 1 bytes @ 0x1A
   587   000054                     	ds	1
   588   000055                     USBStdFeatureReqHandler@p:
   589                           	callstack 0
   590                           
   591                           ; 2 bytes @ 0x1B
   592   000055                     	ds	2
   593   000057                     ??_USBCheckStdRequest:
   594                           
   595                           ; 1 bytes @ 0x1D
   596   000057                     	ds	2
   597   000059                     ??_USBCtrlEPService:
   598   000059                     
   599                           ; 1 bytes @ 0x1F
   600   000059                     	ds	1
   601   00005A                     USBDeviceTasks@i:
   602                           	callstack 0
   603                           
   604                           ; 1 bytes @ 0x20
   605   00005A                     	ds	1
   606   00005B                     
   607                           ; 1 bytes @ 0x21
   608 ;;
   609 ;;Main: autosize = 0, tempsize = 0, incstack = 0, save=0
   610 ;;
   611 ;; *************** function _main *****************
   612 ;; Defined at:
   613 ;;		line 10 in file "../source/main.c"
   614 ;; Parameters:    Size  Location     Type
   615 ;;		None
   616 ;; Auto vars:     Size  Location     Type
   617 ;;		None
   618 ;; Return value:  Size  Location     Type
   619 ;;                  1    wreg      void 
   620 ;; Registers used:
   621 ;;		wreg, fsr1l, fsr1h, fsr2l, fsr2h, status,2, status,0, tblptrl, tblptrh, tblptru, prodl, prodh, cstack
   622 ;; Tracked objects:
   623 ;;		On entry : 0/0
   624 ;;		On exit  : 0/0
   625 ;;		Unchanged: 0/0
   626 ;; Data sizes:     COMRAM   BANK0   BANK1   BANK2   BANK3   BANK4   BANK5   BANK6   BANK7
   627 ;;      Params:         0       0       0       0       0       0       0       0       0
   628 ;;      Locals:         0       0       0       0       0       0       0       0       0
   629 ;;      Temps:          0       0       0       0       0       0       0       0       0
   630 ;;      Totals:         0       0       0       0       0       0       0       0       0
   631 ;;Total ram usage:        0 bytes
   632 ;; Hardware stack levels required when called: 10
   633 ;; This function calls:
   634 ;;		_APP_DeviceJoystickTasks
   635 ;;		_SYSTEM_Initialize
   636 ;;		_USBDeviceInit
   637 ;;		_USBDeviceTasks
   638 ;; This function is called by:
   639 ;;		Startup code after reset
   640 ;; This function uses a non-reentrant model
   641 ;;
   642                           
   643                           	psect	text0
   644   002BB0                     __ptext0:
   645                           	callstack 0
   646   002BB0                     _main:
   647                           	callstack 21
   648   002BB0                     
   649                           ;../source/main.c: 12:     SYSTEM_Initialize(SYSTEM_STATE_USB_START);
   650   002BB0  0E00               	movlw	0
   651   002BB2  EC0F  F014         	call	_SYSTEM_Initialize
   652   002BB6                     
   653                           ;../source/main.c: 14:     USBDeviceInit();
   654   002BB6  ECD7  F00B         	call	_USBDeviceInit	;wreg free
   655   002BBA                     l3475:
   656                           
   657                           ;../source/main.c: 18:     {;../source/main.c: 36:             USBDeviceTasks();
   658   002BBA  EC93  F008         	call	_USBDeviceTasks	;wreg free
   659   002BBE                     
   660                           ;../source/main.c: 42:         if( USBDeviceState < CONFIGURED_STATE )
   661   002BBE  0E20               	movlw	32
   662   002BC0  6034               	cpfslt	_USBDeviceState^0,c
   663   002BC2  EFE5  F015         	goto	u3221
   664   002BC6  EFE7  F015         	goto	u3220
   665   002BCA                     u3221:
   666   002BCA  EFE9  F015         	goto	l573
   667   002BCE                     u3220:
   668   002BCE  EFDD  F015         	goto	l3475
   669   002BD2                     l573:
   670                           
   671                           ;../source/main.c: 52:         if( UCONbits.SUSPND == 1 )
   672   002BD2  A26D               	btfss	109,1,c	;volatile
   673   002BD4  EFEE  F015         	goto	u3231
   674   002BD8  EFF0  F015         	goto	u3230
   675   002BDC                     u3231:
   676   002BDC  EFF2  F015         	goto	l3483
   677   002BE0                     u3230:
   678   002BE0  EFDD  F015         	goto	l3475
   679   002BE4                     l3483:
   680                           
   681                           ;../source/main.c: 59:         APP_DeviceJoystickTasks();
   682   002BE4  EC53  F004         	call	_APP_DeviceJoystickTasks	;wreg free
   683   002BE8  EFDD  F015         	goto	l3475
   684   002BEC  EF07  F000         	goto	start
   685   002BF0                     __end_of_main:
   686                           	callstack 0
   687                           
   688 ;; *************** function _USBDeviceTasks *****************
   689 ;; Defined at:
   690 ;;		line 437 in file "../source/usb/usb_device.c"
   691 ;; Parameters:    Size  Location     Type
   692 ;;		None
   693 ;; Auto vars:     Size  Location     Type
   694 ;;  i               1   32[COMRAM] unsigned char 
   695 ;; Return value:  Size  Location     Type
   696 ;;                  1    wreg      void 
   697 ;; Registers used:
   698 ;;		wreg, fsr1l, fsr1h, fsr2l, fsr2h, status,2, status,0, tblptrl, tblptrh, tblptru, prodl, prodh, cstack
   699 ;; Tracked objects:
   700 ;;		On entry : 0/0
   701 ;;		On exit  : 0/0
   702 ;;		Unchanged: 0/0
   703 ;; Data sizes:     COMRAM   BANK0   BANK1   BANK2   BANK3   BANK4   BANK5   BANK6   BANK7
   704 ;;      Params:         0       0       0       0       0       0       0       0       0
   705 ;;      Locals:         1       0       0       0       0       0       0       0       0
   706 ;;      Temps:          0       0       0       0       0       0       0       0       0
   707 ;;      Totals:         1       0       0       0       0       0       0       0       0
   708 ;;Total ram usage:        1 bytes
   709 ;; Hardware stack levels used: 1
   710 ;; Hardware stack levels required when called: 9
   711 ;; This function calls:
   712 ;;		_USBCtrlEPAllowStatusStage
   713 ;;		_USBCtrlEPService
   714 ;;		_USBDeviceInit
   715 ;;		_USBIncrement1msInternalTimers
   716 ;;		_USBStallHandler
   717 ;;		_USBSuspend
   718 ;;		_USBWakeFromSuspend
   719 ;;		_USER_USB_CALLBACK_EVENT_HANDLER
   720 ;; This function is called by:
   721 ;;		_main
   722 ;; This function uses a non-reentrant model
   723 ;;
   724                           
   725                           	psect	text1
   726   001126                     __ptext1:
   727                           	callstack 0
   728   001126                     _USBDeviceTasks:
   729                           	callstack 21
   730   001126                     
   731                           ;../source/usb/usb_device.c: 526:     if(USBDeviceState == DETACHED_STATE)
   732   001126  5034               	movf	_USBDeviceState^0,w,c
   733   001128  A4D8               	btfss	status,2,c
   734   00112A  EF99  F008         	goto	u2491
   735   00112E  EF9B  F008         	goto	u2490
   736   001132                     u2491:
   737   001132  EFB1  F008         	goto	l3357
   738   001136                     u2490:
   739   001136                     
   740                           ;../source/usb/usb_device.c: 527:     {;../source/usb/usb_device.c: 529:         UCON = 
      +                          0;
   741   001136  0E00               	movlw	0
   742   001138  6E6D               	movwf	109,c	;volatile
   743                           
   744                           ;../source/usb/usb_device.c: 532:         UIE = 0;
   745   00113A  0E00               	movlw	0
   746   00113C  6E69               	movwf	105,c	;volatile
   747                           
   748                           ;../source/usb/usb_device.c: 536:         { UCFG = 0x10 | 0x00 | 0x04 | 0x02; UEIE = 0x9
      +                          F; UIE = 0x39 | 0x40 | 0x02; };
   749   00113E  0E16               	movlw	22
   750   001140  6E6F               	movwf	111,c	;volatile
   751   001142  0E9F               	movlw	159
   752   001144  6E6B               	movwf	107,c	;volatile
   753   001146  0E7B               	movlw	123
   754   001148  6E69               	movwf	105,c	;volatile
   755                           
   756                           ;../source/usb/usb_device.c: 539:         while(!UCONbits.USBEN){UCONbits.USBEN = 1;}
   757   00114A  EFA8  F008         	goto	l243
   758   00114E                     l244:
   759   00114E  866D               	bsf	109,3,c	;volatile
   760   001150                     l243:
   761   001150  A66D               	btfss	109,3,c	;volatile
   762   001152  EFAD  F008         	goto	u2501
   763   001156  EFAF  F008         	goto	u2500
   764   00115A                     u2501:
   765   00115A  EFA7  F008         	goto	l244
   766   00115E                     u2500:
   767   00115E                     
   768                           ;../source/usb/usb_device.c: 542:         USBDeviceState = ATTACHED_STATE;
   769   00115E  0E01               	movlw	1
   770   001160  6E34               	movwf	_USBDeviceState^0,c
   771   001162                     l3357:
   772                           
   773                           ;../source/usb/usb_device.c: 550:     if(USBDeviceState == ATTACHED_STATE)
   774   001162  0434               	decf	_USBDeviceState^0,w,c
   775   001164  A4D8               	btfss	status,2,c
   776   001166  EFB7  F008         	goto	u2511
   777   00116A  EFB9  F008         	goto	u2510
   778   00116E                     u2511:
   779   00116E  EFC8  F008         	goto	l3367
   780   001172                     u2510:
   781   001172                     
   782                           ;../source/usb/usb_device.c: 551:     {;../source/usb/usb_device.c: 561:         if(!UCO
      +                          Nbits.SE0)
   783   001172  BA6D               	btfsc	109,5,c	;volatile
   784   001174  EFBE  F008         	goto	u2521
   785   001178  EFC0  F008         	goto	u2520
   786   00117C                     u2521:
   787   00117C  EFC8  F008         	goto	l3367
   788   001180                     u2520:
   789   001180                     
   790                           ;../source/usb/usb_device.c: 562:         {;../source/usb/usb_device.c: 568:            
      +                               {UIR = 0;};
   791   001180  0E00               	movlw	0
   792   001182  6E68               	movwf	104,c	;volatile
   793                           
   794                           ;../source/usb/usb_device.c: 572:                 UIE=0;
   795   001184  0E00               	movlw	0
   796   001186  6E69               	movwf	105,c	;volatile
   797   001188                     
   798                           ;../source/usb/usb_device.c: 574:             UIEbits.URSTIE = 1;
   799   001188  8069               	bsf	105,0,c	;volatile
   800   00118A                     
   801                           ;../source/usb/usb_device.c: 575:             UIEbits.IDLEIE = 1;
   802   00118A  8869               	bsf	105,4,c	;volatile
   803                           
   804                           ;../source/usb/usb_device.c: 576:             USBDeviceState = POWERED_STATE;
   805   00118C  0E02               	movlw	2
   806   00118E  6E34               	movwf	_USBDeviceState^0,c
   807   001190                     l3367:
   808                           
   809                           ;../source/usb/usb_device.c: 594:     if(UIRbits.ACTVIF && UIEbits.ACTVIE)
   810   001190  A468               	btfss	104,2,c	;volatile
   811   001192  EFCD  F008         	goto	u2531
   812   001196  EFCF  F008         	goto	u2530
   813   00119A                     u2531:
   814   00119A  EFD9  F008         	goto	l3375
   815   00119E                     u2530:
   816   00119E  A469               	btfss	105,2,c	;volatile
   817   0011A0  EFD4  F008         	goto	u2541
   818   0011A4  EFD6  F008         	goto	u2540
   819   0011A8                     u2541:
   820   0011A8  EFD9  F008         	goto	l3375
   821   0011AC                     u2540:
   822   0011AC                     
   823                           ;../source/usb/usb_device.c: 595:     {;../source/usb/usb_device.c: 596:         (UIR &=
      +                           0xFB);
   824   0011AC  9468               	bcf	104,2,c	;volatile
   825   0011AE                     
   826                           ;../source/usb/usb_device.c: 600:             USBWakeFromSuspend();
   827   0011AE  ECF8  F015         	call	_USBWakeFromSuspend	;wreg free
   828   0011B2                     l3375:
   829                           
   830                           ;../source/usb/usb_device.c: 607:     if(UCONbits.SUSPND==1)
   831   0011B2  A26D               	btfss	109,1,c	;volatile
   832   0011B4  EFDE  F008         	goto	u2551
   833   0011B8  EFE0  F008         	goto	u2550
   834   0011BC                     u2551:
   835   0011BC  EFE3  F008         	goto	l249
   836   0011C0                     u2550:
   837   0011C0                     
   838                           ;../source/usb/usb_device.c: 608:     {;../source/usb/usb_device.c: 609:         {PIR2bi
      +                          ts.USBIF = 0;};
   839   0011C0  9AA1               	bcf	161,5,c	;volatile
   840                           
   841                           ;../source/usb/usb_device.c: 610:         return;
   842   0011C2  EFC3  F009         	goto	l241
   843   0011C6                     l249:
   844                           
   845                           ;../source/usb/usb_device.c: 623:     if(UIRbits.URSTIF && UIEbits.URSTIE)
   846   0011C6  A068               	btfss	104,0,c	;volatile
   847   0011C8  EFE8  F008         	goto	u2561
   848   0011CC  EFEA  F008         	goto	u2560
   849   0011D0                     u2561:
   850   0011D0  EFF6  F008         	goto	l3387
   851   0011D4                     u2560:
   852   0011D4  A069               	btfss	105,0,c	;volatile
   853   0011D6  EFEF  F008         	goto	u2571
   854   0011DA  EFF1  F008         	goto	u2570
   855   0011DE                     u2571:
   856   0011DE  EFF6  F008         	goto	l3387
   857   0011E2                     u2570:
   858   0011E2                     
   859                           ;../source/usb/usb_device.c: 624:     {;../source/usb/usb_device.c: 625:         USBDevi
      +                          ceInit();
   860   0011E2  ECD7  F00B         	call	_USBDeviceInit	;wreg free
   861   0011E6                     
   862                           ;../source/usb/usb_device.c: 631:         USBDeviceState = DEFAULT_STATE;
   863   0011E6  0E04               	movlw	4
   864   0011E8  6E34               	movwf	_USBDeviceState^0,c
   865   0011EA                     
   866                           ;../source/usb/usb_device.c: 641:         (UIR &= 0xFE);
   867   0011EA  9068               	bcf	104,0,c	;volatile
   868   0011EC                     l3387:
   869                           
   870                           ;../source/usb/usb_device.c: 647:     if(UIRbits.IDLEIF && UIEbits.IDLEIE)
   871   0011EC  A868               	btfss	104,4,c	;volatile
   872   0011EE  EFFB  F008         	goto	u2581
   873   0011F2  EFFD  F008         	goto	u2580
   874   0011F6                     u2581:
   875   0011F6  EF06  F009         	goto	l3393
   876   0011FA                     u2580:
   877   0011FA  A869               	btfss	105,4,c	;volatile
   878   0011FC  EF02  F009         	goto	u2591
   879   001200  EF04  F009         	goto	u2590
   880   001204                     u2591:
   881   001204  EF06  F009         	goto	l3393
   882   001208                     u2590:
   883   001208                     
   884                           ;../source/usb/usb_device.c: 648:     {;../source/usb/usb_device.c: 654:             USB
      +                          Suspend();
   885   001208  EC30  F016         	call	_USBSuspend	;wreg free
   886   00120C                     l3393:
   887                           
   888                           ;../source/usb/usb_device.c: 668:     if(UIRbits.SOFIF)
   889   00120C  AC68               	btfss	104,6,c	;volatile
   890   00120E  EF0B  F009         	goto	u2601
   891   001212  EF0D  F009         	goto	u2600
   892   001216                     u2601:
   893   001216  EF38  F009         	goto	l3411
   894   00121A                     u2600:
   895   00121A                     
   896                           ;../source/usb/usb_device.c: 669:     {;../source/usb/usb_device.c: 671:         if(UIEb
      +                          its.SOFIE)
   897   00121A  AC69               	btfss	105,6,c	;volatile
   898   00121C  EF12  F009         	goto	u2611
   899   001220  EF14  F009         	goto	u2610
   900   001224                     u2611:
   901   001224  EF22  F009         	goto	l3399
   902   001228                     u2610:
   903   001228                     
   904                           ;../source/usb/usb_device.c: 672:         {;../source/usb/usb_device.c: 673:            
      +                           USER_USB_CALLBACK_EVENT_HANDLER((USB_EVENT)EVENT_SOF,0,1);
   905   001228  0E00               	movlw	0
   906   00122A  6E49               	movwf	(USER_USB_CALLBACK_EVENT_HANDLER@event+1)^0,c
   907   00122C  0E73               	movlw	115
   908   00122E  6E48               	movwf	USER_USB_CALLBACK_EVENT_HANDLER@event^0,c
   909   001230  0E00               	movlw	0
   910   001232  6E4A               	movwf	USER_USB_CALLBACK_EVENT_HANDLER@pdata^0,c
   911   001234  0E00               	movlw	0
   912   001236  6E4B               	movwf	(USER_USB_CALLBACK_EVENT_HANDLER@pdata+1)^0,c
   913   001238  0E00               	movlw	0
   914   00123A  6E4D               	movwf	(USER_USB_CALLBACK_EVENT_HANDLER@size+1)^0,c
   915   00123C  0E01               	movlw	1
   916   00123E  6E4C               	movwf	USER_USB_CALLBACK_EVENT_HANDLER@size^0,c
   917   001240  EC73  F013         	call	_USER_USB_CALLBACK_EVENT_HANDLER	;wreg free
   918   001244                     l3399:
   919                           
   920                           ;../source/usb/usb_device.c: 675:         (UIR &= 0xBF);
   921   001244  9C68               	bcf	104,6,c	;volatile
   922   001246                     
   923                           ;../source/usb/usb_device.c: 678:             USBIncrement1msInternalTimers();
   924   001246  EC17  F016         	call	_USBIncrement1msInternalTimers	;wreg free
   925   00124A                     
   926                           ;../source/usb/usb_device.c: 695:             if(USBStatusStageTimeoutCounter != 0u)
   927   00124A  502D               	movf	_USBStatusStageTimeoutCounter^0,w,c
   928   00124C  B4D8               	btfsc	status,2,c
   929   00124E  EF2B  F009         	goto	u2621
   930   001252  EF2D  F009         	goto	u2620
   931   001256                     u2621:
   932   001256  EF2E  F009         	goto	l3407
   933   00125A                     u2620:
   934   00125A                     
   935                           ;../source/usb/usb_device.c: 696:             {;../source/usb/usb_device.c: 697:        
      +                                   USBStatusStageTimeoutCounter--;
   936   00125A  062D               	decf	_USBStatusStageTimeoutCounter^0,f,c
   937   00125C                     l3407:
   938                           
   939                           ;../source/usb/usb_device.c: 704:             if(USBStatusStageTimeoutCounter == 0)
   940   00125C  502D               	movf	_USBStatusStageTimeoutCounter^0,w,c
   941   00125E  A4D8               	btfss	status,2,c
   942   001260  EF34  F009         	goto	u2631
   943   001264  EF36  F009         	goto	u2630
   944   001268                     u2631:
   945   001268  EF38  F009         	goto	l3411
   946   00126C                     u2630:
   947   00126C                     
   948                           ;../source/usb/usb_device.c: 705:             {;../source/usb/usb_device.c: 706:        
      +                                   USBCtrlEPAllowStatusStage();
   949   00126C  EC0C  F011         	call	_USBCtrlEPAllowStatusStage	;wreg free
   950   001270                     l3411:
   951                           
   952                           ;../source/usb/usb_device.c: 711:     if(UIRbits.STALLIF && UIEbits.STALLIE)
   953   001270  AA68               	btfss	104,5,c	;volatile
   954   001272  EF3D  F009         	goto	u2641
   955   001276  EF3F  F009         	goto	u2640
   956   00127A                     u2641:
   957   00127A  EF48  F009         	goto	l3417
   958   00127E                     u2640:
   959   00127E  AA69               	btfss	105,5,c	;volatile
   960   001280  EF44  F009         	goto	u2651
   961   001284  EF46  F009         	goto	u2650
   962   001288                     u2651:
   963   001288  EF48  F009         	goto	l3417
   964   00128C                     u2650:
   965   00128C                     
   966                           ;../source/usb/usb_device.c: 712:     {;../source/usb/usb_device.c: 713:         USBStal
      +                          lHandler();
   967   00128C  EC5A  F015         	call	_USBStallHandler	;wreg free
   968   001290                     l3417:
   969                           
   970                           ;../source/usb/usb_device.c: 716:     if(UIRbits.UERRIF && UIEbits.UERRIE)
   971   001290  A268               	btfss	104,1,c	;volatile
   972   001292  EF4D  F009         	goto	u2661
   973   001296  EF4F  F009         	goto	u2660
   974   00129A                     u2661:
   975   00129A  EF65  F009         	goto	l3425
   976   00129E                     u2660:
   977   00129E  A269               	btfss	105,1,c	;volatile
   978   0012A0  EF54  F009         	goto	u2671
   979   0012A4  EF56  F009         	goto	u2670
   980   0012A8                     u2671:
   981   0012A8  EF65  F009         	goto	l3425
   982   0012AC                     u2670:
   983   0012AC                     
   984                           ;../source/usb/usb_device.c: 717:     {;../source/usb/usb_device.c: 718:         USER_US
      +                          B_CALLBACK_EVENT_HANDLER((USB_EVENT)EVENT_BUS_ERROR,0,1);
   985   0012AC  0E7F               	movlw	127
   986   0012AE  6E49               	movwf	(USER_USB_CALLBACK_EVENT_HANDLER@event+1)^0,c
   987   0012B0  6848               	setf	USER_USB_CALLBACK_EVENT_HANDLER@event^0,c
   988   0012B2  0E00               	movlw	0
   989   0012B4  6E4A               	movwf	USER_USB_CALLBACK_EVENT_HANDLER@pdata^0,c
   990   0012B6  0E00               	movlw	0
   991   0012B8  6E4B               	movwf	(USER_USB_CALLBACK_EVENT_HANDLER@pdata+1)^0,c
   992   0012BA  0E00               	movlw	0
   993   0012BC  6E4D               	movwf	(USER_USB_CALLBACK_EVENT_HANDLER@size+1)^0,c
   994   0012BE  0E01               	movlw	1
   995   0012C0  6E4C               	movwf	USER_USB_CALLBACK_EVENT_HANDLER@size^0,c
   996   0012C2  EC73  F013         	call	_USER_USB_CALLBACK_EVENT_HANDLER	;wreg free
   997   0012C6                     
   998                           ;../source/usb/usb_device.c: 719:         {UEIR = 0;};
   999   0012C6  0E00               	movlw	0
  1000   0012C8  6E6A               	movwf	106,c	;volatile
  1001   0012CA                     l3425:
  1002                           
  1003                           ;../source/usb/usb_device.c: 734:     if(USBDeviceState < DEFAULT_STATE)
  1004   0012CA  0E04               	movlw	4
  1005   0012CC  6034               	cpfslt	_USBDeviceState^0,c
  1006   0012CE  EF6B  F009         	goto	u2681
  1007   0012D2  EF6D  F009         	goto	u2680
  1008   0012D6                     u2681:
  1009   0012D6  EF70  F009         	goto	l258
  1010   0012DA                     u2680:
  1011   0012DA                     
  1012                           ;../source/usb/usb_device.c: 735:     {;../source/usb/usb_device.c: 736:         {PIR2bi
      +                          ts.USBIF = 0;};
  1013   0012DA  9AA1               	bcf	161,5,c	;volatile
  1014                           
  1015                           ;../source/usb/usb_device.c: 737:         return;
  1016   0012DC  EFC3  F009         	goto	l241
  1017   0012E0                     l258:
  1018                           
  1019                           ;../source/usb/usb_device.c: 743:     if(UIEbits.TRNIE)
  1020   0012E0  A669               	btfss	105,3,c	;volatile
  1021   0012E2  EF75  F009         	goto	u2691
  1022   0012E6  EF77  F009         	goto	u2690
  1023   0012EA                     u2691:
  1024   0012EA  EFC2  F009         	goto	l259
  1025   0012EE                     u2690:
  1026   0012EE                     
  1027                           ;../source/usb/usb_device.c: 744:     {;../source/usb/usb_device.c: 745:         for(i =
      +                           0; i < 4u; i++)
  1028   0012EE  0E00               	movlw	0
  1029   0012F0  6E5A               	movwf	USBDeviceTasks@i^0,c
  1030   0012F2                     l260:
  1031                           
  1032                           ;../source/usb/usb_device.c: 746:         {;../source/usb/usb_device.c: 747:            
      +                           if(UIRbits.TRNIF)
  1033   0012F2  A668               	btfss	104,3,c	;volatile
  1034   0012F4  EF7E  F009         	goto	u2701
  1035   0012F8  EF80  F009         	goto	u2700
  1036   0012FC                     u2701:
  1037   0012FC  EFC2  F009         	goto	l259
  1038   001300                     u2700:
  1039   001300                     
  1040                           ;../source/usb/usb_device.c: 748:             {;../source/usb/usb_device.c: 750:        
      +                                   USTATcopy.Val = USTAT;
  1041   001300  CF6C F037          	movff	3948,_USTATcopy	;volatile
  1042   001304                     
  1043                           ;../source/usb/usb_device.c: 751:                 endpoint_number = USTATcopy.endpoint_n
      +                          umber;
  1044   001304  3037               	rrcf	_USTATcopy^0,w,c
  1045   001306  32E8               	rrcf	wreg,f,c
  1046   001308  32E8               	rrcf	wreg,f,c
  1047   00130A  0B0F               	andlw	15
  1048   00130C  6E2F               	movwf	_endpoint_number^0,c
  1049   00130E                     
  1050                           ;../source/usb/usb_device.c: 753:                 (UIR &= 0xF7);
  1051   00130E  9668               	bcf	104,3,c	;volatile
  1052   001310                     
  1053                           ;../source/usb/usb_device.c: 758:                 if(USTATcopy.direction == 0)
  1054   001310  B437               	btfsc	_USTATcopy^0,2,c
  1055   001312  EF8D  F009         	goto	u2711
  1056   001316  EF8F  F009         	goto	u2710
  1057   00131A                     u2711:
  1058   00131A  EF98  F009         	goto	l3445
  1059   00131E                     u2710:
  1060   00131E                     
  1061                           ;../source/usb/usb_device.c: 759:                 {;../source/usb/usb_device.c: 760:    
      +                                           ep_data_out[endpoint_number].bits.ping_pong_state ^= 1;
  1062   00131E  0E1D               	movlw	low _ep_data_out
  1063   001320  242F               	addwf	_endpoint_number^0,w,c
  1064   001322  6ED9               	movwf	fsr2l,c
  1065   001324  6ADA               	clrf	fsr2h,c
  1066   001326  0E00               	movlw	high _ep_data_out
  1067   001328  22DA               	addwfc	fsr2h,f,c
  1068   00132A  70DF               	btg	indf2,0,c
  1069                           
  1070                           ;../source/usb/usb_device.c: 761:                 }
  1071   00132C  EF9F  F009         	goto	l3447
  1072   001330                     l3445:
  1073                           
  1074                           ;../source/usb/usb_device.c: 763:                 {;../source/usb/usb_device.c: 764:    
      +                                           ep_data_in[endpoint_number].bits.ping_pong_state ^= 1;
  1075   001330  0E1F               	movlw	low _ep_data_in
  1076   001332  242F               	addwf	_endpoint_number^0,w,c
  1077   001334  6ED9               	movwf	fsr2l,c
  1078   001336  6ADA               	clrf	fsr2h,c
  1079   001338  0E00               	movlw	high _ep_data_in
  1080   00133A  22DA               	addwfc	fsr2h,f,c
  1081   00133C  70DF               	btg	indf2,0,c
  1082   00133E                     l3447:
  1083                           
  1084                           ;../source/usb/usb_device.c: 770:                 if(endpoint_number == 0)
  1085   00133E  502F               	movf	_endpoint_number^0,w,c
  1086   001340  A4D8               	btfss	status,2,c
  1087   001342  EFA5  F009         	goto	u2721
  1088   001346  EFA7  F009         	goto	u2720
  1089   00134A                     u2721:
  1090   00134A  EFAB  F009         	goto	l3451
  1091   00134E                     u2720:
  1092   00134E                     
  1093                           ;../source/usb/usb_device.c: 771:                 {;../source/usb/usb_device.c: 772:    
      +                                           USBCtrlEPService();
  1094   00134E  EC69  F012         	call	_USBCtrlEPService	;wreg free
  1095                           
  1096                           ;../source/usb/usb_device.c: 773:                 }
  1097   001352  EFB9  F009         	goto	l3453
  1098   001356                     l3451:
  1099                           
  1100                           ;../source/usb/usb_device.c: 775:                 {;../source/usb/usb_device.c: 776:    
      +                                           USER_USB_CALLBACK_EVENT_HANDLER((USB_EVENT)EVENT_TRANSFER,(uint8_t*)&US
      +                          TATcopy.Val,0);
  1101   001356  0E00               	movlw	0
  1102   001358  6E49               	movwf	(USER_USB_CALLBACK_EVENT_HANDLER@event+1)^0,c
  1103   00135A  0E72               	movlw	114
  1104   00135C  6E48               	movwf	USER_USB_CALLBACK_EVENT_HANDLER@event^0,c
  1105   00135E  0E37               	movlw	low _USTATcopy
  1106   001360  6E4A               	movwf	USER_USB_CALLBACK_EVENT_HANDLER@pdata^0,c
  1107   001362  0E00               	movlw	high _USTATcopy
  1108   001364  6E4B               	movwf	(USER_USB_CALLBACK_EVENT_HANDLER@pdata+1)^0,c
  1109   001366  0E00               	movlw	0
  1110   001368  6E4D               	movwf	(USER_USB_CALLBACK_EVENT_HANDLER@size+1)^0,c
  1111   00136A  0E00               	movlw	0
  1112   00136C  6E4C               	movwf	USER_USB_CALLBACK_EVENT_HANDLER@size^0,c
  1113   00136E  EC73  F013         	call	_USER_USB_CALLBACK_EVENT_HANDLER	;wreg free
  1114   001372                     l3453:
  1115                           
  1116                           ;../source/usb/usb_device.c: 783:         }
  1117   001372  2A5A               	incf	USBDeviceTasks@i^0,f,c
  1118   001374  0E03               	movlw	3
  1119   001376  645A               	cpfsgt	USBDeviceTasks@i^0,c
  1120   001378  EFC0  F009         	goto	u2731
  1121   00137C  EFC2  F009         	goto	u2730
  1122   001380                     u2731:
  1123   001380  EF79  F009         	goto	l260
  1124   001384                     u2730:
  1125   001384                     l259:
  1126                           
  1127                           ;../source/usb/usb_device.c: 786:     {PIR2bits.USBIF = 0;};
  1128   001384  9AA1               	bcf	161,5,c	;volatile
  1129   001386                     l241:
  1130   001386  0012               	return		;funcret
  1131   001388                     __end_of_USBDeviceTasks:
  1132                           	callstack 0
  1133                           
  1134 ;; *************** function _USBWakeFromSuspend *****************
  1135 ;; Defined at:
  1136 ;;		line 2266 in file "../source/usb/usb_device.c"
  1137 ;; Parameters:    Size  Location     Type
  1138 ;;		None
  1139 ;; Auto vars:     Size  Location     Type
  1140 ;;		None
  1141 ;; Return value:  Size  Location     Type
  1142 ;;                  1    wreg      void 
  1143 ;; Registers used:
  1144 ;;		wreg, fsr2l, fsr2h, status,2, status,0, prodl, prodh, cstack
  1145 ;; Tracked objects:
  1146 ;;		On entry : 0/0
  1147 ;;		On exit  : 0/0
  1148 ;;		Unchanged: 0/0
  1149 ;; Data sizes:     COMRAM   BANK0   BANK1   BANK2   BANK3   BANK4   BANK5   BANK6   BANK7
  1150 ;;      Params:         0       0       0       0       0       0       0       0       0
  1151 ;;      Locals:         0       0       0       0       0       0       0       0       0
  1152 ;;      Temps:          0       0       0       0       0       0       0       0       0
  1153 ;;      Totals:         0       0       0       0       0       0       0       0       0
  1154 ;;Total ram usage:        0 bytes
  1155 ;; Hardware stack levels used: 1
  1156 ;; Hardware stack levels required when called: 5
  1157 ;; This function calls:
  1158 ;;		_USER_USB_CALLBACK_EVENT_HANDLER
  1159 ;; This function is called by:
  1160 ;;		_USBDeviceTasks
  1161 ;; This function uses a non-reentrant model
  1162 ;;
  1163                           
  1164                           	psect	text2
  1165   002BF0                     __ptext2:
  1166                           	callstack 0
  1167   002BF0                     _USBWakeFromSuspend:
  1168                           	callstack 24
  1169   002BF0                     
  1170                           ;../source/usb/usb_device.c: 2268:     USBBusIsSuspended = 0;
  1171   002BF0  0E00               	movlw	0
  1172   002BF2  6E30               	movwf	_USBBusIsSuspended^0,c
  1173   002BF4                     
  1174                           ;../source/usb/usb_device.c: 2274:     USER_USB_CALLBACK_EVENT_HANDLER((USB_EVENT)EVENT_
      +                          RESUME,0,0);
  1175   002BF4  0E00               	movlw	0
  1176   002BF6  6E49               	movwf	(USER_USB_CALLBACK_EVENT_HANDLER@event+1)^0,c
  1177   002BF8  0E74               	movlw	116
  1178   002BFA  6E48               	movwf	USER_USB_CALLBACK_EVENT_HANDLER@event^0,c
  1179   002BFC  0E00               	movlw	0
  1180   002BFE  6E4A               	movwf	USER_USB_CALLBACK_EVENT_HANDLER@pdata^0,c
  1181   002C00  0E00               	movlw	0
  1182   002C02  6E4B               	movwf	(USER_USB_CALLBACK_EVENT_HANDLER@pdata+1)^0,c
  1183   002C04  0E00               	movlw	0
  1184   002C06  6E4D               	movwf	(USER_USB_CALLBACK_EVENT_HANDLER@size+1)^0,c
  1185   002C08  0E00               	movlw	0
  1186   002C0A  6E4C               	movwf	USER_USB_CALLBACK_EVENT_HANDLER@size^0,c
  1187   002C0C  EC73  F013         	call	_USER_USB_CALLBACK_EVENT_HANDLER	;wreg free
  1188   002C10                     
  1189                           ;../source/usb/usb_device.c: 2281:         UCONbits.SUSPND = 0;
  1190   002C10  926D               	bcf	109,1,c	;volatile
  1191   002C12                     
  1192                           ;../source/usb/usb_device.c: 2286:     UIEbits.ACTVIE = 0;
  1193   002C12  9469               	bcf	105,2,c	;volatile
  1194                           
  1195                           ;../source/usb/usb_device.c: 2304:     while(UIRbits.ACTVIF)
  1196   002C14  EF0D  F016         	goto	l3275
  1197   002C18                     l3273:
  1198                           
  1199                           ;../source/usb/usb_device.c: 2306:     {;../source/usb/usb_device.c: 2307:         (UIR 
      +                          &= 0xFB);
  1200   002C18  9468               	bcf	104,2,c	;volatile
  1201   002C1A                     l3275:
  1202                           
  1203                           ;../source/usb/usb_device.c: 2304:     while(UIRbits.ACTVIF)
  1204   002C1A  B468               	btfsc	104,2,c	;volatile
  1205   002C1C  EF12  F016         	goto	u2421
  1206   002C20  EF14  F016         	goto	u2420
  1207   002C24                     u2421:
  1208   002C24  EF0C  F016         	goto	l3273
  1209   002C28                     u2420:
  1210   002C28                     
  1211                           ;../source/usb/usb_device.c: 2310:     USBTicksSinceSuspendEnd = 0;
  1212   002C28  0E00               	movlw	0
  1213   002C2A  6E27               	movwf	_USBTicksSinceSuspendEnd^0,c
  1214   002C2C  0012               	return		;funcret
  1215   002C2E                     __end_of_USBWakeFromSuspend:
  1216                           	callstack 0
  1217                           
  1218 ;; *************** function _USBSuspend *****************
  1219 ;; Defined at:
  1220 ;;		line 2208 in file "../source/usb/usb_device.c"
  1221 ;; Parameters:    Size  Location     Type
  1222 ;;		None
  1223 ;; Auto vars:     Size  Location     Type
  1224 ;;		None
  1225 ;; Return value:  Size  Location     Type
  1226 ;;                  1    wreg      void 
  1227 ;; Registers used:
  1228 ;;		wreg, fsr2l, fsr2h, status,2, status,0, prodl, prodh, cstack
  1229 ;; Tracked objects:
  1230 ;;		On entry : 0/0
  1231 ;;		On exit  : 0/0
  1232 ;;		Unchanged: 0/0
  1233 ;; Data sizes:     COMRAM   BANK0   BANK1   BANK2   BANK3   BANK4   BANK5   BANK6   BANK7
  1234 ;;      Params:         0       0       0       0       0       0       0       0       0
  1235 ;;      Locals:         0       0       0       0       0       0       0       0       0
  1236 ;;      Temps:          0       0       0       0       0       0       0       0       0
  1237 ;;      Totals:         0       0       0       0       0       0       0       0       0
  1238 ;;Total ram usage:        0 bytes
  1239 ;; Hardware stack levels used: 1
  1240 ;; Hardware stack levels required when called: 5
  1241 ;; This function calls:
  1242 ;;		_USER_USB_CALLBACK_EVENT_HANDLER
  1243 ;; This function is called by:
  1244 ;;		_USBDeviceTasks
  1245 ;; This function uses a non-reentrant model
  1246 ;;
  1247                           
  1248                           	psect	text3
  1249   002C60                     __ptext3:
  1250                           	callstack 0
  1251   002C60                     _USBSuspend:
  1252                           	callstack 24
  1253   002C60                     
  1254                           ;../source/usb/usb_device.c: 2233:     UIEbits.ACTVIE = 1;
  1255   002C60  8469               	bsf	105,2,c	;volatile
  1256   002C62                     
  1257                           ;../source/usb/usb_device.c: 2234:     (UIR &= 0xEF);
  1258   002C62  9868               	bcf	104,4,c	;volatile
  1259   002C64                     
  1260                           ;../source/usb/usb_device.c: 2237:         UCONbits.SUSPND = 1;
  1261   002C64  826D               	bsf	109,1,c	;volatile
  1262   002C66                     
  1263                           ;../source/usb/usb_device.c: 2240:     USBBusIsSuspended = 1;
  1264   002C66  0E01               	movlw	1
  1265   002C68  6E30               	movwf	_USBBusIsSuspended^0,c
  1266   002C6A                     
  1267                           ;../source/usb/usb_device.c: 2241:     USBTicksSinceSuspendEnd = 0;
  1268   002C6A  0E00               	movlw	0
  1269   002C6C  6E27               	movwf	_USBTicksSinceSuspendEnd^0,c
  1270   002C6E                     
  1271                           ;../source/usb/usb_device.c: 2248:     USER_USB_CALLBACK_EVENT_HANDLER((USB_EVENT)EVENT_
      +                          SUSPEND,0,0);
  1272   002C6E  0E00               	movlw	0
  1273   002C70  6E49               	movwf	(USER_USB_CALLBACK_EVENT_HANDLER@event+1)^0,c
  1274   002C72  0E75               	movlw	117
  1275   002C74  6E48               	movwf	USER_USB_CALLBACK_EVENT_HANDLER@event^0,c
  1276   002C76  0E00               	movlw	0
  1277   002C78  6E4A               	movwf	USER_USB_CALLBACK_EVENT_HANDLER@pdata^0,c
  1278   002C7A  0E00               	movlw	0
  1279   002C7C  6E4B               	movwf	(USER_USB_CALLBACK_EVENT_HANDLER@pdata+1)^0,c
  1280   002C7E  0E00               	movlw	0
  1281   002C80  6E4D               	movwf	(USER_USB_CALLBACK_EVENT_HANDLER@size+1)^0,c
  1282   002C82  0E00               	movlw	0
  1283   002C84  6E4C               	movwf	USER_USB_CALLBACK_EVENT_HANDLER@size^0,c
  1284   002C86  EC73  F013         	call	_USER_USB_CALLBACK_EVENT_HANDLER	;wreg free
  1285   002C8A  0012               	return		;funcret
  1286   002C8C                     __end_of_USBSuspend:
  1287                           	callstack 0
  1288                           
  1289 ;; *************** function _USBStallHandler *****************
  1290 ;; Defined at:
  1291 ;;		line 2165 in file "../source/usb/usb_device.c"
  1292 ;; Parameters:    Size  Location     Type
  1293 ;;		None
  1294 ;; Auto vars:     Size  Location     Type
  1295 ;;		None
  1296 ;; Return value:  Size  Location     Type
  1297 ;;                  1    wreg      void 
  1298 ;; Registers used:
  1299 ;;		wreg, fsr2l, fsr2h, status,2, status,0
  1300 ;; Tracked objects:
  1301 ;;		On entry : 0/0
  1302 ;;		On exit  : 0/0
  1303 ;;		Unchanged: 0/0
  1304 ;; Data sizes:     COMRAM   BANK0   BANK1   BANK2   BANK3   BANK4   BANK5   BANK6   BANK7
  1305 ;;      Params:         0       0       0       0       0       0       0       0       0
  1306 ;;      Locals:         0       0       0       0       0       0       0       0       0
  1307 ;;      Temps:          1       0       0       0       0       0       0       0       0
  1308 ;;      Totals:         1       0       0       0       0       0       0       0       0
  1309 ;;Total ram usage:        1 bytes
  1310 ;; Hardware stack levels used: 1
  1311 ;; Hardware stack levels required when called: 1
  1312 ;; This function calls:
  1313 ;;		Nothing
  1314 ;; This function is called by:
  1315 ;;		_USBDeviceTasks
  1316 ;; This function uses a non-reentrant model
  1317 ;;
  1318                           
  1319                           	psect	text4
  1320   002AB4                     __ptext4:
  1321                           	callstack 0
  1322   002AB4                     _USBStallHandler:
  1323                           	callstack 28
  1324   002AB4                     
  1325                           ;../source/usb/usb_device.c: 2177:     if(UEP0bits.EPSTALL == 1)
  1326   002AB4  A070               	btfss	112,0,c	;volatile
  1327   002AB6  EF5F  F015         	goto	u1121
  1328   002ABA  EF61  F015         	goto	u1120
  1329   002ABE                     u1121:
  1330   002ABE  EF88  F015         	goto	l388
  1331   002AC2                     u1120:
  1332   002AC2                     
  1333                           ;../source/usb/usb_device.c: 2178:     {;../source/usb/usb_device.c: 2180:         if((p
      +                          BDTEntryEP0OutCurrent->STAT.Val == 0x80) && (pBDTEntryIn[0]->STAT.Val == (0x80|0x04)))
  1334   002AC2  C025  FFD9         	movff	_pBDTEntryEP0OutCurrent,fsr2l
  1335   002AC6  C026  FFDA         	movff	_pBDTEntryEP0OutCurrent+1,fsr2h
  1336   002ACA  0E80               	movlw	128
  1337   002ACC  18DE               	xorwf	postinc2,w,c
  1338   002ACE  A4D8               	btfss	status,2,c
  1339   002AD0  EF6C  F015         	goto	u1131
  1340   002AD4  EF6E  F015         	goto	u1130
  1341   002AD8                     u1131:
  1342   002AD8  EF87  F015         	goto	l2285
  1343   002ADC                     u1130:
  1344   002ADC  C013  FFD9         	movff	_pBDTEntryIn,fsr2l
  1345   002AE0  C014  FFDA         	movff	_pBDTEntryIn+1,fsr2h
  1346   002AE4  0E84               	movlw	132
  1347   002AE6  18DE               	xorwf	postinc2,w,c
  1348   002AE8  A4D8               	btfss	status,2,c
  1349   002AEA  EF79  F015         	goto	u1141
  1350   002AEE  EF7B  F015         	goto	u1140
  1351   002AF2                     u1141:
  1352   002AF2  EF87  F015         	goto	l2285
  1353   002AF6                     u1140:
  1354   002AF6                     
  1355                           ;../source/usb/usb_device.c: 2181:         {;../source/usb/usb_device.c: 2183:          
      +                             pBDTEntryEP0OutCurrent->STAT.Val = 0x00|(0x08 & 0x08)|0x04;
  1356   002AF6  C025  FFD9         	movff	_pBDTEntryEP0OutCurrent,fsr2l
  1357   002AFA  C026  FFDA         	movff	_pBDTEntryEP0OutCurrent+1,fsr2h
  1358   002AFE  0E0C               	movlw	12
  1359   002B00  6EDF               	movwf	indf2,c
  1360   002B02                     
  1361                           ;../source/usb/usb_device.c: 2184:             pBDTEntryEP0OutCurrent->STAT.Val |= 0x80;
  1362   002B02  C025  FFD9         	movff	_pBDTEntryEP0OutCurrent,fsr2l
  1363   002B06  C026  FFDA         	movff	_pBDTEntryEP0OutCurrent+1,fsr2h
  1364   002B0A  0E00               	movlw	0
  1365   002B0C  8EDB               	bsf	plusw2,7,c
  1366   002B0E                     l2285:
  1367                           
  1368                           ;../source/usb/usb_device.c: 2186:         UEP0bits.EPSTALL = 0;
  1369   002B0E  9070               	bcf	112,0,c	;volatile
  1370   002B10                     l388:
  1371                           
  1372                           ;../source/usb/usb_device.c: 2189:     (UIR &= 0xDF);
  1373   002B10  9A68               	bcf	104,5,c	;volatile
  1374   002B12  0012               	return		;funcret
  1375   002B14                     __end_of_USBStallHandler:
  1376                           	callstack 0
  1377                           
  1378 ;; *************** function _USBIncrement1msInternalTimers *****************
  1379 ;; Defined at:
  1380 ;;		line 2954 in file "../source/usb/usb_device.c"
  1381 ;; Parameters:    Size  Location     Type
  1382 ;;		None
  1383 ;; Auto vars:     Size  Location     Type
  1384 ;;		None
  1385 ;; Return value:  Size  Location     Type
  1386 ;;                  1    wreg      void 
  1387 ;; Registers used:
  1388 ;;		wreg, status,2, status,0
  1389 ;; Tracked objects:
  1390 ;;		On entry : 0/0
  1391 ;;		On exit  : 0/0
  1392 ;;		Unchanged: 0/0
  1393 ;; Data sizes:     COMRAM   BANK0   BANK1   BANK2   BANK3   BANK4   BANK5   BANK6   BANK7
  1394 ;;      Params:         0       0       0       0       0       0       0       0       0
  1395 ;;      Locals:         0       0       0       0       0       0       0       0       0
  1396 ;;      Temps:          0       0       0       0       0       0       0       0       0
  1397 ;;      Totals:         0       0       0       0       0       0       0       0       0
  1398 ;;Total ram usage:        0 bytes
  1399 ;; Hardware stack levels used: 1
  1400 ;; Hardware stack levels required when called: 1
  1401 ;; This function calls:
  1402 ;;		Nothing
  1403 ;; This function is called by:
  1404 ;;		_USBDeviceTasks
  1405 ;; This function uses a non-reentrant model
  1406 ;;
  1407                           
  1408                           	psect	text5
  1409   002C2E                     __ptext5:
  1410                           	callstack 0
  1411   002C2E                     _USBIncrement1msInternalTimers:
  1412                           	callstack 28
  1413   002C2E                     
  1414                           ;../source/usb/usb_device.c: 2962:     USB1msTickCount++;
  1415   002C2E  0E01               	movlw	1
  1416   002C30  260F               	addwf	_USB1msTickCount^0,f,c
  1417   002C32  0E00               	movlw	0
  1418   002C34  2210               	addwfc	(_USB1msTickCount+1)^0,f,c
  1419   002C36  2211               	addwfc	(_USB1msTickCount+2)^0,f,c
  1420   002C38  2212               	addwfc	(_USB1msTickCount+3)^0,f,c
  1421   002C3A                     
  1422                           ;../source/usb/usb_device.c: 2963:     if(USBBusIsSuspended == 0)
  1423   002C3A  5030               	movf	_USBBusIsSuspended^0,w,c
  1424   002C3C  A4D8               	btfss	status,2,c
  1425   002C3E  EF23  F016         	goto	u1101
  1426   002C42  EF25  F016         	goto	u1100
  1427   002C46                     u1101:
  1428   002C46  EF2F  F016         	goto	l480
  1429   002C4A                     u1100:
  1430   002C4A                     
  1431                           ;../source/usb/usb_device.c: 2964:     {;../source/usb/usb_device.c: 2965:         USBTi
      +                          cksSinceSuspendEnd++;
  1432   002C4A  2A27               	incf	_USBTicksSinceSuspendEnd^0,f,c
  1433   002C4C                     
  1434                           ;../source/usb/usb_device.c: 2967:         if(USBTicksSinceSuspendEnd == 0)
  1435   002C4C  5027               	movf	_USBTicksSinceSuspendEnd^0,w,c
  1436   002C4E  A4D8               	btfss	status,2,c
  1437   002C50  EF2C  F016         	goto	u1111
  1438   002C54  EF2E  F016         	goto	u1110
  1439   002C58                     u1111:
  1440   002C58  EF2F  F016         	goto	l480
  1441   002C5C                     u1110:
  1442   002C5C                     
  1443                           ;../source/usb/usb_device.c: 2968:         {;../source/usb/usb_device.c: 2969:          
      +                             USBTicksSinceSuspendEnd = 255;
  1444   002C5C  6827               	setf	_USBTicksSinceSuspendEnd^0,c
  1445   002C5E                     l480:
  1446   002C5E  0012               	return		;funcret
  1447   002C60                     __end_of_USBIncrement1msInternalTimers:
  1448                           	callstack 0
  1449                           
  1450 ;; *************** function _USBDeviceInit *****************
  1451 ;; Defined at:
  1452 ;;		line 237 in file "../source/usb/usb_device.c"
  1453 ;; Parameters:    Size  Location     Type
  1454 ;;		None
  1455 ;; Auto vars:     Size  Location     Type
  1456 ;;  i               1   12[COMRAM] unsigned char 
  1457 ;; Return value:  Size  Location     Type
  1458 ;;                  1    wreg      void 
  1459 ;; Registers used:
  1460 ;;		wreg, fsr2l, fsr2h, status,2, status,0, prodl, prodh, cstack
  1461 ;; Tracked objects:
  1462 ;;		On entry : 0/0
  1463 ;;		On exit  : 0/0
  1464 ;;		Unchanged: 0/0
  1465 ;; Data sizes:     COMRAM   BANK0   BANK1   BANK2   BANK3   BANK4   BANK5   BANK6   BANK7
  1466 ;;      Params:         0       0       0       0       0       0       0       0       0
  1467 ;;      Locals:         1       0       0       0       0       0       0       0       0
  1468 ;;      Temps:          0       0       0       0       0       0       0       0       0
  1469 ;;      Totals:         1       0       0       0       0       0       0       0       0
  1470 ;;Total ram usage:        1 bytes
  1471 ;; Hardware stack levels used: 1
  1472 ;; Hardware stack levels required when called: 2
  1473 ;; This function calls:
  1474 ;;		_memset
  1475 ;; This function is called by:
  1476 ;;		_USBDeviceTasks
  1477 ;;		_main
  1478 ;; This function uses a non-reentrant model
  1479 ;;
  1480                           
  1481                           	psect	text6
  1482   0017AE                     __ptext6:
  1483                           	callstack 0
  1484   0017AE                     _USBDeviceInit:
  1485                           	callstack 27
  1486   0017AE                     
  1487                           ;../source/usb/usb_device.c: 239:     uint8_t i;;../source/usb/usb_device.c: 241:     {P
      +                          IE2bits.USBIE = 0;};
  1488   0017AE  9AA0               	bcf	160,5,c	;volatile
  1489   0017B0                     
  1490                           ;../source/usb/usb_device.c: 248:     {UEIR = 0;};
  1491   0017B0  0E00               	movlw	0
  1492   0017B2  6E6A               	movwf	106,c	;volatile
  1493                           
  1494                           ;../source/usb/usb_device.c: 251:     {UIR = 0;};
  1495   0017B4  0E00               	movlw	0
  1496   0017B6  6E68               	movwf	104,c	;volatile
  1497                           
  1498                           ;../source/usb/usb_device.c: 254:     UEP0 = 0;
  1499   0017B8  0E00               	movlw	0
  1500   0017BA  6E70               	movwf	112,c	;volatile
  1501   0017BC                     
  1502                           ;../source/usb/usb_device.c: 256:     memset((void*)&UEP1,0x00,(1));;
  1503   0017BC  0E71               	movlw	113
  1504   0017BE  6E3A               	movwf	memset@dest^0,c
  1505   0017C0  0E0F               	movlw	15
  1506   0017C2  6E3B               	movwf	(memset@dest+1)^0,c
  1507   0017C4  0E00               	movlw	0
  1508   0017C6  6E3D               	movwf	(memset@c+1)^0,c
  1509   0017C8  0E00               	movlw	0
  1510   0017CA  6E3C               	movwf	memset@c^0,c
  1511   0017CC  0E00               	movlw	0
  1512   0017CE  6E3F               	movwf	(memset@n+1)^0,c
  1513   0017D0  0E01               	movlw	1
  1514   0017D2  6E3E               	movwf	memset@n^0,c
  1515   0017D4  ECC4  F009         	call	_memset	;wreg free
  1516   0017D8                     
  1517                           ;../source/usb/usb_device.c: 258:     { UCFG = 0x10 | 0x00 | 0x04 | 0x02; UEIE = 0x9F; U
      +                          IE = 0x39 | 0x40 | 0x02; };
  1518   0017D8  0E16               	movlw	22
  1519   0017DA  6E6F               	movwf	111,c	;volatile
  1520   0017DC  0E9F               	movlw	159
  1521   0017DE  6E6B               	movwf	107,c	;volatile
  1522   0017E0  0E7B               	movlw	123
  1523   0017E2  6E69               	movwf	105,c	;volatile
  1524   0017E4                     
  1525                           ;../source/usb/usb_device.c: 267:     for(i = 0; i < (sizeof(BDT)/sizeof(BDT_ENTRY)); i+
      +                          +)
  1526   0017E4  0E00               	movlw	0
  1527   0017E6  6E46               	movwf	USBDeviceInit@i^0,c
  1528   0017E8                     l3207:
  1529                           
  1530                           ;../source/usb/usb_device.c: 268:     {;../source/usb/usb_device.c: 269:         BDT[i].
      +                          Val = 0x00;
  1531   0017E8  5046               	movf	USBDeviceInit@i^0,w,c
  1532   0017EA  0D04               	mullw	4
  1533   0017EC  0E00               	movlw	0
  1534   0017EE  24F3               	addwf	243,w,c
  1535   0017F0  6ED9               	movwf	fsr2l,c
  1536   0017F2  0E04               	movlw	4
  1537   0017F4  20F4               	addwfc	prodh,w,c
  1538   0017F6  6EDA               	movwf	fsr2h,c
  1539   0017F8  6ADE               	clrf	postinc2,c
  1540   0017FA  6ADE               	clrf	postinc2,c
  1541   0017FC  6ADE               	clrf	postinc2,c
  1542   0017FE  6ADD               	clrf	postdec2,c
  1543   001800                     
  1544                           ;../source/usb/usb_device.c: 270:     }
  1545   001800  2A46               	incf	USBDeviceInit@i^0,f,c
  1546   001802  0E07               	movlw	7
  1547   001804  6446               	cpfsgt	USBDeviceInit@i^0,c
  1548   001806  EF07  F00C         	goto	u2391
  1549   00180A  EF09  F00C         	goto	u2390
  1550   00180E                     u2391:
  1551   00180E  EFF4  F00B         	goto	l3207
  1552   001812                     u2390:
  1553   001812                     
  1554                           ;../source/usb/usb_device.c: 273:     UCONbits.PPBRST = 1;
  1555   001812  8C6D               	bsf	109,6,c	;volatile
  1556   001814                     
  1557                           ;../source/usb/usb_device.c: 276:     UADDR = 0x00;
  1558   001814  0E00               	movlw	0
  1559   001816  6E6E               	movwf	110,c	;volatile
  1560   001818                     
  1561                           ;../source/usb/usb_device.c: 279:     UCONbits.PKTDIS = 0;
  1562   001818  986D               	bcf	109,4,c	;volatile
  1563   00181A                     
  1564                           ;../source/usb/usb_device.c: 282:     UCONbits.PPBRST = 0;
  1565   00181A  9C6D               	bcf	109,6,c	;volatile
  1566   00181C                     l3219:
  1567                           
  1568                           ;../source/usb/usb_device.c: 286:     {;../source/usb/usb_device.c: 287:         (UIR &=
      +                           0xF7);
  1569   00181C  9668               	bcf	104,3,c	;volatile
  1570   00181E                     
  1571                           ;../source/usb/usb_device.c: 289:         inPipes[0].info.Val = 0;
  1572   00181E  0E00               	movlw	0
  1573   001820  6E0C               	movwf	(_inPipes+3)^0,c
  1574   001822                     
  1575                           ;../source/usb/usb_device.c: 290:         outPipes[0].info.Val = 0;
  1576   001822  0E00               	movlw	0
  1577   001824  6E04               	movwf	(_outPipes+3)^0,c
  1578   001826                     
  1579                           ;../source/usb/usb_device.c: 291:         outPipes[0].wCount.Val = 0;
  1580   001826  0E00               	movlw	0
  1581   001828  6E06               	movwf	(_outPipes+5)^0,c
  1582   00182A  0E00               	movlw	0
  1583   00182C  6E05               	movwf	(_outPipes+4)^0,c
  1584   00182E                     
  1585                           ;../source/usb/usb_device.c: 292:     }while(UIRbits.TRNIF == 1);
  1586   00182E  B668               	btfsc	104,3,c	;volatile
  1587   001830  EF1C  F00C         	goto	u2401
  1588   001834  EF1E  F00C         	goto	u2400
  1589   001838                     u2401:
  1590   001838  EF0E  F00C         	goto	l3219
  1591   00183C                     u2400:
  1592   00183C                     
  1593                           ;../source/usb/usb_device.c: 296:     USBStatusStageEnabledFlag1 = 1;
  1594   00183C  0E01               	movlw	1
  1595   00183E  6E2B               	movwf	_USBStatusStageEnabledFlag1^0,c	;volatile
  1596                           
  1597                           ;../source/usb/usb_device.c: 297:     USBStatusStageEnabledFlag2 = 1;
  1598   001840  0E01               	movlw	1
  1599   001842  6E2A               	movwf	_USBStatusStageEnabledFlag2^0,c	;volatile
  1600                           
  1601                           ;../source/usb/usb_device.c: 299:     USBDeferINDataStagePackets = 0;
  1602   001844  0E00               	movlw	0
  1603   001846  6E29               	movwf	_USBDeferINDataStagePackets^0,c	;volatile
  1604                           
  1605                           ;../source/usb/usb_device.c: 300:     USBDeferOUTDataStagePackets = 0;
  1606   001848  0E00               	movlw	0
  1607   00184A  6E28               	movwf	_USBDeferOUTDataStagePackets^0,c	;volatile
  1608                           
  1609                           ;../source/usb/usb_device.c: 301:     USBBusIsSuspended = 0;
  1610   00184C  0E00               	movlw	0
  1611   00184E  6E30               	movwf	_USBBusIsSuspended^0,c
  1612                           
  1613                           ;../source/usb/usb_device.c: 305:     for(i = 0; i < (uint8_t)(1 +1u); i++)
  1614   001850  0E00               	movlw	0
  1615   001852  6E46               	movwf	USBDeviceInit@i^0,c
  1616   001854                     l3235:
  1617                           
  1618                           ;../source/usb/usb_device.c: 306:     {;../source/usb/usb_device.c: 307:         pBDTEnt
      +                          ryIn[i] = 0u;
  1619   001854  5046               	movf	USBDeviceInit@i^0,w,c
  1620   001856  0D02               	mullw	2
  1621   001858  0E13               	movlw	low _pBDTEntryIn
  1622   00185A  24F3               	addwf	243,w,c
  1623   00185C  6ED9               	movwf	fsr2l,c
  1624   00185E  0E00               	movlw	high _pBDTEntryIn
  1625   001860  20F4               	addwfc	prodh,w,c
  1626   001862  6EDA               	movwf	fsr2h,c
  1627   001864  0E00               	movlw	0
  1628   001866  6EDE               	movwf	postinc2,c
  1629   001868  0E00               	movlw	0
  1630   00186A  6EDD               	movwf	postdec2,c
  1631                           
  1632                           ;../source/usb/usb_device.c: 308:         pBDTEntryOut[i] = 0u;
  1633   00186C  5046               	movf	USBDeviceInit@i^0,w,c
  1634   00186E  0D02               	mullw	2
  1635   001870  0E17               	movlw	low _pBDTEntryOut
  1636   001872  24F3               	addwf	243,w,c
  1637   001874  6ED9               	movwf	fsr2l,c
  1638   001876  0E00               	movlw	high _pBDTEntryOut
  1639   001878  20F4               	addwfc	prodh,w,c
  1640   00187A  6EDA               	movwf	fsr2h,c
  1641   00187C  0E00               	movlw	0
  1642   00187E  6EDE               	movwf	postinc2,c
  1643   001880  0E00               	movlw	0
  1644   001882  6EDD               	movwf	postdec2,c
  1645   001884                     
  1646                           ;../source/usb/usb_device.c: 309:         ep_data_in[i].Val = 0u;
  1647   001884  0E1F               	movlw	low _ep_data_in
  1648   001886  2446               	addwf	USBDeviceInit@i^0,w,c
  1649   001888  6ED9               	movwf	fsr2l,c
  1650   00188A  6ADA               	clrf	fsr2h,c
  1651   00188C  0E00               	movlw	high _ep_data_in
  1652   00188E  22DA               	addwfc	fsr2h,f,c
  1653   001890  0E00               	movlw	0
  1654   001892  6EDF               	movwf	indf2,c
  1655   001894                     
  1656                           ;../source/usb/usb_device.c: 310:         ep_data_out[i].Val = 0u;
  1657   001894  0E1D               	movlw	low _ep_data_out
  1658   001896  2446               	addwf	USBDeviceInit@i^0,w,c
  1659   001898  6ED9               	movwf	fsr2l,c
  1660   00189A  6ADA               	clrf	fsr2h,c
  1661   00189C  0E00               	movlw	high _ep_data_out
  1662   00189E  22DA               	addwfc	fsr2h,f,c
  1663   0018A0  0E00               	movlw	0
  1664   0018A2  6EDF               	movwf	indf2,c
  1665   0018A4                     
  1666                           ;../source/usb/usb_device.c: 311:     }
  1667   0018A4  2A46               	incf	USBDeviceInit@i^0,f,c
  1668   0018A6  0E01               	movlw	1
  1669   0018A8  6446               	cpfsgt	USBDeviceInit@i^0,c
  1670   0018AA  EF59  F00C         	goto	u2411
  1671   0018AE  EF5B  F00C         	goto	u2410
  1672   0018B2                     u2411:
  1673   0018B2  EF2A  F00C         	goto	l3235
  1674   0018B6                     u2410:
  1675   0018B6                     
  1676                           ;../source/usb/usb_device.c: 314:     pBDTEntryIn[0] = (volatile BDT_ENTRY*)&BDT[2];
  1677   0018B6  0E08               	movlw	8
  1678   0018B8  6E13               	movwf	_pBDTEntryIn^0,c
  1679   0018BA  0E04               	movlw	4
  1680   0018BC  6E14               	movwf	(_pBDTEntryIn+1)^0,c
  1681   0018BE                     
  1682                           ;../source/usb/usb_device.c: 316:     UEP0 = 0x06|0x10;
  1683   0018BE  0E16               	movlw	22
  1684   0018C0  6E70               	movwf	112,c	;volatile
  1685   0018C2                     
  1686                           ;../source/usb/usb_device.c: 318:     BDT[0].ADR = ((uint16_t)(&SetupPkt));
  1687   0018C2  0E04               	movlw	4
  1688   0018C4  0104               	movlb	4	; () banked
  1689   0018C6  6F03               	movwf	3,b	;volatile
  1690   0018C8  0E20               	movlw	32
  1691   0018CA  6F02               	movwf	2,b	;volatile
  1692   0018CC                     
  1693                           ; BSR set to: 4
  1694                           ;../source/usb/usb_device.c: 319:     BDT[0].CNT = 8;
  1695   0018CC  0E08               	movlw	8
  1696   0018CE  6F01               	movwf	1,b	;volatile
  1697   0018D0                     
  1698                           ; BSR set to: 4
  1699                           ;../source/usb/usb_device.c: 320:     BDT[0].STAT.Val = 0x00|0x04;
  1700   0018D0  0E04               	movlw	4
  1701   0018D2  6F00               	movwf	0,b	;volatile
  1702   0018D4                     
  1703                           ; BSR set to: 4
  1704                           ;../source/usb/usb_device.c: 321:     BDT[0].STAT.Val |= 0x80;
  1705   0018D4  8F00               	bsf	0,7,b	;volatile
  1706   0018D6                     
  1707                           ; BSR set to: 4
  1708                           ;../source/usb/usb_device.c: 324:     USBActiveConfiguration = 0;
  1709   0018D6  0E00               	movlw	0
  1710   0018D8  6E39               	movwf	_USBActiveConfiguration^0,c
  1711   0018DA                     
  1712                           ; BSR set to: 4
  1713                           ;../source/usb/usb_device.c: 326:     USB1msTickCount = 0;
  1714   0018DA  0E00               	movlw	0
  1715   0018DC  6E0F               	movwf	_USB1msTickCount^0,c
  1716   0018DE  0E00               	movlw	0
  1717   0018E0  6E10               	movwf	(_USB1msTickCount+1)^0,c
  1718   0018E2  0E00               	movlw	0
  1719   0018E4  6E11               	movwf	(_USB1msTickCount+2)^0,c
  1720   0018E6  0E00               	movlw	0
  1721   0018E8  6E12               	movwf	(_USB1msTickCount+3)^0,c
  1722   0018EA                     
  1723                           ; BSR set to: 4
  1724                           ;../source/usb/usb_device.c: 327:     USBTicksSinceSuspendEnd = 0;
  1725   0018EA  0E00               	movlw	0
  1726   0018EC  6E27               	movwf	_USBTicksSinceSuspendEnd^0,c
  1727   0018EE                     
  1728                           ; BSR set to: 4
  1729                           ;../source/usb/usb_device.c: 330:     USBDeviceState = DETACHED_STATE;
  1730   0018EE  0E00               	movlw	0
  1731   0018F0  6E34               	movwf	_USBDeviceState^0,c
  1732   0018F2                     
  1733                           ; BSR set to: 4
  1734   0018F2  0012               	return		;funcret
  1735   0018F4                     __end_of_USBDeviceInit:
  1736                           	callstack 0
  1737                           
  1738 ;; *************** function _USBCtrlEPService *****************
  1739 ;; Defined at:
  1740 ;;		line 2335 in file "../source/usb/usb_device.c"
  1741 ;; Parameters:    Size  Location     Type
  1742 ;;		None
  1743 ;; Auto vars:     Size  Location     Type
  1744 ;;		None
  1745 ;; Return value:  Size  Location     Type
  1746 ;;                  1    wreg      void 
  1747 ;; Registers used:
  1748 ;;		wreg, fsr1l, fsr1h, fsr2l, fsr2h, status,2, status,0, tblptrl, tblptrh, tblptru, prodl, prodh, cstack
  1749 ;; Tracked objects:
  1750 ;;		On entry : 0/0
  1751 ;;		On exit  : 0/0
  1752 ;;		Unchanged: 0/0
  1753 ;; Data sizes:     COMRAM   BANK0   BANK1   BANK2   BANK3   BANK4   BANK5   BANK6   BANK7
  1754 ;;      Params:         0       0       0       0       0       0       0       0       0
  1755 ;;      Locals:         0       0       0       0       0       0       0       0       0
  1756 ;;      Temps:          1       0       0       0       0       0       0       0       0
  1757 ;;      Totals:         1       0       0       0       0       0       0       0       0
  1758 ;;Total ram usage:        1 bytes
  1759 ;; Hardware stack levels used: 1
  1760 ;; Hardware stack levels required when called: 8
  1761 ;; This function calls:
  1762 ;;		_USBCtrlTrfInHandler
  1763 ;;		_USBCtrlTrfOutHandler
  1764 ;;		_USBCtrlTrfSetupHandler
  1765 ;;		_memcpy
  1766 ;; This function is called by:
  1767 ;;		_USBDeviceTasks
  1768 ;; This function uses a non-reentrant model
  1769 ;;
  1770                           
  1771                           	psect	text7
  1772   0024D2                     __ptext7:
  1773                           	callstack 0
  1774   0024D2                     _USBCtrlEPService:
  1775                           	callstack 21
  1776   0024D2                     
  1777                           ;../source/usb/usb_device.c: 2341:         USBStatusStageTimeoutCounter = (uint8_t)45;
  1778   0024D2  0E2D               	movlw	45
  1779   0024D4  6E2D               	movwf	_USBStatusStageTimeoutCounter^0,c
  1780   0024D6                     
  1781                           ;../source/usb/usb_device.c: 2345:     if((USTATcopy.Val & ~0x02) == 0x00)
  1782   0024D6  C037  F059         	movff	_USTATcopy,??_USBCtrlEPService
  1783   0024DA  0EFD               	movlw	253
  1784   0024DC  1659               	andwf	??_USBCtrlEPService^0,f,c
  1785   0024DE  A4D8               	btfss	status,2,c
  1786   0024E0  EF74  F012         	goto	u2431
  1787   0024E4  EF76  F012         	goto	u2430
  1788   0024E8                     u2431:
  1789   0024E8  EFB8  F012         	goto	l3309
  1790   0024EC                     u2430:
  1791   0024EC                     
  1792                           ;../source/usb/usb_device.c: 2346:     {;../source/usb/usb_device.c: 2349:             p
      +                          BDTEntryEP0OutCurrent = (volatile BDT_ENTRY*)&BDT[(USTATcopy.Val & 0x7E)>>1];
  1793   0024EC  C037  F059         	movff	_USTATcopy,??_USBCtrlEPService
  1794   0024F0  90D8               	bcf	status,0,c
  1795   0024F2  3259               	rrcf	??_USBCtrlEPService^0,f,c
  1796   0024F4  0E3F               	movlw	63
  1797   0024F6  1659               	andwf	??_USBCtrlEPService^0,f,c
  1798   0024F8  5059               	movf	??_USBCtrlEPService^0,w,c
  1799   0024FA  0D04               	mullw	4
  1800   0024FC  0E00               	movlw	0
  1801   0024FE  24F3               	addwf	243,w,c
  1802   002500  6E25               	movwf	_pBDTEntryEP0OutCurrent^0,c
  1803   002502  0E04               	movlw	4
  1804   002504  20F4               	addwfc	prodh,w,c
  1805   002506  6E26               	movwf	(_pBDTEntryEP0OutCurrent+1)^0,c
  1806   002508                     
  1807                           ;../source/usb/usb_device.c: 2357:         pBDTEntryEP0OutNext = pBDTEntryEP0OutCurrent;
  1808   002508  C025  F023         	movff	_pBDTEntryEP0OutCurrent,_pBDTEntryEP0OutNext
  1809   00250C  C026  F024         	movff	_pBDTEntryEP0OutCurrent+1,_pBDTEntryEP0OutNext+1
  1810   002510                     
  1811                           ;../source/usb/usb_device.c: 2359:         pBDTEntryEP0OutNext = (volatile BDT_ENTRY*)((
      +                          (uint16_t)pBDTEntryEP0OutNext) ^ 0x0004);
  1812   002510  0E04               	movlw	4
  1813   002512  1823               	xorwf	_pBDTEntryEP0OutNext^0,w,c
  1814   002514  6E23               	movwf	_pBDTEntryEP0OutNext^0,c
  1815   002516  5024               	movf	(_pBDTEntryEP0OutNext+1)^0,w,c
  1816   002518  6E24               	movwf	(_pBDTEntryEP0OutNext+1)^0,c
  1817   00251A                     
  1818                           ;../source/usb/usb_device.c: 2362:         if(pBDTEntryEP0OutCurrent->STAT.PID == 0xD)
  1819   00251A  C025  FFD9         	movff	_pBDTEntryEP0OutCurrent,fsr2l
  1820   00251E  C026  FFDA         	movff	_pBDTEntryEP0OutCurrent+1,fsr2h
  1821   002522  30DF               	rrcf	223,w,c
  1822   002524  32E8               	rrcf	wreg,f,c
  1823   002526  0B0F               	andlw	15
  1824   002528  0A0D               	xorlw	13
  1825   00252A  A4D8               	btfss	status,2,c
  1826   00252C  EF9A  F012         	goto	u2441
  1827   002530  EF9C  F012         	goto	u2440
  1828   002534                     u2441:
  1829   002534  EFB4  F012         	goto	l3307
  1830   002538                     u2440:
  1831   002538                     
  1832                           ;../source/usb/usb_device.c: 2363:         {;../source/usb/usb_device.c: 2368:          
      +                             memcpy((uint8_t*)&SetupPkt, (uint8_t*)((void *)(pBDTEntryEP0OutCurrent->ADR)), 8);
  1833   002538  0E20               	movlw	32
  1834   00253A  6E3A               	movwf	memcpy@d1^0,c
  1835   00253C  0E04               	movlw	4
  1836   00253E  6E3B               	movwf	(memcpy@d1+1)^0,c
  1837   002540  EE20 F002          	lfsr	2,2
  1838   002544  5025               	movf	_pBDTEntryEP0OutCurrent^0,w,c
  1839   002546  26D9               	addwf	fsr2l,f,c
  1840   002548  5026               	movf	(_pBDTEntryEP0OutCurrent+1)^0,w,c
  1841   00254A  22DA               	addwfc	fsr2h,f,c
  1842   00254C  CFDE F03C          	movff	postinc2,memcpy@s1
  1843   002550  CFDD F03D          	movff	postdec2,memcpy@s1+1
  1844   002554  0E00               	movlw	0
  1845   002556  6E3F               	movwf	(memcpy@n+1)^0,c
  1846   002558  0E08               	movlw	8
  1847   00255A  6E3E               	movwf	memcpy@n^0,c
  1848   00255C  EC8A  F015         	call	_memcpy	;wreg free
  1849   002560                     
  1850                           ;../source/usb/usb_device.c: 2371:             USBCtrlTrfSetupHandler();
  1851   002560  EC58  F014         	call	_USBCtrlTrfSetupHandler	;wreg free
  1852                           
  1853                           ;../source/usb/usb_device.c: 2372:         }
  1854   002564  EFC4  F012         	goto	l407
  1855   002568                     l3307:
  1856                           
  1857                           ;../source/usb/usb_device.c: 2374:         {;../source/usb/usb_device.c: 2376:          
      +                             USBCtrlTrfOutHandler();
  1858   002568  EC20  F015         	call	_USBCtrlTrfOutHandler	;wreg free
  1859   00256C  EFC4  F012         	goto	l407
  1860   002570                     l3309:
  1861   002570  5037               	movf	_USTATcopy^0,w,c
  1862   002572  0BFD               	andlw	253
  1863   002574  0A04               	xorlw	4
  1864   002576  A4D8               	btfss	status,2,c
  1865   002578  EFC0  F012         	goto	u2451
  1866   00257C  EFC2  F012         	goto	u2450
  1867   002580                     u2451:
  1868   002580  EFC4  F012         	goto	l407
  1869   002584                     u2450:
  1870   002584                     
  1871                           ;../source/usb/usb_device.c: 2380:     {;../source/usb/usb_device.c: 2383:         USBCt
      +                          rlTrfInHandler();
  1872   002584  EC8A  F010         	call	_USBCtrlTrfInHandler	;wreg free
  1873   002588                     l407:
  1874   002588  0012               	return		;funcret
  1875   00258A                     __end_of_USBCtrlEPService:
  1876                           	callstack 0
  1877                           
  1878 ;; *************** function _memcpy *****************
  1879 ;; Defined at:
  1880 ;;		line 4 in file "C:\Program Files\Microchip\xc8\v2.40\pic\sources\c99\common\memcpy.c"
  1881 ;; Parameters:    Size  Location     Type
  1882 ;;  d1              2    0[COMRAM] PTR void 
  1883 ;;		 -> SetupPkt(8), 
  1884 ;;  s1              2    2[COMRAM] PTR const void 
  1885 ;;		 -> CtrlTrfData(8), RAM(2047), SetupPkt(8), 
  1886 ;;  n               2    4[COMRAM] unsigned int 
  1887 ;; Auto vars:     Size  Location     Type
  1888 ;;  s               2    8[COMRAM] PTR const unsigned char 
  1889 ;;		 -> CtrlTrfData(8), RAM(2047), SetupPkt(8), 
  1890 ;;  d               2    6[COMRAM] PTR unsigned char 
  1891 ;;		 -> SetupPkt(8), 
  1892 ;;  tmp             1   10[COMRAM] unsigned char 
  1893 ;; Return value:  Size  Location     Type
  1894 ;;                  2    0[COMRAM] PTR void 
  1895 ;; Registers used:
  1896 ;;		wreg, fsr2l, fsr2h, status,2, status,0
  1897 ;; Tracked objects:
  1898 ;;		On entry : 0/0
  1899 ;;		On exit  : 0/0
  1900 ;;		Unchanged: 0/0
  1901 ;; Data sizes:     COMRAM   BANK0   BANK1   BANK2   BANK3   BANK4   BANK5   BANK6   BANK7
  1902 ;;      Params:         6       0       0       0       0       0       0       0       0
  1903 ;;      Locals:         5       0       0       0       0       0       0       0       0
  1904 ;;      Temps:          0       0       0       0       0       0       0       0       0
  1905 ;;      Totals:        11       0       0       0       0       0       0       0       0
  1906 ;;Total ram usage:       11 bytes
  1907 ;; Hardware stack levels used: 1
  1908 ;; Hardware stack levels required when called: 1
  1909 ;; This function calls:
  1910 ;;		Nothing
  1911 ;; This function is called by:
  1912 ;;		_USBCtrlEPService
  1913 ;; This function uses a non-reentrant model
  1914 ;;
  1915                           
  1916                           	psect	text8
  1917   002B14                     __ptext8:
  1918                           	callstack 0
  1919   002B14                     _memcpy:
  1920                           	callstack 27
  1921   002B14  C03C  F042         	movff	memcpy@s1,memcpy@s
  1922   002B18  C03D  F043         	movff	memcpy@s1+1,memcpy@s+1
  1923   002B1C  C03A  F040         	movff	memcpy@d1,memcpy@d
  1924   002B20  C03B  F041         	movff	memcpy@d1+1,memcpy@d+1
  1925   002B24  EFA4  F015         	goto	l3105
  1926   002B28                     l3097:
  1927   002B28  C042  FFD9         	movff	memcpy@s,fsr2l
  1928   002B2C  C043  FFDA         	movff	memcpy@s+1,fsr2h
  1929   002B30  50DF               	movf	indf2,w,c
  1930   002B32  6E44               	movwf	memcpy@tmp^0,c
  1931   002B34  4A42               	infsnz	memcpy@s^0,f,c
  1932   002B36  2A43               	incf	(memcpy@s+1)^0,f,c
  1933   002B38  C040  FFD9         	movff	memcpy@d,fsr2l
  1934   002B3C  C041  FFDA         	movff	memcpy@d+1,fsr2h
  1935   002B40  C044  FFDF         	movff	memcpy@tmp,indf2
  1936   002B44  4A40               	infsnz	memcpy@d^0,f,c
  1937   002B46  2A41               	incf	(memcpy@d+1)^0,f,c
  1938   002B48                     l3105:
  1939   002B48  063E               	decf	memcpy@n^0,f,c
  1940   002B4A  A0D8               	btfss	status,0,c
  1941   002B4C  063F               	decf	(memcpy@n+1)^0,f,c
  1942   002B4E  283E               	incf	memcpy@n^0,w,c
  1943   002B50  E106               	bnz	u2281
  1944   002B52  283F               	incf	(memcpy@n+1)^0,w,c
  1945   002B54  A4D8               	btfss	status,2,c
  1946   002B56  EFAF  F015         	goto	u2281
  1947   002B5A  EFB1  F015         	goto	u2280
  1948   002B5E                     u2281:
  1949   002B5E  EF94  F015         	goto	l3097
  1950   002B62                     u2280:
  1951   002B62  0012               	return		;funcret
  1952   002B64                     __end_of_memcpy:
  1953                           	callstack 0
  1954                           
  1955 ;; *************** function _USBCtrlTrfSetupHandler *****************
  1956 ;; Defined at:
  1957 ;;		line 2428 in file "../source/usb/usb_device.c"
  1958 ;; Parameters:    Size  Location     Type
  1959 ;;		None
  1960 ;; Auto vars:     Size  Location     Type
  1961 ;;		None
  1962 ;; Return value:  Size  Location     Type
  1963 ;;                  1    wreg      void 
  1964 ;; Registers used:
  1965 ;;		wreg, fsr1l, fsr1h, fsr2l, fsr2h, status,2, status,0, tblptrl, tblptrh, tblptru, prodl, prodh, cstack
  1966 ;; Tracked objects:
  1967 ;;		On entry : 0/0
  1968 ;;		On exit  : 0/0
  1969 ;;		Unchanged: 0/0
  1970 ;; Data sizes:     COMRAM   BANK0   BANK1   BANK2   BANK3   BANK4   BANK5   BANK6   BANK7
  1971 ;;      Params:         0       0       0       0       0       0       0       0       0
  1972 ;;      Locals:         0       0       0       0       0       0       0       0       0
  1973 ;;      Temps:          0       0       0       0       0       0       0       0       0
  1974 ;;      Totals:         0       0       0       0       0       0       0       0       0
  1975 ;;Total ram usage:        0 bytes
  1976 ;; Hardware stack levels used: 1
  1977 ;; Hardware stack levels required when called: 7
  1978 ;; This function calls:
  1979 ;;		_USBCheckStdRequest
  1980 ;;		_USBCtrlEPServiceComplete
  1981 ;;		_USER_USB_CALLBACK_EVENT_HANDLER
  1982 ;; This function is called by:
  1983 ;;		_USBCtrlEPService
  1984 ;; This function uses a non-reentrant model
  1985 ;;
  1986                           
  1987                           	psect	text9
  1988   0028B0                     __ptext9:
  1989                           	callstack 0
  1990   0028B0                     _USBCtrlTrfSetupHandler:
  1991                           	callstack 21
  1992   0028B0                     
  1993                           ;../source/usb/usb_device.c: 2433:     shortPacketStatus = 0;
  1994   0028B0  0E00               	movlw	0
  1995   0028B2  6E33               	movwf	_shortPacketStatus^0,c
  1996                           
  1997                           ;../source/usb/usb_device.c: 2434:     USBDeferStatusStagePacket = 0;
  1998   0028B4  0E00               	movlw	0
  1999   0028B6  6E2C               	movwf	_USBDeferStatusStagePacket^0,c	;volatile
  2000                           
  2001                           ;../source/usb/usb_device.c: 2435:     USBDeferINDataStagePackets = 0;
  2002   0028B8  0E00               	movlw	0
  2003   0028BA  6E29               	movwf	_USBDeferINDataStagePackets^0,c	;volatile
  2004                           
  2005                           ;../source/usb/usb_device.c: 2436:     USBDeferOUTDataStagePackets = 0;
  2006   0028BC  0E00               	movlw	0
  2007   0028BE  6E28               	movwf	_USBDeferOUTDataStagePackets^0,c	;volatile
  2008                           
  2009                           ;../source/usb/usb_device.c: 2437:     BothEP0OutUOWNsSet = 0;
  2010   0028C0  0E00               	movlw	0
  2011   0028C2  6E2E               	movwf	_BothEP0OutUOWNsSet^0,c
  2012                           
  2013                           ;../source/usb/usb_device.c: 2438:     controlTransferState = 0;
  2014   0028C4  0E00               	movlw	0
  2015   0028C6  6E32               	movwf	_controlTransferState^0,c
  2016   0028C8                     
  2017                           ;../source/usb/usb_device.c: 2447:     pBDTEntryIn[0]->STAT.Val &= ~(0x80);
  2018   0028C8  C013  FFD9         	movff	_pBDTEntryIn,fsr2l
  2019   0028CC  C014  FFDA         	movff	_pBDTEntryIn+1,fsr2h
  2020   0028D0  0E7F               	movlw	127
  2021   0028D2  16DF               	andwf	indf2,f,c
  2022   0028D4                     
  2023                           ;../source/usb/usb_device.c: 2449:     pBDTEntryIn[0] = (volatile BDT_ENTRY*)(((uint16_t
      +                          )pBDTEntryIn[0]) ^ 0x0004);
  2024   0028D4  0E04               	movlw	4
  2025   0028D6  1813               	xorwf	_pBDTEntryIn^0,w,c
  2026   0028D8  6E13               	movwf	_pBDTEntryIn^0,c
  2027   0028DA  5014               	movf	(_pBDTEntryIn+1)^0,w,c
  2028   0028DC  6E14               	movwf	(_pBDTEntryIn+1)^0,c
  2029   0028DE                     
  2030                           ;../source/usb/usb_device.c: 2450:     pBDTEntryIn[0]->STAT.Val &= ~(0x80);
  2031   0028DE  C013  FFD9         	movff	_pBDTEntryIn,fsr2l
  2032   0028E2  C014  FFDA         	movff	_pBDTEntryIn+1,fsr2h
  2033   0028E6  0E7F               	movlw	127
  2034   0028E8  16DF               	andwf	indf2,f,c
  2035   0028EA                     
  2036                           ;../source/usb/usb_device.c: 2451:     pBDTEntryIn[0] = (volatile BDT_ENTRY*)(((uint16_t
      +                          )pBDTEntryIn[0]) ^ 0x0004);
  2037   0028EA  0E04               	movlw	4
  2038   0028EC  1813               	xorwf	_pBDTEntryIn^0,w,c
  2039   0028EE  6E13               	movwf	_pBDTEntryIn^0,c
  2040   0028F0  5014               	movf	(_pBDTEntryIn+1)^0,w,c
  2041   0028F2  6E14               	movwf	(_pBDTEntryIn+1)^0,c
  2042   0028F4                     
  2043                           ;../source/usb/usb_device.c: 2452:     pBDTEntryEP0OutNext->STAT.Val &= ~(0x80);
  2044   0028F4  C023  FFD9         	movff	_pBDTEntryEP0OutNext,fsr2l
  2045   0028F8  C024  FFDA         	movff	_pBDTEntryEP0OutNext+1,fsr2h
  2046   0028FC  0E7F               	movlw	127
  2047   0028FE  16DF               	andwf	indf2,f,c
  2048   002900                     
  2049                           ;../source/usb/usb_device.c: 2454:     inPipes[0].info.Val = 0;
  2050   002900  0E00               	movlw	0
  2051   002902  6E0C               	movwf	(_inPipes+3)^0,c
  2052   002904                     
  2053                           ;../source/usb/usb_device.c: 2455:     inPipes[0].wCount.Val = 0;
  2054   002904  0E00               	movlw	0
  2055   002906  6E0E               	movwf	(_inPipes+5)^0,c
  2056   002908  0E00               	movlw	0
  2057   00290A  6E0D               	movwf	(_inPipes+4)^0,c
  2058   00290C                     
  2059                           ;../source/usb/usb_device.c: 2456:     outPipes[0].info.Val = 0;
  2060   00290C  0E00               	movlw	0
  2061   00290E  6E04               	movwf	(_outPipes+3)^0,c
  2062   002910                     
  2063                           ;../source/usb/usb_device.c: 2457:     outPipes[0].wCount.Val = 0;
  2064   002910  0E00               	movlw	0
  2065   002912  6E06               	movwf	(_outPipes+5)^0,c
  2066   002914  0E00               	movlw	0
  2067   002916  6E05               	movwf	(_outPipes+4)^0,c
  2068   002918                     
  2069                           ;../source/usb/usb_device.c: 2463:     USBCheckStdRequest();
  2070   002918  EC7B  F00F         	call	_USBCheckStdRequest	;wreg free
  2071   00291C                     
  2072                           ;../source/usb/usb_device.c: 2464:     USER_USB_CALLBACK_EVENT_HANDLER((USB_EVENT)EVENT_
      +                          EP0_REQUEST,0,0);
  2073   00291C  0E00               	movlw	0
  2074   00291E  6E49               	movwf	(USER_USB_CALLBACK_EVENT_HANDLER@event+1)^0,c
  2075   002920  0E03               	movlw	3
  2076   002922  6E48               	movwf	USER_USB_CALLBACK_EVENT_HANDLER@event^0,c
  2077   002924  0E00               	movlw	0
  2078   002926  6E4A               	movwf	USER_USB_CALLBACK_EVENT_HANDLER@pdata^0,c
  2079   002928  0E00               	movlw	0
  2080   00292A  6E4B               	movwf	(USER_USB_CALLBACK_EVENT_HANDLER@pdata+1)^0,c
  2081   00292C  0E00               	movlw	0
  2082   00292E  6E4D               	movwf	(USER_USB_CALLBACK_EVENT_HANDLER@size+1)^0,c
  2083   002930  0E00               	movlw	0
  2084   002932  6E4C               	movwf	USER_USB_CALLBACK_EVENT_HANDLER@size^0,c
  2085   002934  EC73  F013         	call	_USER_USB_CALLBACK_EVENT_HANDLER	;wreg free
  2086   002938                     
  2087                           ;../source/usb/usb_device.c: 2477:     USBCtrlEPServiceComplete();
  2088   002938  EC1B  F00D         	call	_USBCtrlEPServiceComplete	;wreg free
  2089   00293C  0012               	return		;funcret
  2090   00293E                     __end_of_USBCtrlTrfSetupHandler:
  2091                           	callstack 0
  2092                           
  2093 ;; *************** function _USBCtrlEPServiceComplete *****************
  2094 ;; Defined at:
  2095 ;;		line 1576 in file "../source/usb/usb_device.c"
  2096 ;; Parameters:    Size  Location     Type
  2097 ;;		None
  2098 ;; Auto vars:     Size  Location     Type
  2099 ;;		None
  2100 ;; Return value:  Size  Location     Type
  2101 ;;                  1    wreg      void 
  2102 ;; Registers used:
  2103 ;;		wreg, fsr1l, fsr1h, fsr2l, fsr2h, status,2, status,0, tblptrl, tblptrh, tblptru, cstack
  2104 ;; Tracked objects:
  2105 ;;		On entry : 0/0
  2106 ;;		On exit  : 0/0
  2107 ;;		Unchanged: 0/0
  2108 ;; Data sizes:     COMRAM   BANK0   BANK1   BANK2   BANK3   BANK4   BANK5   BANK6   BANK7
  2109 ;;      Params:         0       0       0       0       0       0       0       0       0
  2110 ;;      Locals:         0       0       0       0       0       0       0       0       0
  2111 ;;      Temps:          0       0       0       0       0       0       0       0       0
  2112 ;;      Totals:         0       0       0       0       0       0       0       0       0
  2113 ;;Total ram usage:        0 bytes
  2114 ;; Hardware stack levels used: 1
  2115 ;; Hardware stack levels required when called: 3
  2116 ;; This function calls:
  2117 ;;		_USBCtrlEPAllowDataStage
  2118 ;;		_USBCtrlEPAllowStatusStage
  2119 ;; This function is called by:
  2120 ;;		_USBCtrlTrfSetupHandler
  2121 ;; This function uses a non-reentrant model
  2122 ;;
  2123                           
  2124                           	psect	text10
  2125   001A36                     __ptext10:
  2126                           	callstack 0
  2127   001A36                     _USBCtrlEPServiceComplete:
  2128                           	callstack 24
  2129   001A36                     
  2130                           ;../source/usb/usb_device.c: 1582:     UCONbits.PKTDIS = 0;
  2131   001A36  986D               	bcf	109,4,c	;volatile
  2132                           
  2133                           ;../source/usb/usb_device.c: 1588:     if(inPipes[0].info.bits.busy == 0)
  2134   001A38  BE0C               	btfsc	(_inPipes+3)^0,7,c
  2135   001A3A  EF21  F00D         	goto	u611
  2136   001A3E  EF23  F00D         	goto	u610
  2137   001A42                     u611:
  2138   001A42  EF68  F00D         	goto	l311
  2139   001A46                     u610:
  2140   001A46                     
  2141                           ;../source/usb/usb_device.c: 1589:     {;../source/usb/usb_device.c: 1590:         if(ou
      +                          tPipes[0].info.bits.busy == 1)
  2142   001A46  AE04               	btfss	(_outPipes+3)^0,7,c
  2143   001A48  EF28  F00D         	goto	u621
  2144   001A4C  EF2A  F00D         	goto	u620
  2145   001A50                     u621:
  2146   001A50  EF3C  F00D         	goto	l1847
  2147   001A54                     u620:
  2148   001A54                     
  2149                           ;../source/usb/usb_device.c: 1591:         {;../source/usb/usb_device.c: 1592:          
      +                             controlTransferState = 2;
  2150   001A54  0E02               	movlw	2
  2151   001A56  6E32               	movwf	_controlTransferState^0,c
  2152                           
  2153                           ;../source/usb/usb_device.c: 1603:             if(USBDeferOUTDataStagePackets == 0)
  2154   001A58  5028               	movf	_USBDeferOUTDataStagePackets^0,w,c	;volatile
  2155   001A5A  A4D8               	btfss	status,2,c
  2156   001A5C  EF32  F00D         	goto	u631
  2157   001A60  EF34  F00D         	goto	u630
  2158   001A64                     u631:
  2159   001A64  EF36  F00D         	goto	l1843
  2160   001A68                     u630:
  2161   001A68                     
  2162                           ;../source/usb/usb_device.c: 1604:             {;../source/usb/usb_device.c: 1605:      
      +                                     USBCtrlEPAllowDataStage();
  2163   001A68  EC1D  F013         	call	_USBCtrlEPAllowDataStage	;wreg free
  2164   001A6C                     l1843:
  2165                           
  2166                           ;../source/usb/usb_device.c: 1610:             USBStatusStageEnabledFlag2 = 0;
  2167   001A6C  0E00               	movlw	0
  2168   001A6E  6E2A               	movwf	_USBStatusStageEnabledFlag2^0,c	;volatile
  2169   001A70                     
  2170                           ;../source/usb/usb_device.c: 1611:             USBStatusStageEnabledFlag1 = 0;
  2171   001A70  0E00               	movlw	0
  2172   001A72  6E2B               	movwf	_USBStatusStageEnabledFlag1^0,c	;volatile
  2173                           
  2174                           ;../source/usb/usb_device.c: 1612:         }
  2175   001A74  EFBA  F00D         	goto	l321
  2176   001A78                     l1847:
  2177                           
  2178                           ;../source/usb/usb_device.c: 1614:         {;../source/usb/usb_device.c: 1619:          
      +                             pBDTEntryEP0OutNext->CNT = 8;
  2179   001A78  EE20 F001          	lfsr	2,1
  2180   001A7C  5023               	movf	_pBDTEntryEP0OutNext^0,w,c
  2181   001A7E  26D9               	addwf	fsr2l,f,c
  2182   001A80  5024               	movf	(_pBDTEntryEP0OutNext+1)^0,w,c
  2183   001A82  22DA               	addwfc	fsr2h,f,c
  2184   001A84  0E08               	movlw	8
  2185   001A86  6EDF               	movwf	indf2,c
  2186                           
  2187                           ;../source/usb/usb_device.c: 1620:             pBDTEntryEP0OutNext->ADR = ((uint16_t)(&S
      +                          etupPkt));
  2188   001A88  EE20 F002          	lfsr	2,2
  2189   001A8C  5023               	movf	_pBDTEntryEP0OutNext^0,w,c
  2190   001A8E  26D9               	addwf	fsr2l,f,c
  2191   001A90  5024               	movf	(_pBDTEntryEP0OutNext+1)^0,w,c
  2192   001A92  22DA               	addwfc	fsr2h,f,c
  2193   001A94  0E20               	movlw	32
  2194   001A96  6EDE               	movwf	postinc2,c
  2195   001A98  0E04               	movlw	4
  2196   001A9A  6EDD               	movwf	postdec2,c
  2197   001A9C                     
  2198                           ;../source/usb/usb_device.c: 1621:             pBDTEntryEP0OutNext->STAT.Val = 0x00|(0x0
      +                          8 & 0x08)|0x04;
  2199   001A9C  C023  FFD9         	movff	_pBDTEntryEP0OutNext,fsr2l
  2200   001AA0  C024  FFDA         	movff	_pBDTEntryEP0OutNext+1,fsr2h
  2201   001AA4  0E0C               	movlw	12
  2202   001AA6  6EDF               	movwf	indf2,c
  2203   001AA8                     
  2204                           ;../source/usb/usb_device.c: 1622:             pBDTEntryEP0OutNext->STAT.Val |= 0x80;
  2205   001AA8  C023  FFD9         	movff	_pBDTEntryEP0OutNext,fsr2l
  2206   001AAC  C024  FFDA         	movff	_pBDTEntryEP0OutNext+1,fsr2h
  2207   001AB0  0E00               	movlw	0
  2208   001AB2  8EDB               	bsf	plusw2,7,c
  2209                           
  2210                           ;../source/usb/usb_device.c: 1623:             pBDTEntryIn[0]->STAT.Val = 0x04;
  2211   001AB4  C013  FFD9         	movff	_pBDTEntryIn,fsr2l
  2212   001AB8  C014  FFDA         	movff	_pBDTEntryIn+1,fsr2h
  2213   001ABC  0E04               	movlw	4
  2214   001ABE  6EDF               	movwf	indf2,c
  2215   001AC0                     
  2216                           ;../source/usb/usb_device.c: 1624:             pBDTEntryIn[0]->STAT.Val |= 0x80;
  2217   001AC0  C013  FFD9         	movff	_pBDTEntryIn,fsr2l
  2218   001AC4  C014  FFDA         	movff	_pBDTEntryIn+1,fsr2h
  2219   001AC8  0E00               	movlw	0
  2220   001ACA  8EDB               	bsf	plusw2,7,c
  2221   001ACC  EFBA  F00D         	goto	l321
  2222   001AD0                     l311:
  2223                           
  2224                           ;../source/usb/usb_device.c: 1628:     {;../source/usb/usb_device.c: 1629:   if(SetupPkt
      +                          .DataDir == (0x80>>7))
  2225   001AD0  0104               	movlb	4	; () banked
  2226   001AD2  AF20               	btfss	32,7,b	;volatile
  2227   001AD4  EF6E  F00D         	goto	u641
  2228   001AD8  EF70  F00D         	goto	u640
  2229   001ADC                     u641:
  2230   001ADC  EF8C  F00D         	goto	l1867
  2231   001AE0                     u640:
  2232   001AE0                     
  2233                           ; BSR set to: 4
  2234                           ;../source/usb/usb_device.c: 1630:   {;../source/usb/usb_device.c: 1631:    controlTrans
      +                          ferState = 1;
  2235   001AE0  0E01               	movlw	1
  2236   001AE2  6E32               	movwf	_controlTransferState^0,c
  2237                           
  2238                           ;../source/usb/usb_device.c: 1645:    if(USBDeferINDataStagePackets == 0)
  2239   001AE4  5029               	movf	_USBDeferINDataStagePackets^0,w,c	;volatile
  2240   001AE6  A4D8               	btfss	status,2,c
  2241   001AE8  EF78  F00D         	goto	u651
  2242   001AEC  EF7A  F00D         	goto	u650
  2243   001AF0                     u651:
  2244   001AF0  EF7C  F00D         	goto	l1859
  2245   001AF4                     u650:
  2246   001AF4                     
  2247                           ; BSR set to: 4
  2248                           ;../source/usb/usb_device.c: 1646:             {;../source/usb/usb_device.c: 1647:      
      +                                     USBCtrlEPAllowDataStage();
  2249   001AF4  EC1D  F013         	call	_USBCtrlEPAllowDataStage	;wreg free
  2250   001AF8                     l1859:
  2251                           
  2252                           ;../source/usb/usb_device.c: 1670:             USBStatusStageEnabledFlag2 = 0;
  2253   001AF8  0E00               	movlw	0
  2254   001AFA  6E2A               	movwf	_USBStatusStageEnabledFlag2^0,c	;volatile
  2255   001AFC                     
  2256                           ;../source/usb/usb_device.c: 1671:             USBStatusStageEnabledFlag1 = 0;
  2257   001AFC  0E00               	movlw	0
  2258   001AFE  6E2B               	movwf	_USBStatusStageEnabledFlag1^0,c	;volatile
  2259   001B00                     
  2260                           ;../source/usb/usb_device.c: 1672:             if(USBDeferStatusStagePacket == 0)
  2261   001B00  502C               	movf	_USBDeferStatusStagePacket^0,w,c	;volatile
  2262   001B02  A4D8               	btfss	status,2,c
  2263   001B04  EF86  F00D         	goto	u661
  2264   001B08  EF88  F00D         	goto	u660
  2265   001B0C                     u661:
  2266   001B0C  EFBA  F00D         	goto	l321
  2267   001B10                     u660:
  2268   001B10                     l1865:
  2269                           
  2270                           ;../source/usb/usb_device.c: 1673:             {;../source/usb/usb_device.c: 1674:      
      +                                     USBCtrlEPAllowStatusStage();
  2271   001B10  EC0C  F011         	call	_USBCtrlEPAllowStatusStage	;wreg free
  2272   001B14  EFBA  F00D         	goto	l321
  2273   001B18                     l1867:
  2274                           
  2275                           ; BSR set to: 4
  2276                           ;../source/usb/usb_device.c: 1678:   {;../source/usb/usb_device.c: 1689:    controlTrans
      +                          ferState = 2;
  2277   001B18  0E02               	movlw	2
  2278   001B1A  6E32               	movwf	_controlTransferState^0,c
  2279   001B1C                     
  2280                           ; BSR set to: 4
  2281                           ;../source/usb/usb_device.c: 1692:    pBDTEntryEP0OutNext->CNT = 8;
  2282   001B1C  EE20 F001          	lfsr	2,1
  2283   001B20  5023               	movf	_pBDTEntryEP0OutNext^0,w,c
  2284   001B22  26D9               	addwf	fsr2l,f,c
  2285   001B24  5024               	movf	(_pBDTEntryEP0OutNext+1)^0,w,c
  2286   001B26  22DA               	addwfc	fsr2h,f,c
  2287   001B28  0E08               	movlw	8
  2288   001B2A  6EDF               	movwf	indf2,c
  2289   001B2C                     
  2290                           ; BSR set to: 4
  2291                           ;../source/usb/usb_device.c: 1693:    pBDTEntryEP0OutNext->ADR = ((uint16_t)(&SetupPkt))
      +                          ;
  2292   001B2C  EE20 F002          	lfsr	2,2
  2293   001B30  5023               	movf	_pBDTEntryEP0OutNext^0,w,c
  2294   001B32  26D9               	addwf	fsr2l,f,c
  2295   001B34  5024               	movf	(_pBDTEntryEP0OutNext+1)^0,w,c
  2296   001B36  22DA               	addwfc	fsr2h,f,c
  2297   001B38  0E20               	movlw	32
  2298   001B3A  6EDE               	movwf	postinc2,c
  2299   001B3C  0E04               	movlw	4
  2300   001B3E  6EDD               	movwf	postdec2,c
  2301   001B40                     
  2302                           ; BSR set to: 4
  2303                           ;../source/usb/usb_device.c: 1694:    pBDTEntryEP0OutNext->STAT.Val = 0x04;
  2304   001B40  C023  FFD9         	movff	_pBDTEntryEP0OutNext,fsr2l
  2305   001B44  C024  FFDA         	movff	_pBDTEntryEP0OutNext+1,fsr2h
  2306   001B48  0E04               	movlw	4
  2307   001B4A  6EDF               	movwf	indf2,c
  2308   001B4C                     
  2309                           ; BSR set to: 4
  2310                           ;../source/usb/usb_device.c: 1695:             pBDTEntryEP0OutNext->STAT.Val |= 0x80;
  2311   001B4C  C023  FFD9         	movff	_pBDTEntryEP0OutNext,fsr2l
  2312   001B50  C024  FFDA         	movff	_pBDTEntryEP0OutNext+1,fsr2h
  2313   001B54  0E00               	movlw	0
  2314   001B56  8EDB               	bsf	plusw2,7,c
  2315   001B58                     
  2316                           ; BSR set to: 4
  2317                           ;../source/usb/usb_device.c: 1698:             USBStatusStageEnabledFlag2 = 0;
  2318   001B58  0E00               	movlw	0
  2319   001B5A  6E2A               	movwf	_USBStatusStageEnabledFlag2^0,c	;volatile
  2320   001B5C                     
  2321                           ; BSR set to: 4
  2322                           ;../source/usb/usb_device.c: 1699:             USBStatusStageEnabledFlag1 = 0;
  2323   001B5C  0E00               	movlw	0
  2324   001B5E  6E2B               	movwf	_USBStatusStageEnabledFlag1^0,c	;volatile
  2325   001B60                     
  2326                           ; BSR set to: 4
  2327                           ;../source/usb/usb_device.c: 1700:    if(USBDeferStatusStagePacket == 0)
  2328   001B60  502C               	movf	_USBDeferStatusStagePacket^0,w,c	;volatile
  2329   001B62  A4D8               	btfss	status,2,c
  2330   001B64  EFB6  F00D         	goto	u671
  2331   001B68  EFB8  F00D         	goto	u670
  2332   001B6C                     u671:
  2333   001B6C  EFBA  F00D         	goto	l321
  2334   001B70                     u670:
  2335   001B70  EF88  F00D         	goto	l1865
  2336   001B74                     l321:
  2337   001B74  0012               	return		;funcret
  2338   001B76                     __end_of_USBCtrlEPServiceComplete:
  2339                           	callstack 0
  2340                           
  2341 ;; *************** function _USBCtrlEPAllowDataStage *****************
  2342 ;; Defined at:
  2343 ;;		line 1448 in file "../source/usb/usb_device.c"
  2344 ;; Parameters:    Size  Location     Type
  2345 ;;		None
  2346 ;; Auto vars:     Size  Location     Type
  2347 ;;		None
  2348 ;; Return value:  Size  Location     Type
  2349 ;;                  1    wreg      void 
  2350 ;; Registers used:
  2351 ;;		wreg, fsr1l, fsr1h, fsr2l, fsr2h, status,2, status,0, tblptrl, tblptrh, tblptru, cstack
  2352 ;; Tracked objects:
  2353 ;;		On entry : 0/0
  2354 ;;		On exit  : 0/0
  2355 ;;		Unchanged: 0/0
  2356 ;; Data sizes:     COMRAM   BANK0   BANK1   BANK2   BANK3   BANK4   BANK5   BANK6   BANK7
  2357 ;;      Params:         0       0       0       0       0       0       0       0       0
  2358 ;;      Locals:         0       0       0       0       0       0       0       0       0
  2359 ;;      Temps:          0       0       0       0       0       0       0       0       0
  2360 ;;      Totals:         0       0       0       0       0       0       0       0       0
  2361 ;;Total ram usage:        0 bytes
  2362 ;; Hardware stack levels used: 1
  2363 ;; Hardware stack levels required when called: 2
  2364 ;; This function calls:
  2365 ;;		_USBCtrlTrfTxService
  2366 ;; This function is called by:
  2367 ;;		_USBCtrlEPServiceComplete
  2368 ;; This function uses a non-reentrant model
  2369 ;;
  2370                           
  2371                           	psect	text11
  2372   00263A                     __ptext11:
  2373                           	callstack 0
  2374   00263A                     _USBCtrlEPAllowDataStage:
  2375                           	callstack 24
  2376   00263A                     
  2377                           ;../source/usb/usb_device.c: 1450:     USBDeferINDataStagePackets = 0;
  2378   00263A  0E00               	movlw	0
  2379   00263C  6E29               	movwf	_USBDeferINDataStagePackets^0,c	;volatile
  2380                           
  2381                           ;../source/usb/usb_device.c: 1451:     USBDeferOUTDataStagePackets = 0;
  2382   00263E  0E00               	movlw	0
  2383   002640  6E28               	movwf	_USBDeferOUTDataStagePackets^0,c	;volatile
  2384   002642                     
  2385                           ;../source/usb/usb_device.c: 1453:     if(controlTransferState == 2)
  2386   002642  0E02               	movlw	2
  2387   002644  1832               	xorwf	_controlTransferState^0,w,c
  2388   002646  A4D8               	btfss	status,2,c
  2389   002648  EF28  F013         	goto	u271
  2390   00264C  EF2A  F013         	goto	u270
  2391   002650                     u271:
  2392   002650  EF4A  F013         	goto	l1625
  2393   002654                     u270:
  2394   002654                     
  2395                           ;../source/usb/usb_device.c: 1454:     {;../source/usb/usb_device.c: 1456:         pBDTE
      +                          ntryEP0OutNext->CNT = 8;
  2396   002654  EE20 F001          	lfsr	2,1
  2397   002658  5023               	movf	_pBDTEntryEP0OutNext^0,w,c
  2398   00265A  26D9               	addwf	fsr2l,f,c
  2399   00265C  5024               	movf	(_pBDTEntryEP0OutNext+1)^0,w,c
  2400   00265E  22DA               	addwfc	fsr2h,f,c
  2401   002660  0E08               	movlw	8
  2402   002662  6EDF               	movwf	indf2,c
  2403                           
  2404                           ;../source/usb/usb_device.c: 1457:         pBDTEntryEP0OutNext->ADR = ((uint16_t)(&CtrlT
      +                          rfData));
  2405   002664  EE20 F002          	lfsr	2,2
  2406   002668  5023               	movf	_pBDTEntryEP0OutNext^0,w,c
  2407   00266A  26D9               	addwf	fsr2l,f,c
  2408   00266C  5024               	movf	(_pBDTEntryEP0OutNext+1)^0,w,c
  2409   00266E  22DA               	addwfc	fsr2h,f,c
  2410   002670  0E28               	movlw	40
  2411   002672  6EDE               	movwf	postinc2,c
  2412   002674  0E04               	movlw	4
  2413   002676  6EDD               	movwf	postdec2,c
  2414   002678                     
  2415                           ;../source/usb/usb_device.c: 1458:         pBDTEntryEP0OutNext->STAT.Val = 0x40|(0x08 & 
      +                          0x08);
  2416   002678  C023  FFD9         	movff	_pBDTEntryEP0OutNext,fsr2l
  2417   00267C  C024  FFDA         	movff	_pBDTEntryEP0OutNext+1,fsr2h
  2418   002680  0E48               	movlw	72
  2419   002682  6EDF               	movwf	indf2,c
  2420   002684                     
  2421                           ;../source/usb/usb_device.c: 1459:         pBDTEntryEP0OutNext->STAT.Val |= 0x80;
  2422   002684  C023  FFD9         	movff	_pBDTEntryEP0OutNext,fsr2l
  2423   002688  C024  FFDA         	movff	_pBDTEntryEP0OutNext+1,fsr2h
  2424   00268C  0E00               	movlw	0
  2425   00268E  8EDB               	bsf	plusw2,7,c
  2426                           
  2427                           ;../source/usb/usb_device.c: 1460:     }
  2428   002690  EF72  F013         	goto	l303
  2429   002694                     l1625:
  2430                           
  2431                           ;../source/usb/usb_device.c: 1462:     {;../source/usb/usb_device.c: 1465:   if(SetupPkt
      +                          .wLength < inPipes[0].wCount.Val)
  2432   002694  500D               	movf	(_inPipes+4)^0,w,c
  2433   002696  0104               	movlb	4	; () banked
  2434   002698  5D26               	subwf	38,w,b	;volatile
  2435   00269A  500E               	movf	(_inPipes+5)^0,w,c
  2436   00269C  5927               	subwfb	39,w,b	;volatile
  2437   00269E  B0D8               	btfsc	status,0,c
  2438   0026A0  EF54  F013         	goto	u281
  2439   0026A4  EF56  F013         	goto	u280
  2440   0026A8                     u281:
  2441   0026A8  EF5A  F013         	goto	l1629
  2442   0026AC                     u280:
  2443   0026AC                     
  2444                           ; BSR set to: 4
  2445                           ;../source/usb/usb_device.c: 1466:   {;../source/usb/usb_device.c: 1467:    inPipes[0].w
      +                          Count.Val = SetupPkt.wLength;
  2446   0026AC  C426 F00D          	movff	1062,_inPipes+4	;volatile
  2447   0026B0  C427 F00E          	movff	1063,_inPipes+5	;volatile
  2448   0026B4                     l1629:
  2449                           
  2450                           ; BSR set to: 4
  2451                           ;../source/usb/usb_device.c: 1469:   USBCtrlTrfTxService();
  2452   0026B4  EC05  F010         	call	_USBCtrlTrfTxService	;wreg free
  2453   0026B8                     
  2454                           ;../source/usb/usb_device.c: 1474:   pBDTEntryIn[0]->ADR = ((uint16_t)(&CtrlTrfData));
  2455   0026B8  EE20 F002          	lfsr	2,2
  2456   0026BC  5013               	movf	_pBDTEntryIn^0,w,c
  2457   0026BE  26D9               	addwf	fsr2l,f,c
  2458   0026C0  5014               	movf	(_pBDTEntryIn+1)^0,w,c
  2459   0026C2  22DA               	addwfc	fsr2h,f,c
  2460   0026C4  0E28               	movlw	40
  2461   0026C6  6EDE               	movwf	postinc2,c
  2462   0026C8  0E04               	movlw	4
  2463   0026CA  6EDD               	movwf	postdec2,c
  2464   0026CC                     
  2465                           ;../source/usb/usb_device.c: 1475:   pBDTEntryIn[0]->STAT.Val = 0x40|(0x08 & 0x08);
  2466   0026CC  C013  FFD9         	movff	_pBDTEntryIn,fsr2l
  2467   0026D0  C014  FFDA         	movff	_pBDTEntryIn+1,fsr2h
  2468   0026D4  0E48               	movlw	72
  2469   0026D6  6EDF               	movwf	indf2,c
  2470   0026D8                     
  2471                           ;../source/usb/usb_device.c: 1476:         pBDTEntryIn[0]->STAT.Val |= 0x80;
  2472   0026D8  C013  FFD9         	movff	_pBDTEntryIn,fsr2l
  2473   0026DC  C014  FFDA         	movff	_pBDTEntryIn+1,fsr2h
  2474   0026E0  0E00               	movlw	0
  2475   0026E2  8EDB               	bsf	plusw2,7,c
  2476   0026E4                     l303:
  2477   0026E4  0012               	return		;funcret
  2478   0026E6                     __end_of_USBCtrlEPAllowDataStage:
  2479                           	callstack 0
  2480                           
  2481 ;; *************** function _USBCheckStdRequest *****************
  2482 ;; Defined at:
  2483 ;;		line 2649 in file "../source/usb/usb_device.c"
  2484 ;; Parameters:    Size  Location     Type
  2485 ;;		None
  2486 ;; Auto vars:     Size  Location     Type
  2487 ;;		None
  2488 ;; Return value:  Size  Location     Type
  2489 ;;                  1    wreg      void 
  2490 ;; Registers used:
  2491 ;;		wreg, fsr1l, fsr1h, fsr2l, fsr2h, status,2, status,0, tblptrl, tblptrh, tblptru, prodl, prodh, cstack
  2492 ;; Tracked objects:
  2493 ;;		On entry : 0/0
  2494 ;;		On exit  : 0/0
  2495 ;;		Unchanged: 0/0
  2496 ;; Data sizes:     COMRAM   BANK0   BANK1   BANK2   BANK3   BANK4   BANK5   BANK6   BANK7
  2497 ;;      Params:         0       0       0       0       0       0       0       0       0
  2498 ;;      Locals:         0       0       0       0       0       0       0       0       0
  2499 ;;      Temps:          2       0       0       0       0       0       0       0       0
  2500 ;;      Totals:         2       0       0       0       0       0       0       0       0
  2501 ;;Total ram usage:        2 bytes
  2502 ;; Hardware stack levels used: 1
  2503 ;; Hardware stack levels required when called: 6
  2504 ;; This function calls:
  2505 ;;		_USBStdFeatureReqHandler
  2506 ;;		_USBStdGetDscHandler
  2507 ;;		_USBStdGetStatusHandler
  2508 ;;		_USBStdSetCfgHandler
  2509 ;;		_USER_USB_CALLBACK_EVENT_HANDLER
  2510 ;; This function is called by:
  2511 ;;		_USBCtrlTrfSetupHandler
  2512 ;; This function uses a non-reentrant model
  2513 ;;
  2514                           
  2515                           	psect	text12
  2516   001EF6                     __ptext12:
  2517                           	callstack 0
  2518   001EF6                     _USBCheckStdRequest:
  2519                           	callstack 21
  2520   001EF6                     
  2521                           ;../source/usb/usb_device.c: 2651:     if(SetupPkt.RequestType != (0x00>>5)) return;
  2522   001EF6  0104               	movlb	4	; () banked
  2523   001EF8  3920               	swapf	32,w,b	;volatile
  2524   001EFA  32E8               	rrcf	wreg,f,c
  2525   001EFC  0B03               	andlw	3
  2526   001EFE  0900               	iorlw	0
  2527   001F00  B4D8               	btfsc	status,2,c
  2528   001F02  EF85  F00F         	goto	u2261
  2529   001F06  EF87  F00F         	goto	u2260
  2530   001F0A                     u2261:
  2531   001F0A  EFCB  F00F         	goto	l3063
  2532   001F0E                     u2260:
  2533   001F0E  EF04  F010         	goto	l435
  2534   001F12                     l437:
  2535                           
  2536                           ; BSR set to: 4
  2537                           ;../source/usb/usb_device.c: 2656:             inPipes[0].info.bits.busy = 1;
  2538   001F12  8E0C               	bsf	(_inPipes+3)^0,7,c
  2539   001F14                     
  2540                           ; BSR set to: 4
  2541                           ;../source/usb/usb_device.c: 2657:             USBDeviceState = ADR_PENDING_STATE;
  2542   001F14  0E08               	movlw	8
  2543   001F16  6E34               	movwf	_USBDeviceState^0,c
  2544                           
  2545                           ;../source/usb/usb_device.c: 2659:             break;
  2546   001F18  EF04  F010         	goto	l435
  2547   001F1C                     l3033:
  2548                           
  2549                           ; BSR set to: 4
  2550                           ;../source/usb/usb_device.c: 2661:             USBStdGetDscHandler();
  2551   001F1C  EC2F  F00B         	call	_USBStdGetDscHandler	;wreg free
  2552                           
  2553                           ;../source/usb/usb_device.c: 2662:             break;
  2554   001F20  EF04  F010         	goto	l435
  2555   001F24                     l3035:
  2556                           
  2557                           ; BSR set to: 4
  2558                           ;../source/usb/usb_device.c: 2664:             USBStdSetCfgHandler();
  2559   001F24  EC84  F011         	call	_USBStdSetCfgHandler	;wreg free
  2560                           
  2561                           ;../source/usb/usb_device.c: 2665:             break;
  2562   001F28  EF04  F010         	goto	l435
  2563   001F2C                     l3037:
  2564                           
  2565                           ; BSR set to: 4
  2566                           ;../source/usb/usb_device.c: 2667:             inPipes[0].pSrc.bRam = (uint8_t*)&USBActi
      +                          veConfiguration;
  2567   001F2C  0E39               	movlw	low _USBActiveConfiguration
  2568   001F2E  6E09               	movwf	_inPipes^0,c
  2569   001F30  0E00               	movlw	high _USBActiveConfiguration
  2570   001F32  6E0A               	movwf	(_inPipes+1)^0,c
  2571   001F34                     l3039:
  2572                           
  2573                           ; BSR set to: 4
  2574                           ;../source/usb/usb_device.c: 2668:             inPipes[0].info.bits.ctrl_trf_mem = 0x01;
  2575   001F34  800C               	bsf	(_inPipes+3)^0,0,c
  2576   001F36                     
  2577                           ; BSR set to: 4
  2578                           ;../source/usb/usb_device.c: 2669:             inPipes[0].wCount.v[0] = 1;
  2579   001F36  0E01               	movlw	1
  2580   001F38  6E0D               	movwf	(_inPipes+4)^0,c
  2581   001F3A                     
  2582                           ; BSR set to: 4
  2583                           ;../source/usb/usb_device.c: 2670:             inPipes[0].info.bits.busy = 1;
  2584   001F3A  8E0C               	bsf	(_inPipes+3)^0,7,c
  2585                           
  2586                           ;../source/usb/usb_device.c: 2671:             break;
  2587   001F3C  EF04  F010         	goto	l435
  2588   001F40                     l3045:
  2589                           
  2590                           ; BSR set to: 4
  2591                           ;../source/usb/usb_device.c: 2673:             USBStdGetStatusHandler();
  2592   001F40  ECF0  F00E         	call	_USBStdGetStatusHandler	;wreg free
  2593                           
  2594                           ;../source/usb/usb_device.c: 2674:             break;
  2595   001F44  EF04  F010         	goto	l435
  2596   001F48                     l3047:
  2597                           
  2598                           ; BSR set to: 4
  2599                           ;../source/usb/usb_device.c: 2677:             USBStdFeatureReqHandler();
  2600   001F48  ECED  F006         	call	_USBStdFeatureReqHandler	;wreg free
  2601                           
  2602                           ;../source/usb/usb_device.c: 2678:             break;
  2603   001F4C  EF04  F010         	goto	l435
  2604   001F50                     l3049:
  2605                           
  2606                           ; BSR set to: 4
  2607                           ;../source/usb/usb_device.c: 2680:             inPipes[0].pSrc.bRam = (uint8_t*)&USBAlte
      +                          rnateInterface[SetupPkt.bIntfID];
  2608   001F50  0E38               	movlw	low _USBAlternateInterface
  2609   001F52  2524               	addwf	36,w,b	;volatile
  2610   001F54  6E09               	movwf	_inPipes^0,c
  2611   001F56  6A0A               	clrf	(_inPipes+1)^0,c
  2612   001F58  0E00               	movlw	high _USBAlternateInterface
  2613   001F5A  220A               	addwfc	(_inPipes+1)^0,f,c
  2614   001F5C  EF9A  F00F         	goto	l3039
  2615   001F60                     l446:
  2616                           
  2617                           ; BSR set to: 4
  2618                           ;../source/usb/usb_device.c: 2686:             inPipes[0].info.bits.busy = 1;
  2619   001F60  8E0C               	bsf	(_inPipes+3)^0,7,c
  2620   001F62                     
  2621                           ; BSR set to: 4
  2622                           ;../source/usb/usb_device.c: 2687:             USBAlternateInterface[SetupPkt.bIntfID] =
      +                           SetupPkt.bAltID;
  2623   001F62  0E38               	movlw	low _USBAlternateInterface
  2624   001F64  2524               	addwf	36,w,b	;volatile
  2625   001F66  6ED9               	movwf	fsr2l,c
  2626   001F68  6ADA               	clrf	fsr2h,c
  2627   001F6A  0E00               	movlw	high _USBAlternateInterface
  2628   001F6C  22DA               	addwfc	fsr2h,f,c
  2629   001F6E  C422 FFDF          	movff	1058,indf2	;volatile
  2630                           
  2631                           ;../source/usb/usb_device.c: 2688:             break;
  2632   001F72  EF04  F010         	goto	l435
  2633   001F76                     l3059:
  2634                           
  2635                           ; BSR set to: 4
  2636                           ;../source/usb/usb_device.c: 2690:             USER_USB_CALLBACK_EVENT_HANDLER((USB_EVEN
      +                          T)EVENT_SET_DESCRIPTOR,0,0);
  2637   001F76  0E00               	movlw	0
  2638   001F78  6E49               	movwf	(USER_USB_CALLBACK_EVENT_HANDLER@event+1)^0,c
  2639   001F7A  0E02               	movlw	2
  2640   001F7C  6E48               	movwf	USER_USB_CALLBACK_EVENT_HANDLER@event^0,c
  2641   001F7E  0E00               	movlw	0
  2642   001F80  6E4A               	movwf	USER_USB_CALLBACK_EVENT_HANDLER@pdata^0,c
  2643   001F82  0E00               	movlw	0
  2644   001F84  6E4B               	movwf	(USER_USB_CALLBACK_EVENT_HANDLER@pdata+1)^0,c
  2645   001F86  0E00               	movlw	0
  2646   001F88  6E4D               	movwf	(USER_USB_CALLBACK_EVENT_HANDLER@size+1)^0,c
  2647   001F8A  0E00               	movlw	0
  2648   001F8C  6E4C               	movwf	USER_USB_CALLBACK_EVENT_HANDLER@size^0,c
  2649   001F8E  EC73  F013         	call	_USER_USB_CALLBACK_EVENT_HANDLER	;wreg free
  2650                           
  2651                           ;../source/usb/usb_device.c: 2691:             break;
  2652   001F92  EF04  F010         	goto	l435
  2653   001F96                     l3063:
  2654                           
  2655                           ; BSR set to: 4
  2656   001F96  5121               	movf	33,w,b	;volatile
  2657   001F98  6E57               	movwf	??_USBCheckStdRequest^0,c
  2658   001F9A  6A58               	clrf	(??_USBCheckStdRequest+1)^0,c
  2659                           
  2660                           ; Switch on 2 bytes has been partitioned into a top level switch of size 1, and 1 sub-sw
      +                          itches
  2661                           ; Switch size 1, requested type "simple"
  2662                           ; Number of cases is 1, Range of values is 0 to 0
  2663                           ; switch strategies available:
  2664                           ; Name         Instructions Cycles
  2665                           ; simple_byte            4     3 (average)
  2666                           ;	Chosen strategy is simple_byte
  2667   001F9C  5058               	movf	(??_USBCheckStdRequest+1)^0,w,c
  2668   001F9E  0A00               	xorlw	0	; case 0
  2669   001FA0  B4D8               	btfsc	status,2,c
  2670   001FA2  EFD5  F00F         	goto	l3795
  2671   001FA6  EF04  F010         	goto	l435
  2672   001FAA                     l3795:
  2673                           
  2674                           ; BSR set to: 4
  2675                           ; Switch size 1, requested type "simple"
  2676                           ; Number of cases is 11, Range of values is 0 to 12
  2677                           ; switch strategies available:
  2678                           ; Name         Instructions Cycles
  2679                           ; simple_byte           34    18 (average)
  2680                           ;	Chosen strategy is simple_byte
  2681   001FAA  5057               	movf	??_USBCheckStdRequest^0,w,c
  2682   001FAC  0A00               	xorlw	0	; case 0
  2683   001FAE  B4D8               	btfsc	status,2,c
  2684   001FB0  EFA0  F00F         	goto	l3045
  2685   001FB4  0A01               	xorlw	1	; case 1
  2686   001FB6  B4D8               	btfsc	status,2,c
  2687   001FB8  EFA4  F00F         	goto	l3047
  2688   001FBC  0A02               	xorlw	2	; case 3
  2689   001FBE  B4D8               	btfsc	status,2,c
  2690   001FC0  EFA4  F00F         	goto	l3047
  2691   001FC4  0A06               	xorlw	6	; case 5
  2692   001FC6  B4D8               	btfsc	status,2,c
  2693   001FC8  EF89  F00F         	goto	l437
  2694   001FCC  0A03               	xorlw	3	; case 6
  2695   001FCE  B4D8               	btfsc	status,2,c
  2696   001FD0  EF8E  F00F         	goto	l3033
  2697   001FD4  0A01               	xorlw	1	; case 7
  2698   001FD6  B4D8               	btfsc	status,2,c
  2699   001FD8  EFBB  F00F         	goto	l3059
  2700   001FDC  0A0F               	xorlw	15	; case 8
  2701   001FDE  B4D8               	btfsc	status,2,c
  2702   001FE0  EF96  F00F         	goto	l3037
  2703   001FE4  0A01               	xorlw	1	; case 9
  2704   001FE6  B4D8               	btfsc	status,2,c
  2705   001FE8  EF92  F00F         	goto	l3035
  2706   001FEC  0A03               	xorlw	3	; case 10
  2707   001FEE  B4D8               	btfsc	status,2,c
  2708   001FF0  EFA8  F00F         	goto	l3049
  2709   001FF4  0A01               	xorlw	1	; case 11
  2710   001FF6  B4D8               	btfsc	status,2,c
  2711   001FF8  EFB0  F00F         	goto	l446
  2712   001FFC  0A07               	xorlw	7	; case 12
  2713   001FFE  B4D8               	btfsc	status,2,c
  2714   002000  EF04  F010         	goto	l435
  2715   002004  EF04  F010         	goto	l435
  2716   002008                     l435:
  2717   002008  0012               	return		;funcret
  2718   00200A                     __end_of_USBCheckStdRequest:
  2719                           	callstack 0
  2720                           
  2721 ;; *************** function _USBStdSetCfgHandler *****************
  2722 ;; Defined at:
  2723 ;;		line 1928 in file "../source/usb/usb_device.c"
  2724 ;; Parameters:    Size  Location     Type
  2725 ;;		None
  2726 ;; Auto vars:     Size  Location     Type
  2727 ;;  i               1   22[COMRAM] unsigned char 
  2728 ;; Return value:  Size  Location     Type
  2729 ;;                  1    wreg      void 
  2730 ;; Registers used:
  2731 ;;		wreg, fsr2l, fsr2h, status,2, status,0, prodl, prodh, cstack
  2732 ;; Tracked objects:
  2733 ;;		On entry : 0/0
  2734 ;;		On exit  : 0/0
  2735 ;;		Unchanged: 0/0
  2736 ;; Data sizes:     COMRAM   BANK0   BANK1   BANK2   BANK3   BANK4   BANK5   BANK6   BANK7
  2737 ;;      Params:         0       0       0       0       0       0       0       0       0
  2738 ;;      Locals:         1       0       0       0       0       0       0       0       0
  2739 ;;      Temps:          0       0       0       0       0       0       0       0       0
  2740 ;;      Totals:         1       0       0       0       0       0       0       0       0
  2741 ;;Total ram usage:        1 bytes
  2742 ;; Hardware stack levels used: 1
  2743 ;; Hardware stack levels required when called: 5
  2744 ;; This function calls:
  2745 ;;		_USER_USB_CALLBACK_EVENT_HANDLER
  2746 ;;		_memset
  2747 ;; This function is called by:
  2748 ;;		_USBCheckStdRequest
  2749 ;; This function uses a non-reentrant model
  2750 ;;
  2751                           
  2752                           	psect	text13
  2753   002308                     __ptext13:
  2754                           	callstack 0
  2755   002308                     _USBStdSetCfgHandler:
  2756                           	callstack 21
  2757   002308                     
  2758                           ;../source/usb/usb_device.c: 1930:     uint8_t i;;../source/usb/usb_device.c: 1933:     
      +                          inPipes[0].info.bits.busy = 1;
  2759   002308  8E0C               	bsf	(_inPipes+3)^0,7,c
  2760   00230A                     
  2761                           ;../source/usb/usb_device.c: 1936:     memset((void*)&UEP1,0x00,(1));;
  2762   00230A  0E71               	movlw	113
  2763   00230C  6E3A               	movwf	memset@dest^0,c
  2764   00230E  0E0F               	movlw	15
  2765   002310  6E3B               	movwf	(memset@dest+1)^0,c
  2766   002312  0E00               	movlw	0
  2767   002314  6E3D               	movwf	(memset@c+1)^0,c
  2768   002316  0E00               	movlw	0
  2769   002318  6E3C               	movwf	memset@c^0,c
  2770   00231A  0E00               	movlw	0
  2771   00231C  6E3F               	movwf	(memset@n+1)^0,c
  2772   00231E  0E01               	movlw	1
  2773   002320  6E3E               	movwf	memset@n^0,c
  2774   002322  ECC4  F009         	call	_memset	;wreg free
  2775                           
  2776                           ;../source/usb/usb_device.c: 1939:     memset((void*)&BDT[0], 0x00, sizeof(BDT));
  2777   002326  0E00               	movlw	0
  2778   002328  6E3A               	movwf	memset@dest^0,c
  2779   00232A  0E04               	movlw	4
  2780   00232C  6E3B               	movwf	(memset@dest+1)^0,c
  2781   00232E  0E00               	movlw	0
  2782   002330  6E3D               	movwf	(memset@c+1)^0,c
  2783   002332  0E00               	movlw	0
  2784   002334  6E3C               	movwf	memset@c^0,c
  2785   002336  0E00               	movlw	0
  2786   002338  6E3F               	movwf	(memset@n+1)^0,c
  2787   00233A  0E20               	movlw	32
  2788   00233C  6E3E               	movwf	memset@n^0,c
  2789   00233E  ECC4  F009         	call	_memset	;wreg free
  2790   002342                     
  2791                           ;../source/usb/usb_device.c: 1942:     UCONbits.PPBRST = 1;
  2792   002342  8C6D               	bsf	109,6,c	;volatile
  2793   002344                     
  2794                           ;../source/usb/usb_device.c: 1947:  for(i = 0; i < (uint8_t)(1 +1u); i++)
  2795   002344  0E00               	movlw	0
  2796   002346  6E50               	movwf	USBStdSetCfgHandler@i^0,c
  2797   002348                     l2917:
  2798                           
  2799                           ;../source/usb/usb_device.c: 1948:  {;../source/usb/usb_device.c: 1949:   ep_data_in[i].
      +                          Val = 0u;
  2800   002348  0E1F               	movlw	low _ep_data_in
  2801   00234A  2450               	addwf	USBStdSetCfgHandler@i^0,w,c
  2802   00234C  6ED9               	movwf	fsr2l,c
  2803   00234E  6ADA               	clrf	fsr2h,c
  2804   002350  0E00               	movlw	high _ep_data_in
  2805   002352  22DA               	addwfc	fsr2h,f,c
  2806   002354  0E00               	movlw	0
  2807   002356  6EDF               	movwf	indf2,c
  2808                           
  2809                           ;../source/usb/usb_device.c: 1950:         ep_data_out[i].Val = 0u;
  2810   002358  0E1D               	movlw	low _ep_data_out
  2811   00235A  2450               	addwf	USBStdSetCfgHandler@i^0,w,c
  2812   00235C  6ED9               	movwf	fsr2l,c
  2813   00235E  6ADA               	clrf	fsr2h,c
  2814   002360  0E00               	movlw	high _ep_data_out
  2815   002362  22DA               	addwfc	fsr2h,f,c
  2816   002364  0E00               	movlw	0
  2817   002366  6EDF               	movwf	indf2,c
  2818   002368                     
  2819                           ;../source/usb/usb_device.c: 1951:  }
  2820   002368  2A50               	incf	USBStdSetCfgHandler@i^0,f,c
  2821   00236A  0E01               	movlw	1
  2822   00236C  6450               	cpfsgt	USBStdSetCfgHandler@i^0,c
  2823   00236E  EFBB  F011         	goto	u2061
  2824   002372  EFBD  F011         	goto	u2060
  2825   002376                     u2061:
  2826   002376  EFA4  F011         	goto	l2917
  2827   00237A                     u2060:
  2828   00237A                     
  2829                           ;../source/usb/usb_device.c: 1954:     memset((void*)&USBAlternateInterface,0x00,1);
  2830   00237A  0E38               	movlw	low _USBAlternateInterface
  2831   00237C  6E3A               	movwf	memset@dest^0,c
  2832   00237E  0E00               	movlw	high _USBAlternateInterface
  2833   002380  6E3B               	movwf	(memset@dest+1)^0,c
  2834   002382  0E00               	movlw	0
  2835   002384  6E3D               	movwf	(memset@c+1)^0,c
  2836   002386  0E00               	movlw	0
  2837   002388  6E3C               	movwf	memset@c^0,c
  2838   00238A  0E00               	movlw	0
  2839   00238C  6E3F               	movwf	(memset@n+1)^0,c
  2840   00238E  0E01               	movlw	1
  2841   002390  6E3E               	movwf	memset@n^0,c
  2842   002392  ECC4  F009         	call	_memset	;wreg free
  2843   002396                     
  2844                           ;../source/usb/usb_device.c: 1957:     UCONbits.PPBRST = 0;
  2845   002396  9C6D               	bcf	109,6,c	;volatile
  2846   002398                     
  2847                           ;../source/usb/usb_device.c: 1959:     pBDTEntryIn[0] = (volatile BDT_ENTRY*)&BDT[2];
  2848   002398  0E08               	movlw	8
  2849   00239A  6E13               	movwf	_pBDTEntryIn^0,c
  2850   00239C  0E04               	movlw	4
  2851   00239E  6E14               	movwf	(_pBDTEntryIn+1)^0,c
  2852   0023A0                     
  2853                           ;../source/usb/usb_device.c: 1962:     pBDTEntryEP0OutCurrent = (volatile BDT_ENTRY*)&BD
      +                          T[0];
  2854   0023A0  0E00               	movlw	0
  2855   0023A2  6E25               	movwf	_pBDTEntryEP0OutCurrent^0,c
  2856   0023A4  0E04               	movlw	4
  2857   0023A6  6E26               	movwf	(_pBDTEntryEP0OutCurrent+1)^0,c
  2858   0023A8                     
  2859                           ;../source/usb/usb_device.c: 1963:     pBDTEntryEP0OutNext = pBDTEntryEP0OutCurrent;
  2860   0023A8  C025  F023         	movff	_pBDTEntryEP0OutCurrent,_pBDTEntryEP0OutNext
  2861   0023AC  C026  F024         	movff	_pBDTEntryEP0OutCurrent+1,_pBDTEntryEP0OutNext+1
  2862   0023B0                     
  2863                           ;../source/usb/usb_device.c: 1966:     USBActiveConfiguration = SetupPkt.bConfigurationV
      +                          alue;
  2864   0023B0  C422 F039          	movff	1058,_USBActiveConfiguration	;volatile
  2865   0023B4                     
  2866                           ;../source/usb/usb_device.c: 1969:     if(USBActiveConfiguration == 0)
  2867   0023B4  5039               	movf	_USBActiveConfiguration^0,w,c
  2868   0023B6  A4D8               	btfss	status,2,c
  2869   0023B8  EFE0  F011         	goto	u2071
  2870   0023BC  EFE2  F011         	goto	u2070
  2871   0023C0                     u2071:
  2872   0023C0  EFE6  F011         	goto	l2939
  2873   0023C4                     u2070:
  2874   0023C4                     
  2875                           ;../source/usb/usb_device.c: 1970:     {;../source/usb/usb_device.c: 1972:         USBDe
      +                          viceState = ADDRESS_STATE;
  2876   0023C4  0E10               	movlw	16
  2877   0023C6  6E34               	movwf	_USBDeviceState^0,c
  2878                           
  2879                           ;../source/usb/usb_device.c: 1973:     }
  2880   0023C8  EFF6  F011         	goto	l356
  2881   0023CC                     l2939:
  2882                           
  2883                           ;../source/usb/usb_device.c: 1975:     {;../source/usb/usb_device.c: 1977:         USER_
      +                          USB_CALLBACK_EVENT_HANDLER((USB_EVENT)EVENT_CONFIGURED,(void*)&USBActiveConfiguration,1)
      +                          ;
  2884   0023CC  0E00               	movlw	0
  2885   0023CE  6E49               	movwf	(USER_USB_CALLBACK_EVENT_HANDLER@event+1)^0,c
  2886   0023D0  0E01               	movlw	1
  2887   0023D2  6E48               	movwf	USER_USB_CALLBACK_EVENT_HANDLER@event^0,c
  2888   0023D4  0E39               	movlw	low _USBActiveConfiguration
  2889   0023D6  6E4A               	movwf	USER_USB_CALLBACK_EVENT_HANDLER@pdata^0,c
  2890   0023D8  0E00               	movlw	high _USBActiveConfiguration
  2891   0023DA  6E4B               	movwf	(USER_USB_CALLBACK_EVENT_HANDLER@pdata+1)^0,c
  2892   0023DC  0E00               	movlw	0
  2893   0023DE  6E4D               	movwf	(USER_USB_CALLBACK_EVENT_HANDLER@size+1)^0,c
  2894   0023E0  0E01               	movlw	1
  2895   0023E2  6E4C               	movwf	USER_USB_CALLBACK_EVENT_HANDLER@size^0,c
  2896   0023E4  EC73  F013         	call	_USER_USB_CALLBACK_EVENT_HANDLER	;wreg free
  2897   0023E8                     
  2898                           ;../source/usb/usb_device.c: 1982:         USBDeviceState = CONFIGURED_STATE;
  2899   0023E8  0E20               	movlw	32
  2900   0023EA  6E34               	movwf	_USBDeviceState^0,c
  2901   0023EC                     l356:
  2902   0023EC  0012               	return		;funcret
  2903   0023EE                     __end_of_USBStdSetCfgHandler:
  2904                           	callstack 0
  2905                           
  2906 ;; *************** function _memset *****************
  2907 ;; Defined at:
  2908 ;;		line 4 in file "C:\Program Files\Microchip\xc8\v2.40\pic\sources\c99\common\memset.c"
  2909 ;; Parameters:    Size  Location     Type
  2910 ;;  dest            2    0[COMRAM] PTR void 
  2911 ;;		 -> USBAlternateInterface(1), BDT(32), UEP1(1), 
  2912 ;;  c               2    2[COMRAM] int 
  2913 ;;  n               2    4[COMRAM] unsigned int 
  2914 ;; Auto vars:     Size  Location     Type
  2915 ;;  s               2   10[COMRAM] PTR unsigned char 
  2916 ;;		 -> USBAlternateInterface(1), BDT(32), UEP1(1), 
  2917 ;;  k               2    8[COMRAM] unsigned int 
  2918 ;; Return value:  Size  Location     Type
  2919 ;;                  2    0[COMRAM] PTR void 
  2920 ;; Registers used:
  2921 ;;		wreg, fsr2l, fsr2h, status,2, status,0
  2922 ;; Tracked objects:
  2923 ;;		On entry : 0/0
  2924 ;;		On exit  : 0/0
  2925 ;;		Unchanged: 0/0
  2926 ;; Data sizes:     COMRAM   BANK0   BANK1   BANK2   BANK3   BANK4   BANK5   BANK6   BANK7
  2927 ;;      Params:         6       0       0       0       0       0       0       0       0
  2928 ;;      Locals:         4       0       0       0       0       0       0       0       0
  2929 ;;      Temps:          2       0       0       0       0       0       0       0       0
  2930 ;;      Totals:        12       0       0       0       0       0       0       0       0
  2931 ;;Total ram usage:       12 bytes
  2932 ;; Hardware stack levels used: 1
  2933 ;; Hardware stack levels required when called: 1
  2934 ;; This function calls:
  2935 ;;		Nothing
  2936 ;; This function is called by:
  2937 ;;		_USBDeviceInit
  2938 ;;		_USBStdSetCfgHandler
  2939 ;; This function uses a non-reentrant model
  2940 ;;
  2941                           
  2942                           	psect	text14
  2943   001388                     __ptext14:
  2944                           	callstack 0
  2945   001388                     _memset:
  2946                           	callstack 27
  2947   001388  C03A  F044         	movff	memset@dest,memset@s
  2948   00138C  C03B  F045         	movff	memset@dest+1,memset@s+1
  2949   001390  503E               	movf	memset@n^0,w,c
  2950   001392  103F               	iorwf	(memset@n+1)^0,w,c
  2951   001394  A4D8               	btfss	status,2,c
  2952   001396  EFCF  F009         	goto	u2011
  2953   00139A  EFD1  F009         	goto	u2010
  2954   00139E                     u2011:
  2955   00139E  EFD3  F009         	goto	l2855
  2956   0013A2                     u2010:
  2957   0013A2  EF7E  F00A         	goto	l1309
  2958   0013A6                     l2855:
  2959   0013A6  C044  FFD9         	movff	memset@s,fsr2l
  2960   0013AA  C045  FFDA         	movff	memset@s+1,fsr2h
  2961   0013AE  C03C  FFDF         	movff	memset@c,indf2
  2962   0013B2  503E               	movf	memset@n^0,w,c
  2963   0013B4  2444               	addwf	memset@s^0,w,c
  2964   0013B6  6E40               	movwf	??_memset^0,c
  2965   0013B8  503F               	movf	(memset@n+1)^0,w,c
  2966   0013BA  2045               	addwfc	(memset@s+1)^0,w,c
  2967   0013BC  6E41               	movwf	(??_memset+1)^0,c
  2968   0013BE  0EFF               	movlw	255
  2969   0013C0  2440               	addwf	??_memset^0,w,c
  2970   0013C2  6ED9               	movwf	fsr2l,c
  2971   0013C4  0EFF               	movlw	255
  2972   0013C6  2041               	addwfc	(??_memset+1)^0,w,c
  2973   0013C8  6EDA               	movwf	fsr2h,c
  2974   0013CA  C03C  FFDF         	movff	memset@c,indf2
  2975   0013CE  503F               	movf	(memset@n+1)^0,w,c
  2976   0013D0  E107               	bnz	u2021
  2977   0013D2  0E03               	movlw	3
  2978   0013D4  5C3E               	subwf	memset@n^0,w,c
  2979   0013D6  B0D8               	btfsc	status,0,c
  2980   0013D8  EFF0  F009         	goto	u2021
  2981   0013DC  EFF2  F009         	goto	u2020
  2982   0013E0                     u2021:
  2983   0013E0  EFF4  F009         	goto	l2861
  2984   0013E4                     u2020:
  2985   0013E4  EF7E  F00A         	goto	l1309
  2986   0013E8                     l2861:
  2987   0013E8  EE20 F001          	lfsr	2,1
  2988   0013EC  5044               	movf	memset@s^0,w,c
  2989   0013EE  26D9               	addwf	fsr2l,f,c
  2990   0013F0  5045               	movf	(memset@s+1)^0,w,c
  2991   0013F2  22DA               	addwfc	fsr2h,f,c
  2992   0013F4  C03C  FFDF         	movff	memset@c,indf2
  2993   0013F8  EE20 F002          	lfsr	2,2
  2994   0013FC  5044               	movf	memset@s^0,w,c
  2995   0013FE  26D9               	addwf	fsr2l,f,c
  2996   001400  5045               	movf	(memset@s+1)^0,w,c
  2997   001402  22DA               	addwfc	fsr2h,f,c
  2998   001404  C03C  FFDF         	movff	memset@c,indf2
  2999   001408  503E               	movf	memset@n^0,w,c
  3000   00140A  2444               	addwf	memset@s^0,w,c
  3001   00140C  6E40               	movwf	??_memset^0,c
  3002   00140E  503F               	movf	(memset@n+1)^0,w,c
  3003   001410  2045               	addwfc	(memset@s+1)^0,w,c
  3004   001412  6E41               	movwf	(??_memset+1)^0,c
  3005   001414  0EFE               	movlw	254
  3006   001416  2440               	addwf	??_memset^0,w,c
  3007   001418  6ED9               	movwf	fsr2l,c
  3008   00141A  0EFF               	movlw	255
  3009   00141C  2041               	addwfc	(??_memset+1)^0,w,c
  3010   00141E  6EDA               	movwf	fsr2h,c
  3011   001420  C03C  FFDF         	movff	memset@c,indf2
  3012   001424  503E               	movf	memset@n^0,w,c
  3013   001426  2444               	addwf	memset@s^0,w,c
  3014   001428  6E40               	movwf	??_memset^0,c
  3015   00142A  503F               	movf	(memset@n+1)^0,w,c
  3016   00142C  2045               	addwfc	(memset@s+1)^0,w,c
  3017   00142E  6E41               	movwf	(??_memset+1)^0,c
  3018   001430  0EFD               	movlw	253
  3019   001432  2440               	addwf	??_memset^0,w,c
  3020   001434  6ED9               	movwf	fsr2l,c
  3021   001436  0EFF               	movlw	255
  3022   001438  2041               	addwfc	(??_memset+1)^0,w,c
  3023   00143A  6EDA               	movwf	fsr2h,c
  3024   00143C  C03C  FFDF         	movff	memset@c,indf2
  3025   001440  503F               	movf	(memset@n+1)^0,w,c
  3026   001442  E107               	bnz	u2031
  3027   001444  0E07               	movlw	7
  3028   001446  5C3E               	subwf	memset@n^0,w,c
  3029   001448  B0D8               	btfsc	status,0,c
  3030   00144A  EF29  F00A         	goto	u2031
  3031   00144E  EF2B  F00A         	goto	u2030
  3032   001452                     u2031:
  3033   001452  EF2D  F00A         	goto	l2867
  3034   001456                     u2030:
  3035   001456  EF7E  F00A         	goto	l1309
  3036   00145A                     l2867:
  3037   00145A  EE20 F003          	lfsr	2,3
  3038   00145E  5044               	movf	memset@s^0,w,c
  3039   001460  26D9               	addwf	fsr2l,f,c
  3040   001462  5045               	movf	(memset@s+1)^0,w,c
  3041   001464  22DA               	addwfc	fsr2h,f,c
  3042   001466  C03C  FFDF         	movff	memset@c,indf2
  3043   00146A  503E               	movf	memset@n^0,w,c
  3044   00146C  2444               	addwf	memset@s^0,w,c
  3045   00146E  6E40               	movwf	??_memset^0,c
  3046   001470  503F               	movf	(memset@n+1)^0,w,c
  3047   001472  2045               	addwfc	(memset@s+1)^0,w,c
  3048   001474  6E41               	movwf	(??_memset+1)^0,c
  3049   001476  0EFC               	movlw	252
  3050   001478  2440               	addwf	??_memset^0,w,c
  3051   00147A  6ED9               	movwf	fsr2l,c
  3052   00147C  0EFF               	movlw	255
  3053   00147E  2041               	addwfc	(??_memset+1)^0,w,c
  3054   001480  6EDA               	movwf	fsr2h,c
  3055   001482  C03C  FFDF         	movff	memset@c,indf2
  3056   001486  503F               	movf	(memset@n+1)^0,w,c
  3057   001488  E107               	bnz	u2041
  3058   00148A  0E09               	movlw	9
  3059   00148C  5C3E               	subwf	memset@n^0,w,c
  3060   00148E  B0D8               	btfsc	status,0,c
  3061   001490  EF4C  F00A         	goto	u2041
  3062   001494  EF4E  F00A         	goto	u2040
  3063   001498                     u2041:
  3064   001498  EF50  F00A         	goto	l2873
  3065   00149C                     u2040:
  3066   00149C  EF7E  F00A         	goto	l1309
  3067   0014A0                     l2873:
  3068   0014A0  C044  F040         	movff	memset@s,??_memset
  3069   0014A4  C045  F041         	movff	memset@s+1,??_memset+1
  3070   0014A8  1E40               	comf	??_memset^0,f,c
  3071   0014AA  1E41               	comf	(??_memset+1)^0,f,c
  3072   0014AC  4A40               	infsnz	??_memset^0,f,c
  3073   0014AE  2A41               	incf	(??_memset+1)^0,f,c
  3074   0014B0  0E03               	movlw	3
  3075   0014B2  1440               	andwf	??_memset^0,w,c
  3076   0014B4  6E42               	movwf	memset@k^0,c
  3077   0014B6  6A43               	clrf	(memset@k+1)^0,c
  3078   0014B8  5042               	movf	memset@k^0,w,c
  3079   0014BA  2644               	addwf	memset@s^0,f,c
  3080   0014BC  5043               	movf	(memset@k+1)^0,w,c
  3081   0014BE  2245               	addwfc	(memset@s+1)^0,f,c
  3082   0014C0  5042               	movf	memset@k^0,w,c
  3083   0014C2  5E3E               	subwf	memset@n^0,f,c
  3084   0014C4  5043               	movf	(memset@k+1)^0,w,c
  3085   0014C6  5A3F               	subwfb	(memset@n+1)^0,f,c
  3086   0014C8  0EFC               	movlw	252
  3087   0014CA  163E               	andwf	memset@n^0,f,c
  3088   0014CC  0EFF               	movlw	255
  3089   0014CE  163F               	andwf	(memset@n+1)^0,f,c
  3090   0014D0  EF75  F00A         	goto	l2881
  3091   0014D4                     l2875:
  3092   0014D4  C044  FFD9         	movff	memset@s,fsr2l
  3093   0014D8  C045  FFDA         	movff	memset@s+1,fsr2h
  3094   0014DC  C03C  FFDF         	movff	memset@c,indf2
  3095   0014E0  063E               	decf	memset@n^0,f,c
  3096   0014E2  A0D8               	btfss	status,0,c
  3097   0014E4  063F               	decf	(memset@n+1)^0,f,c
  3098   0014E6  4A44               	infsnz	memset@s^0,f,c
  3099   0014E8  2A45               	incf	(memset@s+1)^0,f,c
  3100   0014EA                     l2881:
  3101   0014EA  503E               	movf	memset@n^0,w,c
  3102   0014EC  103F               	iorwf	(memset@n+1)^0,w,c
  3103   0014EE  A4D8               	btfss	status,2,c
  3104   0014F0  EF7C  F00A         	goto	u2051
  3105   0014F4  EF7E  F00A         	goto	u2050
  3106   0014F8                     u2051:
  3107   0014F8  EF6A  F00A         	goto	l2875
  3108   0014FC                     u2050:
  3109   0014FC                     l1309:
  3110   0014FC  0012               	return		;funcret
  3111   0014FE                     __end_of_memset:
  3112                           	callstack 0
  3113                           
  3114 ;; *************** function _USBStdGetStatusHandler *****************
  3115 ;; Defined at:
  3116 ;;		line 2089 in file "../source/usb/usb_device.c"
  3117 ;; Parameters:    Size  Location     Type
  3118 ;;		None
  3119 ;; Auto vars:     Size  Location     Type
  3120 ;;  p               2    2[COMRAM] PTR struct __BDT
  3121 ;;		 -> RAM(2047), NULL(0), BDT(32), 
  3122 ;; Return value:  Size  Location     Type
  3123 ;;                  1    wreg      void 
  3124 ;; Registers used:
  3125 ;;		wreg, fsr2l, fsr2h, status,2, status,0, prodl, prodh
  3126 ;; Tracked objects:
  3127 ;;		On entry : 0/0
  3128 ;;		On exit  : 0/0
  3129 ;;		Unchanged: 0/0
  3130 ;; Data sizes:     COMRAM   BANK0   BANK1   BANK2   BANK3   BANK4   BANK5   BANK6   BANK7
  3131 ;;      Params:         0       0       0       0       0       0       0       0       0
  3132 ;;      Locals:         2       0       0       0       0       0       0       0       0
  3133 ;;      Temps:          2       0       0       0       0       0       0       0       0
  3134 ;;      Totals:         4       0       0       0       0       0       0       0       0
  3135 ;;Total ram usage:        4 bytes
  3136 ;; Hardware stack levels used: 1
  3137 ;; Hardware stack levels required when called: 1
  3138 ;; This function calls:
  3139 ;;		Nothing
  3140 ;; This function is called by:
  3141 ;;		_USBCheckStdRequest
  3142 ;; This function uses a non-reentrant model
  3143 ;;
  3144                           
  3145                           	psect	text15
  3146   001DE0                     __ptext15:
  3147                           	callstack 0
  3148   001DE0                     _USBStdGetStatusHandler:
  3149                           	callstack 25
  3150   001DE0                     
  3151                           ;../source/usb/usb_device.c: 2091:     CtrlTrfData[0] = 0;
  3152   001DE0  0E00               	movlw	0
  3153   001DE2  0104               	movlb	4	; () banked
  3154   001DE4  6F28               	movwf	40,b	;volatile
  3155                           
  3156                           ;../source/usb/usb_device.c: 2092:     CtrlTrfData[1] = 0;
  3157   001DE6  0E00               	movlw	0
  3158   001DE8  6F29               	movwf	41,b	;volatile
  3159                           
  3160                           ;../source/usb/usb_device.c: 2094:     switch(SetupPkt.Recipient)
  3161   001DEA  EF52  F00F         	goto	l1737
  3162   001DEE                     l374:
  3163                           
  3164                           ; BSR set to: 4
  3165                           ;../source/usb/usb_device.c: 2097:             inPipes[0].info.bits.busy = 1;
  3166   001DEE  8E0C               	bsf	(_inPipes+3)^0,7,c
  3167   001DF0                     
  3168                           ; BSR set to: 4
  3169                           ;../source/usb/usb_device.c: 2107:             if(RemoteWakeup == 1)
  3170   001DF0  0431               	decf	_RemoteWakeup^0,w,c
  3171   001DF2  A4D8               	btfss	status,2,c
  3172   001DF4  EFFE  F00E         	goto	u371
  3173   001DF8  EF00  F00F         	goto	u370
  3174   001DFC                     u371:
  3175   001DFC  EF6C  F00F         	goto	l377
  3176   001E00                     u370:
  3177   001E00                     
  3178                           ; BSR set to: 4
  3179                           ;../source/usb/usb_device.c: 2108:             {;../source/usb/usb_device.c: 2109:      
      +                                     CtrlTrfData[0]|=0x02;
  3180   001E00  8328               	bsf	40,1,b	;volatile
  3181   001E02  EF6C  F00F         	goto	l377
  3182   001E06                     l378:
  3183                           
  3184                           ; BSR set to: 4
  3185                           ;../source/usb/usb_device.c: 2113:             inPipes[0].info.bits.busy = 1;
  3186   001E06  8E0C               	bsf	(_inPipes+3)^0,7,c
  3187                           
  3188                           ;../source/usb/usb_device.c: 2114:             break;
  3189   001E08  EF6C  F00F         	goto	l377
  3190   001E0C                     l379:
  3191                           
  3192                           ; BSR set to: 4
  3193                           ;../source/usb/usb_device.c: 2116:             inPipes[0].info.bits.busy = 1;
  3194   001E0C  8E0C               	bsf	(_inPipes+3)^0,7,c
  3195   001E0E                     
  3196                           ; BSR set to: 4
  3197                           ;../source/usb/usb_device.c: 2120:             if(SetupPkt.EPNum != 0)
  3198   001E0E  5124               	movf	36,w,b	;volatile
  3199   001E10  0B0F               	andlw	15
  3200   001E12  0900               	iorlw	0
  3201   001E14  B4D8               	btfsc	status,2,c
  3202   001E16  EF0F  F00F         	goto	u381
  3203   001E1A  EF11  F00F         	goto	u380
  3204   001E1E                     u381:
  3205   001E1E  EF6C  F00F         	goto	l377
  3206   001E22                     u380:
  3207   001E22                     
  3208                           ; BSR set to: 4
  3209                           ;../source/usb/usb_device.c: 2121:             {;../source/usb/usb_device.c: 2122:      
      +                                     BDT_ENTRY *p;;../source/usb/usb_device.c: 2124:                 if(SetupPkt.E
      +                          PDir == 0)
  3210   001E22  BF24               	btfsc	36,7,b	;volatile
  3211   001E24  EF16  F00F         	goto	u391
  3212   001E28  EF18  F00F         	goto	u390
  3213   001E2C                     u391:
  3214   001E2C  EF29  F00F         	goto	l1727
  3215   001E30                     u390:
  3216   001E30                     
  3217                           ; BSR set to: 4
  3218                           ;../source/usb/usb_device.c: 2125:                 {;../source/usb/usb_device.c: 2126:  
      +                                             p = (BDT_ENTRY*)pBDTEntryOut[SetupPkt.EPNum];
  3219   001E30  5124               	movf	36,w,b	;volatile
  3220   001E32  0B0F               	andlw	15
  3221   001E34  6E3A               	movwf	??_USBStdGetStatusHandler^0,c
  3222   001E36  503A               	movf	??_USBStdGetStatusHandler^0,w,c
  3223   001E38  0D02               	mullw	2
  3224   001E3A  0E17               	movlw	low _pBDTEntryOut
  3225   001E3C  24F3               	addwf	243,w,c
  3226   001E3E  6ED9               	movwf	fsr2l,c
  3227   001E40  0E00               	movlw	high _pBDTEntryOut
  3228   001E42  20F4               	addwfc	prodh,w,c
  3229   001E44  6EDA               	movwf	fsr2h,c
  3230   001E46  CFDE F03C          	movff	postinc2,USBStdGetStatusHandler@p
  3231   001E4A  CFDD F03D          	movff	postdec2,USBStdGetStatusHandler@p+1
  3232                           
  3233                           ;../source/usb/usb_device.c: 2127:                 }
  3234   001E4E  EF38  F00F         	goto	l1729
  3235   001E52                     l1727:
  3236                           
  3237                           ; BSR set to: 4
  3238                           ;../source/usb/usb_device.c: 2129:                 {;../source/usb/usb_device.c: 2130:  
      +                                             p = (BDT_ENTRY*)pBDTEntryIn[SetupPkt.EPNum];
  3239   001E52  5124               	movf	36,w,b	;volatile
  3240   001E54  0B0F               	andlw	15
  3241   001E56  6E3A               	movwf	??_USBStdGetStatusHandler^0,c
  3242   001E58  503A               	movf	??_USBStdGetStatusHandler^0,w,c
  3243   001E5A  0D02               	mullw	2
  3244   001E5C  0E13               	movlw	low _pBDTEntryIn
  3245   001E5E  24F3               	addwf	243,w,c
  3246   001E60  6ED9               	movwf	fsr2l,c
  3247   001E62  0E00               	movlw	high _pBDTEntryIn
  3248   001E64  20F4               	addwfc	prodh,w,c
  3249   001E66  6EDA               	movwf	fsr2h,c
  3250   001E68  CFDE F03C          	movff	postinc2,USBStdGetStatusHandler@p
  3251   001E6C  CFDD F03D          	movff	postdec2,USBStdGetStatusHandler@p+1
  3252   001E70                     l1729:
  3253                           
  3254                           ; BSR set to: 4
  3255                           ;../source/usb/usb_device.c: 2133:                 if((p->STAT.UOWN == 1) && (p->STAT.BS
      +                          TALL == 1))
  3256   001E70  C03C  FFD9         	movff	USBStdGetStatusHandler@p,fsr2l
  3257   001E74  C03D  FFDA         	movff	USBStdGetStatusHandler@p+1,fsr2h
  3258   001E78  AEDF               	btfss	indf2,7,c
  3259   001E7A  EF41  F00F         	goto	u401
  3260   001E7E  EF43  F00F         	goto	u400
  3261   001E82                     u401:
  3262   001E82  EF6C  F00F         	goto	l377
  3263   001E86                     u400:
  3264   001E86                     
  3265                           ; BSR set to: 4
  3266   001E86  C03C  FFD9         	movff	USBStdGetStatusHandler@p,fsr2l
  3267   001E8A  C03D  FFDA         	movff	USBStdGetStatusHandler@p+1,fsr2h
  3268   001E8E  A4DF               	btfss	indf2,2,c
  3269   001E90  EF4C  F00F         	goto	u411
  3270   001E94  EF4E  F00F         	goto	u410
  3271   001E98                     u411:
  3272   001E98  EF6C  F00F         	goto	l377
  3273   001E9C                     u410:
  3274   001E9C                     
  3275                           ; BSR set to: 4
  3276                           ;../source/usb/usb_device.c: 2134:                 {;../source/usb/usb_device.c: 2135:  
      +                                             CtrlTrfData[0]=0x01;
  3277   001E9C  0E01               	movlw	1
  3278   001E9E  6F28               	movwf	40,b	;volatile
  3279   001EA0  EF6C  F00F         	goto	l377
  3280   001EA4                     l1737:
  3281                           
  3282                           ; BSR set to: 4
  3283   001EA4  5120               	movf	32,w,b	;volatile
  3284   001EA6  0B1F               	andlw	31
  3285   001EA8  6E3A               	movwf	??_USBStdGetStatusHandler^0,c
  3286   001EAA  6A3B               	clrf	(??_USBStdGetStatusHandler+1)^0,c
  3287                           
  3288                           ; Switch on 2 bytes has been partitioned into a top level switch of size 1, and 1 sub-sw
      +                          itches
  3289                           ; Switch size 1, requested type "simple"
  3290                           ; Number of cases is 1, Range of values is 0 to 0
  3291                           ; switch strategies available:
  3292                           ; Name         Instructions Cycles
  3293                           ; simple_byte            4     3 (average)
  3294                           ;	Chosen strategy is simple_byte
  3295   001EAC  503B               	movf	(??_USBStdGetStatusHandler+1)^0,w,c
  3296   001EAE  0A00               	xorlw	0	; case 0
  3297   001EB0  B4D8               	btfsc	status,2,c
  3298   001EB2  EF5D  F00F         	goto	l3797
  3299   001EB6  EF6C  F00F         	goto	l377
  3300   001EBA                     l3797:
  3301                           
  3302                           ; BSR set to: 4
  3303                           ; Switch size 1, requested type "simple"
  3304                           ; Number of cases is 3, Range of values is 0 to 2
  3305                           ; switch strategies available:
  3306                           ; Name         Instructions Cycles
  3307                           ; simple_byte           10     6 (average)
  3308                           ;	Chosen strategy is simple_byte
  3309   001EBA  503A               	movf	??_USBStdGetStatusHandler^0,w,c
  3310   001EBC  0A00               	xorlw	0	; case 0
  3311   001EBE  B4D8               	btfsc	status,2,c
  3312   001EC0  EFF7  F00E         	goto	l374
  3313   001EC4  0A01               	xorlw	1	; case 1
  3314   001EC6  B4D8               	btfsc	status,2,c
  3315   001EC8  EF03  F00F         	goto	l378
  3316   001ECC  0A03               	xorlw	3	; case 2
  3317   001ECE  B4D8               	btfsc	status,2,c
  3318   001ED0  EF06  F00F         	goto	l379
  3319   001ED4  EF6C  F00F         	goto	l377
  3320   001ED8                     l377:
  3321                           
  3322                           ; BSR set to: 4
  3323                           ;../source/usb/usb_device.c: 2141:     if(inPipes[0].info.bits.busy == 1)
  3324   001ED8  AE0C               	btfss	(_inPipes+3)^0,7,c
  3325   001EDA  EF71  F00F         	goto	u421
  3326   001EDE  EF73  F00F         	goto	u420
  3327   001EE2                     u421:
  3328   001EE2  EF7A  F00F         	goto	l385
  3329   001EE6                     u420:
  3330   001EE6                     
  3331                           ; BSR set to: 4
  3332                           ;../source/usb/usb_device.c: 2142:     {;../source/usb/usb_device.c: 2143:         inPip
      +                          es[0].pSrc.bRam = (uint8_t*)&CtrlTrfData;
  3333   001EE6  0E28               	movlw	40
  3334   001EE8  6E09               	movwf	_inPipes^0,c
  3335   001EEA  0E04               	movlw	4
  3336   001EEC  6E0A               	movwf	(_inPipes+1)^0,c
  3337   001EEE                     
  3338                           ; BSR set to: 4
  3339                           ;../source/usb/usb_device.c: 2144:         inPipes[0].info.bits.ctrl_trf_mem = 0x01;
  3340   001EEE  800C               	bsf	(_inPipes+3)^0,0,c
  3341   001EF0                     
  3342                           ; BSR set to: 4
  3343                           ;../source/usb/usb_device.c: 2145:         inPipes[0].wCount.v[0] = 2;
  3344   001EF0  0E02               	movlw	2
  3345   001EF2  6E0D               	movwf	(_inPipes+4)^0,c
  3346   001EF4                     l385:
  3347                           
  3348                           ; BSR set to: 4
  3349   001EF4  0012               	return		;funcret
  3350   001EF6                     __end_of_USBStdGetStatusHandler:
  3351                           	callstack 0
  3352                           
  3353 ;; *************** function _USBStdGetDscHandler *****************
  3354 ;; Defined at:
  3355 ;;		line 2003 in file "../source/usb/usb_device.c"
  3356 ;; Parameters:    Size  Location     Type
  3357 ;;		None
  3358 ;; Auto vars:     Size  Location     Type
  3359 ;;		None
  3360 ;; Return value:  Size  Location     Type
  3361 ;;                  1    wreg      void 
  3362 ;; Registers used:
  3363 ;;		wreg, fsr1l, fsr1h, status,2, status,0, tblptrl, tblptrh, tblptru, prodl, prodh
  3364 ;; Tracked objects:
  3365 ;;		On entry : 0/0
  3366 ;;		On exit  : 0/0
  3367 ;;		Unchanged: 0/0
  3368 ;; Data sizes:     COMRAM   BANK0   BANK1   BANK2   BANK3   BANK4   BANK5   BANK6   BANK7
  3369 ;;      Params:         0       0       0       0       0       0       0       0       0
  3370 ;;      Locals:         0       0       0       0       0       0       0       0       0
  3371 ;;      Temps:          2       0       0       0       0       0       0       0       0
  3372 ;;      Totals:         2       0       0       0       0       0       0       0       0
  3373 ;;Total ram usage:        2 bytes
  3374 ;; Hardware stack levels used: 1
  3375 ;; Hardware stack levels required when called: 1
  3376 ;; This function calls:
  3377 ;;		Nothing
  3378 ;; This function is called by:
  3379 ;;		_USBCheckStdRequest
  3380 ;; This function uses a non-reentrant model
  3381 ;;
  3382                           
  3383                           	psect	text16
  3384   00165E                     __ptext16:
  3385                           	callstack 0
  3386   00165E                     _USBStdGetDscHandler:
  3387                           	callstack 25
  3388   00165E                     
  3389                           ;../source/usb/usb_device.c: 2005:     if(SetupPkt.bmRequestType == 0x80)
  3390   00165E  0E80               	movlw	128
  3391   001660  0104               	movlb	4	; () banked
  3392   001662  1920               	xorwf	32,w,b	;volatile
  3393   001664  A4D8               	btfss	status,2,c
  3394   001666  EF37  F00B         	goto	u311
  3395   00166A  EF39  F00B         	goto	u310
  3396   00166E                     u311:
  3397   00166E  EFD6  F00B         	goto	l370
  3398   001672                     u310:
  3399   001672                     
  3400                           ; BSR set to: 4
  3401                           ;../source/usb/usb_device.c: 2006:     {;../source/usb/usb_device.c: 2007:         inPip
      +                          es[0].info.Val = 0x00 | 0x80 | 0x40;
  3402   001672  0EC0               	movlw	192
  3403   001674  6E0C               	movwf	(_inPipes+3)^0,c
  3404                           
  3405                           ;../source/usb/usb_device.c: 2009:         switch(SetupPkt.bDescriptorType)
  3406   001676  EFBD  F00B         	goto	l1705
  3407   00167A                     l1679:
  3408                           
  3409                           ; BSR set to: 4
  3410                           ;../source/usb/usb_device.c: 2015:                     inPipes[0].pSrc.bRom = (const uin
      +                          t8_t*)&device_dsc;
  3411   00167A  0E8E               	movlw	low _device_dsc
  3412   00167C  6E09               	movwf	_inPipes^0,c
  3413   00167E  0E08               	movlw	high _device_dsc
  3414   001680  6E0A               	movwf	(_inPipes+1)^0,c
  3415   001682                     
  3416                           ; BSR set to: 4
  3417                           ;../source/usb/usb_device.c: 2017:                 inPipes[0].wCount.Val = sizeof(device
      +                          _dsc);
  3418   001682  0E00               	movlw	0
  3419   001684  6E0E               	movwf	(_inPipes+5)^0,c
  3420   001686  0E12               	movlw	18
  3421   001688  6E0D               	movwf	(_inPipes+4)^0,c
  3422                           
  3423                           ;../source/usb/usb_device.c: 2018:                 break;
  3424   00168A  EFD6  F00B         	goto	l370
  3425   00168E                     l1683:
  3426                           
  3427                           ; BSR set to: 4
  3428                           ;../source/usb/usb_device.c: 2023:                 if(SetupPkt.bDscIndex < 1)
  3429   00168E  5122               	movf	34,w,b	;volatile
  3430   001690  A4D8               	btfss	status,2,c
  3431   001692  EF4D  F00B         	goto	u321
  3432   001696  EF4F  F00B         	goto	u320
  3433   00169A                     u321:
  3434   00169A  EF8D  F00B         	goto	l1691
  3435   00169E                     u320:
  3436   00169E                     
  3437                           ; BSR set to: 4
  3438                           ;../source/usb/usb_device.c: 2024:                 {;../source/usb/usb_device.c: 2028:  
      +                                                 inPipes[0].pSrc.bRom = *(USB_CD_Ptr+SetupPkt.bDscIndex);
  3439   00169E  5122               	movf	34,w,b	;volatile
  3440   0016A0  0D02               	mullw	2
  3441   0016A2  0E07               	movlw	low _USB_CD_Ptr
  3442   0016A4  24F3               	addwf	243,w,c
  3443   0016A6  6EF6               	movwf	tblptrl,c
  3444   0016A8  0E08               	movlw	high _USB_CD_Ptr
  3445   0016AA  20F4               	addwfc	244,w,c
  3446   0016AC  6EF7               	movwf	tblptrh,c
  3447   0016AE                     	if	0	;There are less than 3 active tblptr bytes
  3448   0016AE                     	endif
  3449   0016AE  0009               	tblrd		*+
  3450   0016B0  CFF5 F009          	movff	tablat,_inPipes
  3451   0016B4  000A               	tblrd		*-
  3452   0016B6  CFF5 F00A          	movff	tablat,_inPipes+1
  3453   0016BA                     
  3454                           ; BSR set to: 4
  3455                           ;../source/usb/usb_device.c: 2034:                     inPipes[0].wCount.byte.LB = *(inP
      +                          ipes[0].pSrc.bRom+2);
  3456   0016BA  0E02               	movlw	2
  3457   0016BC  2409               	addwf	_inPipes^0,w,c
  3458   0016BE  6E3A               	movwf	??_USBStdGetDscHandler^0,c
  3459   0016C0  0E00               	movlw	0
  3460   0016C2  200A               	addwfc	(_inPipes+1)^0,w,c
  3461   0016C4  6E3B               	movwf	(??_USBStdGetDscHandler+1)^0,c
  3462   0016C6  C03A  FFF6         	movff	??_USBStdGetDscHandler,tblptrl
  3463   0016CA  C03B  FFF7         	movff	??_USBStdGetDscHandler+1,tblptrh
  3464   0016CE  6AF8               	clrf	tblptru,c
  3465   0016D0  0E07               	movlw	(high __ramtop+-1)
  3466   0016D2  64F7               	cpfsgt	tblptrh,c
  3467   0016D4  D003               	bra	u337
  3468   0016D6  0008               	tblrd		*
  3469   0016D8  50F5               	movf	tablat,w,c
  3470   0016DA  D005               	bra	u330
  3471   0016DC                     u337:
  3472   0016DC  CFF6 FFE1          	movff	tblptrl,fsr1l
  3473   0016E0  CFF7 FFE2          	movff	tblptrh,fsr1h
  3474   0016E4  50E7               	movf	indf1,w,c
  3475   0016E6                     u330:
  3476   0016E6  6E0D               	movwf	(_inPipes+4)^0,c
  3477   0016E8                     
  3478                           ;../source/usb/usb_device.c: 2035:                     inPipes[0].wCount.byte.HB = *(inP
      +                          ipes[0].pSrc.bRom+3);
  3479   0016E8  0E03               	movlw	3
  3480   0016EA  2409               	addwf	_inPipes^0,w,c
  3481   0016EC  6E3A               	movwf	??_USBStdGetDscHandler^0,c
  3482   0016EE  0E00               	movlw	0
  3483   0016F0  200A               	addwfc	(_inPipes+1)^0,w,c
  3484   0016F2  6E3B               	movwf	(??_USBStdGetDscHandler+1)^0,c
  3485   0016F4  C03A  FFF6         	movff	??_USBStdGetDscHandler,tblptrl
  3486   0016F8  C03B  FFF7         	movff	??_USBStdGetDscHandler+1,tblptrh
  3487   0016FC  6AF8               	clrf	tblptru,c
  3488   0016FE  0E07               	movlw	(high __ramtop+-1)
  3489   001700  64F7               	cpfsgt	tblptrh,c
  3490   001702  D003               	bra	u347
  3491   001704  0008               	tblrd		*
  3492   001706  50F5               	movf	tablat,w,c
  3493   001708  D005               	bra	u340
  3494   00170A                     u347:
  3495   00170A  CFF6 FFE1          	movff	tblptrl,fsr1l
  3496   00170E  CFF7 FFE2          	movff	tblptrh,fsr1h
  3497   001712  50E7               	movf	indf1,w,c
  3498   001714                     u340:
  3499   001714  6E0E               	movwf	(_inPipes+5)^0,c
  3500                           
  3501                           ;../source/usb/usb_device.c: 2036:                 }
  3502   001716  EFD6  F00B         	goto	l370
  3503   00171A                     l1691:
  3504                           
  3505                           ; BSR set to: 4
  3506                           ;../source/usb/usb_device.c: 2038:     {;../source/usb/usb_device.c: 2039:      inPipes[
      +                          0].info.Val = 0;
  3507   00171A  0E00               	movlw	0
  3508   00171C  6E0C               	movwf	(_inPipes+3)^0,c
  3509   00171E  EFD6  F00B         	goto	l370
  3510   001722                     l1693:
  3511                           
  3512                           ; BSR set to: 4
  3513                           ;../source/usb/usb_device.c: 2046:                 if(SetupPkt.bDscIndex<3)
  3514   001722  0E03               	movlw	3
  3515   001724  6122               	cpfslt	34,b	;volatile
  3516   001726  EF97  F00B         	goto	u351
  3517   00172A  EF99  F00B         	goto	u350
  3518   00172E                     u351:
  3519   00172E  EF8D  F00B         	goto	l1691
  3520   001732                     u350:
  3521   001732                     
  3522                           ; BSR set to: 4
  3523                           ;../source/usb/usb_device.c: 2047:                 {;../source/usb/usb_device.c: 2049:  
      +                                             inPipes[0].pSrc.bRom = *(USB_SD_Ptr+SetupPkt.bDscIndex);
  3524   001732  5122               	movf	34,w,b	;volatile
  3525   001734  0D02               	mullw	2
  3526   001736  0E01               	movlw	low _USB_SD_Ptr
  3527   001738  24F3               	addwf	243,w,c
  3528   00173A  6EF6               	movwf	tblptrl,c
  3529   00173C  0E08               	movlw	high _USB_SD_Ptr
  3530   00173E  20F4               	addwfc	244,w,c
  3531   001740  6EF7               	movwf	tblptrh,c
  3532   001742                     	if	0	;There are less than 3 active tblptr bytes
  3533   001742                     	endif
  3534   001742  0009               	tblrd		*+
  3535   001744  CFF5 F009          	movff	tablat,_inPipes
  3536   001748  000A               	tblrd		*-
  3537   00174A  CFF5 F00A          	movff	tablat,_inPipes+1
  3538   00174E                     
  3539                           ; BSR set to: 4
  3540                           ;../source/usb/usb_device.c: 2051:                     inPipes[0].wCount.Val = *inPipes[
      +                          0].pSrc.bRom;
  3541   00174E  C009  FFF6         	movff	_inPipes,tblptrl
  3542   001752  C00A  FFF7         	movff	_inPipes+1,tblptrh
  3543   001756  6AF8               	clrf	tblptru,c
  3544   001758  0E07               	movlw	(high __ramtop+-1)
  3545   00175A  64F7               	cpfsgt	tblptrh,c
  3546   00175C  D003               	bra	u367
  3547   00175E  0008               	tblrd		*
  3548   001760  50F5               	movf	tablat,w,c
  3549   001762  D005               	bra	u360
  3550   001764                     u367:
  3551   001764  CFF6 FFE1          	movff	tblptrl,fsr1l
  3552   001768  CFF7 FFE2          	movff	tblptrh,fsr1h
  3553   00176C  50E7               	movf	indf1,w,c
  3554   00176E                     u360:
  3555   00176E  6E3A               	movwf	??_USBStdGetDscHandler^0,c
  3556   001770  503A               	movf	??_USBStdGetDscHandler^0,w,c
  3557   001772  6E0D               	movwf	(_inPipes+4)^0,c
  3558   001774  6A0E               	clrf	(_inPipes+5)^0,c
  3559                           
  3560                           ;../source/usb/usb_device.c: 2052:                 }
  3561   001776  EFD6  F00B         	goto	l370
  3562   00177A                     l1705:
  3563                           
  3564                           ; BSR set to: 4
  3565   00177A  5123               	movf	35,w,b	;volatile
  3566   00177C  6E3A               	movwf	??_USBStdGetDscHandler^0,c
  3567   00177E  6A3B               	clrf	(??_USBStdGetDscHandler+1)^0,c
  3568                           
  3569                           ; Switch on 2 bytes has been partitioned into a top level switch of size 1, and 1 sub-sw
      +                          itches
  3570                           ; Switch size 1, requested type "simple"
  3571                           ; Number of cases is 1, Range of values is 0 to 0
  3572                           ; switch strategies available:
  3573                           ; Name         Instructions Cycles
  3574                           ; simple_byte            4     3 (average)
  3575                           ;	Chosen strategy is simple_byte
  3576   001780  503B               	movf	(??_USBStdGetDscHandler+1)^0,w,c
  3577   001782  0A00               	xorlw	0	; case 0
  3578   001784  B4D8               	btfsc	status,2,c
  3579   001786  EFC7  F00B         	goto	l3799
  3580   00178A  EF8D  F00B         	goto	l1691
  3581   00178E                     l3799:
  3582                           
  3583                           ; BSR set to: 4
  3584                           ; Switch size 1, requested type "simple"
  3585                           ; Number of cases is 3, Range of values is 1 to 3
  3586                           ; switch strategies available:
  3587                           ; Name         Instructions Cycles
  3588                           ; simple_byte           10     6 (average)
  3589                           ;	Chosen strategy is simple_byte
  3590   00178E  503A               	movf	??_USBStdGetDscHandler^0,w,c
  3591   001790  0A01               	xorlw	1	; case 1
  3592   001792  B4D8               	btfsc	status,2,c
  3593   001794  EF3D  F00B         	goto	l1679
  3594   001798  0A03               	xorlw	3	; case 2
  3595   00179A  B4D8               	btfsc	status,2,c
  3596   00179C  EF47  F00B         	goto	l1683
  3597   0017A0  0A01               	xorlw	1	; case 3
  3598   0017A2  B4D8               	btfsc	status,2,c
  3599   0017A4  EF91  F00B         	goto	l1693
  3600   0017A8  EF8D  F00B         	goto	l1691
  3601   0017AC                     l370:
  3602   0017AC  0012               	return		;funcret
  3603   0017AE                     __end_of_USBStdGetDscHandler:
  3604                           	callstack 0
  3605                           
  3606 ;; *************** function _USBStdFeatureReqHandler *****************
  3607 ;; Defined at:
  3608 ;;		line 2717 in file "../source/usb/usb_device.c"
  3609 ;; Parameters:    Size  Location     Type
  3610 ;;		None
  3611 ;; Auto vars:     Size  Location     Type
  3612 ;;  p               2   27[COMRAM] PTR struct __BDT
  3613 ;;		 -> RAM(2047), NULL(0), BDT(32), 
  3614 ;;  pUEP            2   24[COMRAM] PTR unsigned char 
  3615 ;;		 -> UEP0(1), 
  3616 ;;  current_ep_d    1   26[COMRAM] struct .
  3617 ;; Return value:  Size  Location     Type
  3618 ;;                  1    wreg      void 
  3619 ;; Registers used:
  3620 ;;		wreg, fsr2l, fsr2h, status,2, status,0, prodl, prodh, cstack
  3621 ;; Tracked objects:
  3622 ;;		On entry : 0/0
  3623 ;;		On exit  : 0/0
  3624 ;;		Unchanged: 0/0
  3625 ;; Data sizes:     COMRAM   BANK0   BANK1   BANK2   BANK3   BANK4   BANK5   BANK6   BANK7
  3626 ;;      Params:         0       0       0       0       0       0       0       0       0
  3627 ;;      Locals:         5       0       0       0       0       0       0       0       0
  3628 ;;      Temps:          2       0       0       0       0       0       0       0       0
  3629 ;;      Totals:         7       0       0       0       0       0       0       0       0
  3630 ;;Total ram usage:        7 bytes
  3631 ;; Hardware stack levels used: 1
  3632 ;; Hardware stack levels required when called: 5
  3633 ;; This function calls:
  3634 ;;		_USER_USB_CALLBACK_EVENT_HANDLER
  3635 ;; This function is called by:
  3636 ;;		_USBCheckStdRequest
  3637 ;; This function uses a non-reentrant model
  3638 ;;
  3639                           
  3640                           	psect	text17
  3641   000DDA                     __ptext17:
  3642                           	callstack 0
  3643   000DDA                     _USBStdFeatureReqHandler:
  3644                           	callstack 21
  3645   000DDA                     
  3646                           ;../source/usb/usb_device.c: 2719:     BDT_ENTRY *p;;../source/usb/usb_device.c: 2720:  
      +                             EP_STATUS current_ep_data;;../source/usb/usb_device.c: 2724:         unsigned char* p
      +                          UEP;;../source/usb/usb_device.c: 2728:     if((SetupPkt.bFeature == 1)&&
  3647   000DDA  0104               	movlb	4	; () banked
  3648   000DDC  0522               	decf	34,w,b	;volatile
  3649   000DDE  A4D8               	btfss	status,2,c
  3650   000DE0  EFF4  F006         	goto	u2081
  3651   000DE4  EFF6  F006         	goto	u2080
  3652   000DE8                     u2081:
  3653   000DE8  EF10  F007         	goto	l452
  3654   000DEC                     u2080:
  3655   000DEC                     
  3656                           ; BSR set to: 4
  3657   000DEC  5120               	movf	32,w,b	;volatile
  3658   000DEE  0B1F               	andlw	31
  3659   000DF0  0900               	iorlw	0
  3660   000DF2  A4D8               	btfss	status,2,c
  3661   000DF4  EFFE  F006         	goto	u2091
  3662   000DF8  EF00  F007         	goto	u2090
  3663   000DFC                     u2091:
  3664   000DFC  EF10  F007         	goto	l452
  3665   000E00                     u2090:
  3666   000E00                     
  3667                           ; BSR set to: 4
  3668                           ;../source/usb/usb_device.c: 2730:     {;../source/usb/usb_device.c: 2731:         inPip
      +                          es[0].info.bits.busy = 1;
  3669   000E00  8E0C               	bsf	(_inPipes+3)^0,7,c
  3670   000E02                     
  3671                           ; BSR set to: 4
  3672                           ;../source/usb/usb_device.c: 2732:         if(SetupPkt.bRequest == 3)
  3673   000E02  0E03               	movlw	3
  3674   000E04  1921               	xorwf	33,w,b	;volatile
  3675   000E06  A4D8               	btfss	status,2,c
  3676   000E08  EF08  F007         	goto	u2101
  3677   000E0C  EF0A  F007         	goto	u2100
  3678   000E10                     u2101:
  3679   000E10  EF0E  F007         	goto	l2953
  3680   000E14                     u2100:
  3681   000E14                     
  3682                           ; BSR set to: 4
  3683                           ;../source/usb/usb_device.c: 2733:             RemoteWakeup = 1;
  3684   000E14  0E01               	movlw	1
  3685   000E16  6E31               	movwf	_RemoteWakeup^0,c
  3686   000E18  EF10  F007         	goto	l452
  3687   000E1C                     l2953:
  3688                           
  3689                           ; BSR set to: 4
  3690                           ;../source/usb/usb_device.c: 2735:             RemoteWakeup = 0;
  3691   000E1C  0E00               	movlw	0
  3692   000E1E  6E31               	movwf	_RemoteWakeup^0,c
  3693   000E20                     l452:
  3694                           
  3695                           ; BSR set to: 4
  3696                           ;../source/usb/usb_device.c: 2739:     if((SetupPkt.bFeature == 0)&&
  3697   000E20  5122               	movf	34,w,b	;volatile
  3698   000E22  A4D8               	btfss	status,2,c
  3699   000E24  EF16  F007         	goto	u2111
  3700   000E28  EF18  F007         	goto	u2110
  3701   000E2C                     u2111:
  3702   000E2C  EF92  F008         	goto	l475
  3703   000E30                     u2110:
  3704   000E30                     
  3705                           ; BSR set to: 4
  3706   000E30  5120               	movf	32,w,b	;volatile
  3707   000E32  0B1F               	andlw	31
  3708   000E34  0A02               	xorlw	2
  3709   000E36  A4D8               	btfss	status,2,c
  3710   000E38  EF20  F007         	goto	u2121
  3711   000E3C  EF22  F007         	goto	u2120
  3712   000E40                     u2121:
  3713   000E40  EF92  F008         	goto	l475
  3714   000E44                     u2120:
  3715   000E44                     
  3716                           ; BSR set to: 4
  3717   000E44  5124               	movf	36,w,b	;volatile
  3718   000E46  0B0F               	andlw	15
  3719   000E48  0900               	iorlw	0
  3720   000E4A  B4D8               	btfsc	status,2,c
  3721   000E4C  EF2A  F007         	goto	u2131
  3722   000E50  EF2C  F007         	goto	u2130
  3723   000E54                     u2131:
  3724   000E54  EF92  F008         	goto	l475
  3725   000E58                     u2130:
  3726   000E58                     
  3727                           ; BSR set to: 4
  3728   000E58  5124               	movf	36,w,b	;volatile
  3729   000E5A  0B0F               	andlw	15
  3730   000E5C  6E50               	movwf	??_USBStdFeatureReqHandler^0,c
  3731   000E5E  0E02               	movlw	2
  3732   000E60  6050               	cpfslt	??_USBStdFeatureReqHandler^0,c
  3733   000E62  EF35  F007         	goto	u2141
  3734   000E66  EF37  F007         	goto	u2140
  3735   000E6A                     u2141:
  3736   000E6A  EF92  F008         	goto	l475
  3737   000E6E                     u2140:
  3738   000E6E                     
  3739                           ; BSR set to: 4
  3740   000E6E  0E20               	movlw	32
  3741   000E70  1834               	xorwf	_USBDeviceState^0,w,c
  3742   000E72  A4D8               	btfss	status,2,c
  3743   000E74  EF3E  F007         	goto	u2151
  3744   000E78  EF40  F007         	goto	u2150
  3745   000E7C                     u2151:
  3746   000E7C  EF92  F008         	goto	l475
  3747   000E80                     u2150:
  3748   000E80                     
  3749                           ; BSR set to: 4
  3750                           ;../source/usb/usb_device.c: 2743:     {;../source/usb/usb_device.c: 2746:   inPipes[0].
      +                          info.bits.busy = 1;
  3751   000E80  8E0C               	bsf	(_inPipes+3)^0,7,c
  3752                           
  3753                           ;../source/usb/usb_device.c: 2749:         if(SetupPkt.EPDir == 0)
  3754   000E82  BF24               	btfsc	36,7,b	;volatile
  3755   000E84  EF46  F007         	goto	u2161
  3756   000E88  EF48  F007         	goto	u2160
  3757   000E8C                     u2161:
  3758   000E8C  EF65  F007         	goto	l2969
  3759   000E90                     u2160:
  3760   000E90                     
  3761                           ; BSR set to: 4
  3762                           ;../source/usb/usb_device.c: 2750:         {;../source/usb/usb_device.c: 2751:          
      +                             p = (BDT_ENTRY*)pBDTEntryOut[SetupPkt.EPNum];
  3763   000E90  5124               	movf	36,w,b	;volatile
  3764   000E92  0B0F               	andlw	15
  3765   000E94  6E50               	movwf	??_USBStdFeatureReqHandler^0,c
  3766   000E96  5050               	movf	??_USBStdFeatureReqHandler^0,w,c
  3767   000E98  0D02               	mullw	2
  3768   000E9A  0E17               	movlw	low _pBDTEntryOut
  3769   000E9C  24F3               	addwf	243,w,c
  3770   000E9E  6ED9               	movwf	fsr2l,c
  3771   000EA0  0E00               	movlw	high _pBDTEntryOut
  3772   000EA2  20F4               	addwfc	prodh,w,c
  3773   000EA4  6EDA               	movwf	fsr2h,c
  3774   000EA6  CFDE F055          	movff	postinc2,USBStdFeatureReqHandler@p
  3775   000EAA  CFDD F056          	movff	postdec2,USBStdFeatureReqHandler@p+1
  3776   000EAE                     
  3777                           ; BSR set to: 4
  3778                           ;../source/usb/usb_device.c: 2752:             current_ep_data.Val = ep_data_out[SetupPk
      +                          t.EPNum].Val;
  3779   000EAE  5124               	movf	36,w,b	;volatile
  3780   000EB0  0B0F               	andlw	15
  3781   000EB2  6E50               	movwf	??_USBStdFeatureReqHandler^0,c
  3782   000EB4  6A51               	clrf	(??_USBStdFeatureReqHandler+1)^0,c
  3783   000EB6  0E1D               	movlw	low _ep_data_out
  3784   000EB8  2450               	addwf	??_USBStdFeatureReqHandler^0,w,c
  3785   000EBA  6ED9               	movwf	fsr2l,c
  3786   000EBC  0E00               	movlw	high _ep_data_out
  3787   000EBE  2051               	addwfc	(??_USBStdFeatureReqHandler+1)^0,w,c
  3788   000EC0  6EDA               	movwf	fsr2h,c
  3789   000EC2  50DF               	movf	indf2,w,c
  3790   000EC4  6E54               	movwf	USBStdFeatureReqHandler@current_ep_data^0,c
  3791                           
  3792                           ;../source/usb/usb_device.c: 2753:         }
  3793   000EC6  EF80  F007         	goto	l2973
  3794   000ECA                     l2969:
  3795                           
  3796                           ; BSR set to: 4
  3797                           ;../source/usb/usb_device.c: 2755:         {;../source/usb/usb_device.c: 2756:          
      +                             p = (BDT_ENTRY*)pBDTEntryIn[SetupPkt.EPNum];
  3798   000ECA  5124               	movf	36,w,b	;volatile
  3799   000ECC  0B0F               	andlw	15
  3800   000ECE  6E50               	movwf	??_USBStdFeatureReqHandler^0,c
  3801   000ED0  5050               	movf	??_USBStdFeatureReqHandler^0,w,c
  3802   000ED2  0D02               	mullw	2
  3803   000ED4  0E13               	movlw	low _pBDTEntryIn
  3804   000ED6  24F3               	addwf	243,w,c
  3805   000ED8  6ED9               	movwf	fsr2l,c
  3806   000EDA  0E00               	movlw	high _pBDTEntryIn
  3807   000EDC  20F4               	addwfc	prodh,w,c
  3808   000EDE  6EDA               	movwf	fsr2h,c
  3809   000EE0  CFDE F055          	movff	postinc2,USBStdFeatureReqHandler@p
  3810   000EE4  CFDD F056          	movff	postdec2,USBStdFeatureReqHandler@p+1
  3811   000EE8                     
  3812                           ; BSR set to: 4
  3813                           ;../source/usb/usb_device.c: 2757:             current_ep_data.Val = ep_data_in[SetupPkt
      +                          .EPNum].Val;
  3814   000EE8  5124               	movf	36,w,b	;volatile
  3815   000EEA  0B0F               	andlw	15
  3816   000EEC  6E50               	movwf	??_USBStdFeatureReqHandler^0,c
  3817   000EEE  6A51               	clrf	(??_USBStdFeatureReqHandler+1)^0,c
  3818   000EF0  0E1F               	movlw	low _ep_data_in
  3819   000EF2  2450               	addwf	??_USBStdFeatureReqHandler^0,w,c
  3820   000EF4  6ED9               	movwf	fsr2l,c
  3821   000EF6  0E00               	movlw	high _ep_data_in
  3822   000EF8  2051               	addwfc	(??_USBStdFeatureReqHandler+1)^0,w,c
  3823   000EFA  6EDA               	movwf	fsr2h,c
  3824   000EFC  50DF               	movf	indf2,w,c
  3825   000EFE  6E54               	movwf	USBStdFeatureReqHandler@current_ep_data^0,c
  3826   000F00                     l2973:
  3827                           
  3828                           ; BSR set to: 4
  3829                           ;../source/usb/usb_device.c: 2764:             if(current_ep_data.bits.ping_pong_state =
      +                          = 0)
  3830   000F00  B054               	btfsc	USBStdFeatureReqHandler@current_ep_data^0,0,c
  3831   000F02  EF85  F007         	goto	u2171
  3832   000F06  EF87  F007         	goto	u2170
  3833   000F0A                     u2171:
  3834   000F0A  EF8F  F007         	goto	l2977
  3835   000F0E                     u2170:
  3836   000F0E                     
  3837                           ; BSR set to: 4
  3838                           ;../source/usb/usb_device.c: 2765:             {;../source/usb/usb_device.c: 2766:      
      +                                     p = (BDT_ENTRY*)(((uint16_t)p) & (~0x0004));
  3839   000F0E  0EFB               	movlw	251
  3840   000F10  1455               	andwf	USBStdFeatureReqHandler@p^0,w,c
  3841   000F12  6E55               	movwf	USBStdFeatureReqHandler@p^0,c
  3842   000F14  0EFF               	movlw	255
  3843   000F16  1456               	andwf	(USBStdFeatureReqHandler@p+1)^0,w,c
  3844   000F18  6E56               	movwf	(USBStdFeatureReqHandler@p+1)^0,c
  3845                           
  3846                           ;../source/usb/usb_device.c: 2767:             }
  3847   000F1A  EF94  F007         	goto	l2979
  3848   000F1E                     l2977:
  3849                           
  3850                           ; BSR set to: 4
  3851                           ;../source/usb/usb_device.c: 2769:             {;../source/usb/usb_device.c: 2770:      
      +                                     p = (BDT_ENTRY*)(((uint16_t)p) | 0x0004);
  3852   000F1E  0E04               	movlw	4
  3853   000F20  1055               	iorwf	USBStdFeatureReqHandler@p^0,w,c
  3854   000F22  6E55               	movwf	USBStdFeatureReqHandler@p^0,c
  3855   000F24  5056               	movf	(USBStdFeatureReqHandler@p+1)^0,w,c
  3856   000F26  6E56               	movwf	(USBStdFeatureReqHandler@p+1)^0,c
  3857   000F28                     l2979:
  3858                           
  3859                           ; BSR set to: 4
  3860                           ;../source/usb/usb_device.c: 2776:         if(SetupPkt.EPDir == 0)
  3861   000F28  BF24               	btfsc	36,7,b	;volatile
  3862   000F2A  EF99  F007         	goto	u2181
  3863   000F2E  EF9B  F007         	goto	u2180
  3864   000F32                     u2181:
  3865   000F32  EFAC  F007         	goto	l2983
  3866   000F36                     u2180:
  3867   000F36                     
  3868                           ; BSR set to: 4
  3869                           ;../source/usb/usb_device.c: 2777:         {;../source/usb/usb_device.c: 2778:          
      +                             pBDTEntryOut[SetupPkt.EPNum] = (volatile BDT_ENTRY *)p;
  3870   000F36  5124               	movf	36,w,b	;volatile
  3871   000F38  0B0F               	andlw	15
  3872   000F3A  6E50               	movwf	??_USBStdFeatureReqHandler^0,c
  3873   000F3C  5050               	movf	??_USBStdFeatureReqHandler^0,w,c
  3874   000F3E  0D02               	mullw	2
  3875   000F40  0E17               	movlw	low _pBDTEntryOut
  3876   000F42  24F3               	addwf	243,w,c
  3877   000F44  6ED9               	movwf	fsr2l,c
  3878   000F46  0E00               	movlw	high _pBDTEntryOut
  3879   000F48  20F4               	addwfc	prodh,w,c
  3880   000F4A  6EDA               	movwf	fsr2h,c
  3881   000F4C  C055  FFDE         	movff	USBStdFeatureReqHandler@p,postinc2
  3882   000F50  C056  FFDD         	movff	USBStdFeatureReqHandler@p+1,postdec2
  3883                           
  3884                           ;../source/usb/usb_device.c: 2779:         }
  3885   000F54  EFBB  F007         	goto	l2985
  3886   000F58                     l2983:
  3887                           
  3888                           ; BSR set to: 4
  3889                           ;../source/usb/usb_device.c: 2781:         {;../source/usb/usb_device.c: 2782:          
      +                             pBDTEntryIn[SetupPkt.EPNum] = (volatile BDT_ENTRY *)p;
  3890   000F58  5124               	movf	36,w,b	;volatile
  3891   000F5A  0B0F               	andlw	15
  3892   000F5C  6E50               	movwf	??_USBStdFeatureReqHandler^0,c
  3893   000F5E  5050               	movf	??_USBStdFeatureReqHandler^0,w,c
  3894   000F60  0D02               	mullw	2
  3895   000F62  0E13               	movlw	low _pBDTEntryIn
  3896   000F64  24F3               	addwf	243,w,c
  3897   000F66  6ED9               	movwf	fsr2l,c
  3898   000F68  0E00               	movlw	high _pBDTEntryIn
  3899   000F6A  20F4               	addwfc	prodh,w,c
  3900   000F6C  6EDA               	movwf	fsr2h,c
  3901   000F6E  C055  FFDE         	movff	USBStdFeatureReqHandler@p,postinc2
  3902   000F72  C056  FFDD         	movff	USBStdFeatureReqHandler@p+1,postdec2
  3903   000F76                     l2985:
  3904                           
  3905                           ; BSR set to: 4
  3906                           ;../source/usb/usb_device.c: 2786:         if(SetupPkt.bRequest == 3)
  3907   000F76  0E03               	movlw	3
  3908   000F78  1921               	xorwf	33,w,b	;volatile
  3909   000F7A  A4D8               	btfss	status,2,c
  3910   000F7C  EFC2  F007         	goto	u2191
  3911   000F80  EFC4  F007         	goto	u2190
  3912   000F84                     u2191:
  3913   000F84  EFFC  F007         	goto	l2995
  3914   000F88                     u2190:
  3915   000F88                     
  3916                           ; BSR set to: 4
  3917                           ;../source/usb/usb_device.c: 2787:         {;../source/usb/usb_device.c: 2788:          
      +                             if(p->STAT.UOWN == 1)
  3918   000F88  C055  FFD9         	movff	USBStdFeatureReqHandler@p,fsr2l
  3919   000F8C  C056  FFDA         	movff	USBStdFeatureReqHandler@p+1,fsr2h
  3920   000F90  AEDF               	btfss	indf2,7,c
  3921   000F92  EFCD  F007         	goto	u2201
  3922   000F96  EFCF  F007         	goto	u2200
  3923   000F9A                     u2201:
  3924   000F9A  EFEE  F007         	goto	l463
  3925   000F9E                     u2200:
  3926   000F9E                     
  3927                           ; BSR set to: 4
  3928                           ;../source/usb/usb_device.c: 2789:             {;../source/usb/usb_device.c: 2792:      
      +                                     if(SetupPkt.EPDir == 0)
  3929   000F9E  BF24               	btfsc	36,7,b	;volatile
  3930   000FA0  EFD4  F007         	goto	u2211
  3931   000FA4  EFD6  F007         	goto	u2210
  3932   000FA8                     u2211:
  3933   000FA8  EFE3  F007         	goto	l2993
  3934   000FAC                     u2210:
  3935   000FAC                     
  3936                           ; BSR set to: 4
  3937                           ;../source/usb/usb_device.c: 2793:                 {;../source/usb/usb_device.c: 2794:  
      +                                             ep_data_out[SetupPkt.EPNum].bits.transfer_terminated = 1;
  3938   000FAC  5124               	movf	36,w,b	;volatile
  3939   000FAE  0B0F               	andlw	15
  3940   000FB0  6E50               	movwf	??_USBStdFeatureReqHandler^0,c
  3941   000FB2  6A51               	clrf	(??_USBStdFeatureReqHandler+1)^0,c
  3942   000FB4  0E1D               	movlw	low _ep_data_out
  3943   000FB6  2450               	addwf	??_USBStdFeatureReqHandler^0,w,c
  3944   000FB8  6ED9               	movwf	fsr2l,c
  3945   000FBA  0E00               	movlw	high _ep_data_out
  3946   000FBC  2051               	addwfc	(??_USBStdFeatureReqHandler+1)^0,w,c
  3947   000FBE  6EDA               	movwf	fsr2h,c
  3948   000FC0  82DF               	bsf	indf2,1,c
  3949                           
  3950                           ;../source/usb/usb_device.c: 2795:                 }
  3951   000FC2  EFEE  F007         	goto	l463
  3952   000FC6                     l2993:
  3953                           
  3954                           ; BSR set to: 4
  3955                           ;../source/usb/usb_device.c: 2797:                 {;../source/usb/usb_device.c: 2798:  
      +                                             ep_data_in[SetupPkt.EPNum].bits.transfer_terminated = 1;
  3956   000FC6  5124               	movf	36,w,b	;volatile
  3957   000FC8  0B0F               	andlw	15
  3958   000FCA  6E50               	movwf	??_USBStdFeatureReqHandler^0,c
  3959   000FCC  6A51               	clrf	(??_USBStdFeatureReqHandler+1)^0,c
  3960   000FCE  0E1F               	movlw	low _ep_data_in
  3961   000FD0  2450               	addwf	??_USBStdFeatureReqHandler^0,w,c
  3962   000FD2  6ED9               	movwf	fsr2l,c
  3963   000FD4  0E00               	movlw	high _ep_data_in
  3964   000FD6  2051               	addwfc	(??_USBStdFeatureReqHandler+1)^0,w,c
  3965   000FD8  6EDA               	movwf	fsr2h,c
  3966   000FDA  82DF               	bsf	indf2,1,c
  3967   000FDC                     l463:
  3968                           
  3969                           ; BSR set to: 4
  3970                           ;../source/usb/usb_device.c: 2803:             p->STAT.Val |= 0x04;
  3971   000FDC  C055  FFD9         	movff	USBStdFeatureReqHandler@p,fsr2l
  3972   000FE0  C056  FFDA         	movff	USBStdFeatureReqHandler@p+1,fsr2h
  3973   000FE4  0E00               	movlw	0
  3974   000FE6  84DB               	bsf	plusw2,2,c
  3975                           
  3976                           ;../source/usb/usb_device.c: 2804:             p->STAT.Val |= 0x80;
  3977   000FE8  C055  FFD9         	movff	USBStdFeatureReqHandler@p,fsr2l
  3978   000FEC  C056  FFDA         	movff	USBStdFeatureReqHandler@p+1,fsr2h
  3979   000FF0  0E00               	movlw	0
  3980   000FF2  8EDB               	bsf	plusw2,7,c
  3981                           
  3982                           ;../source/usb/usb_device.c: 2805:         }
  3983   000FF4  EF92  F008         	goto	l475
  3984   000FF8                     l2995:
  3985                           
  3986                           ; BSR set to: 4
  3987                           ;../source/usb/usb_device.c: 2807:         {;../source/usb/usb_device.c: 2811:          
      +                                 p = (BDT_ENTRY*)(((uint16_t)p) ^ 0x0004);
  3988   000FF8  0E04               	movlw	4
  3989   000FFA  1855               	xorwf	USBStdFeatureReqHandler@p^0,w,c
  3990   000FFC  6E55               	movwf	USBStdFeatureReqHandler@p^0,c
  3991   000FFE  5056               	movf	(USBStdFeatureReqHandler@p+1)^0,w,c
  3992   001000  6E56               	movwf	(USBStdFeatureReqHandler@p+1)^0,c
  3993   001002                     
  3994                           ; BSR set to: 4
  3995                           ;../source/usb/usb_device.c: 2813:                 if(p->STAT.UOWN == 1)
  3996   001002  C055  FFD9         	movff	USBStdFeatureReqHandler@p,fsr2l
  3997   001006  C056  FFDA         	movff	USBStdFeatureReqHandler@p+1,fsr2h
  3998   00100A  AEDF               	btfss	indf2,7,c
  3999   00100C  EF0A  F008         	goto	u2221
  4000   001010  EF0C  F008         	goto	u2220
  4001   001014                     u2221:
  4002   001014  EF28  F008         	goto	l3005
  4003   001018                     u2220:
  4004   001018                     
  4005                           ; BSR set to: 4
  4006                           ;../source/usb/usb_device.c: 2814:                 {;../source/usb/usb_device.c: 2817:  
      +                                             p->STAT.Val &= (~0x80);
  4007   001018  C055  FFD9         	movff	USBStdFeatureReqHandler@p,fsr2l
  4008   00101C  C056  FFDA         	movff	USBStdFeatureReqHandler@p+1,fsr2h
  4009   001020  0E7F               	movlw	127
  4010   001022  16DF               	andwf	indf2,f,c
  4011   001024                     
  4012                           ; BSR set to: 4
  4013                           ;../source/usb/usb_device.c: 2818:                     p->STAT.Val |= 0x40;
  4014   001024  C055  FFD9         	movff	USBStdFeatureReqHandler@p,fsr2l
  4015   001028  C056  FFDA         	movff	USBStdFeatureReqHandler@p+1,fsr2h
  4016   00102C  0E00               	movlw	0
  4017   00102E  8CDB               	bsf	plusw2,6,c
  4018   001030                     
  4019                           ; BSR set to: 4
  4020                           ;../source/usb/usb_device.c: 2819:                     USER_USB_CALLBACK_EVENT_HANDLER((
      +                          USB_EVENT)EVENT_TRANSFER_TERMINATED,p,sizeof(p));
  4021   001030  0E00               	movlw	0
  4022   001032  6E49               	movwf	(USER_USB_CALLBACK_EVENT_HANDLER@event+1)^0,c
  4023   001034  0E05               	movlw	5
  4024   001036  6E48               	movwf	USER_USB_CALLBACK_EVENT_HANDLER@event^0,c
  4025   001038  C055  F04A         	movff	USBStdFeatureReqHandler@p,USER_USB_CALLBACK_EVENT_HANDLER@pdata
  4026   00103C  C056  F04B         	movff	USBStdFeatureReqHandler@p+1,USER_USB_CALLBACK_EVENT_HANDLER@pdata+1
  4027   001040  0E00               	movlw	0
  4028   001042  6E4D               	movwf	(USER_USB_CALLBACK_EVENT_HANDLER@size+1)^0,c
  4029   001044  0E02               	movlw	2
  4030   001046  6E4C               	movwf	USER_USB_CALLBACK_EVENT_HANDLER@size^0,c
  4031   001048  EC73  F013         	call	_USER_USB_CALLBACK_EVENT_HANDLER	;wreg free
  4032                           
  4033                           ;../source/usb/usb_device.c: 2820:                 }
  4034   00104C  EF2E  F008         	goto	l3007
  4035   001050                     l3005:
  4036                           
  4037                           ; BSR set to: 4
  4038                           ;../source/usb/usb_device.c: 2822:                 {;../source/usb/usb_device.c: 2824:  
      +                              p->STAT.Val |= 0x40;
  4039   001050  C055  FFD9         	movff	USBStdFeatureReqHandler@p,fsr2l
  4040   001054  C056  FFDA         	movff	USBStdFeatureReqHandler@p+1,fsr2h
  4041   001058  0E00               	movlw	0
  4042   00105A  8CDB               	bsf	plusw2,6,c
  4043   00105C                     l3007:
  4044                           
  4045                           ;../source/usb/usb_device.c: 2829:                 p = (BDT_ENTRY*)(((uint16_t)p) ^ 0x00
      +                          04);
  4046   00105C  0E04               	movlw	4
  4047   00105E  1855               	xorwf	USBStdFeatureReqHandler@p^0,w,c
  4048   001060  6E55               	movwf	USBStdFeatureReqHandler@p^0,c
  4049   001062  5056               	movf	(USBStdFeatureReqHandler@p+1)^0,w,c
  4050   001064  6E56               	movwf	(USBStdFeatureReqHandler@p+1)^0,c
  4051   001066                     
  4052                           ;../source/usb/usb_device.c: 2835:                 if((current_ep_data.bits.transfer_ter
      +                          minated != 0) || (p->STAT.UOWN == 1))
  4053   001066  B254               	btfsc	USBStdFeatureReqHandler@current_ep_data^0,1,c
  4054   001068  EF38  F008         	goto	u2231
  4055   00106C  EF3A  F008         	goto	u2230
  4056   001070                     u2231:
  4057   001070  EF45  F008         	goto	l471
  4058   001074                     u2230:
  4059   001074  C055  FFD9         	movff	USBStdFeatureReqHandler@p,fsr2l
  4060   001078  C056  FFDA         	movff	USBStdFeatureReqHandler@p+1,fsr2h
  4061   00107C  AEDF               	btfss	indf2,7,c
  4062   00107E  EF43  F008         	goto	u2241
  4063   001082  EF45  F008         	goto	u2240
  4064   001086                     u2241:
  4065   001086  EF7B  F008         	goto	l3021
  4066   00108A                     u2240:
  4067   00108A                     l471:
  4068                           
  4069                           ;../source/usb/usb_device.c: 2836:                 {;../source/usb/usb_device.c: 2837:  
      +                                             if(SetupPkt.EPDir == 0)
  4070   00108A  0104               	movlb	4	; () banked
  4071   00108C  BF24               	btfsc	36,7,b	;volatile
  4072   00108E  EF4B  F008         	goto	u2251
  4073   001092  EF4D  F008         	goto	u2250
  4074   001096                     u2251:
  4075   001096  EF5A  F008         	goto	l3015
  4076   00109A                     u2250:
  4077   00109A                     
  4078                           ; BSR set to: 4
  4079                           ;../source/usb/usb_device.c: 2838:                     {;../source/usb/usb_device.c: 283
      +                          9:                         ep_data_out[SetupPkt.EPNum].bits.transfer_terminated = 0;
  4080   00109A  5124               	movf	36,w,b	;volatile
  4081   00109C  0B0F               	andlw	15
  4082   00109E  6E50               	movwf	??_USBStdFeatureReqHandler^0,c
  4083   0010A0  6A51               	clrf	(??_USBStdFeatureReqHandler+1)^0,c
  4084   0010A2  0E1D               	movlw	low _ep_data_out
  4085   0010A4  2450               	addwf	??_USBStdFeatureReqHandler^0,w,c
  4086   0010A6  6ED9               	movwf	fsr2l,c
  4087   0010A8  0E00               	movlw	high _ep_data_out
  4088   0010AA  2051               	addwfc	(??_USBStdFeatureReqHandler+1)^0,w,c
  4089   0010AC  6EDA               	movwf	fsr2h,c
  4090   0010AE  92DF               	bcf	indf2,1,c
  4091                           
  4092                           ;../source/usb/usb_device.c: 2840:                     }
  4093   0010B0  EF65  F008         	goto	l3017
  4094   0010B4                     l3015:
  4095                           
  4096                           ; BSR set to: 4
  4097                           ;../source/usb/usb_device.c: 2842:                     {;../source/usb/usb_device.c: 284
      +                          3:                         ep_data_in[SetupPkt.EPNum].bits.transfer_terminated = 0;
  4098   0010B4  5124               	movf	36,w,b	;volatile
  4099   0010B6  0B0F               	andlw	15
  4100   0010B8  6E50               	movwf	??_USBStdFeatureReqHandler^0,c
  4101   0010BA  6A51               	clrf	(??_USBStdFeatureReqHandler+1)^0,c
  4102   0010BC  0E1F               	movlw	low _ep_data_in
  4103   0010BE  2450               	addwf	??_USBStdFeatureReqHandler^0,w,c
  4104   0010C0  6ED9               	movwf	fsr2l,c
  4105   0010C2  0E00               	movlw	high _ep_data_in
  4106   0010C4  2051               	addwfc	(??_USBStdFeatureReqHandler+1)^0,w,c
  4107   0010C6  6EDA               	movwf	fsr2h,c
  4108   0010C8  92DF               	bcf	indf2,1,c
  4109   0010CA                     l3017:
  4110                           
  4111                           ; BSR set to: 4
  4112                           ;../source/usb/usb_device.c: 2846:                     p->STAT.Val &= ~(0x80 | 0x40 | 0x
      +                          04);
  4113   0010CA  C055  FFD9         	movff	USBStdFeatureReqHandler@p,fsr2l
  4114   0010CE  C056  FFDA         	movff	USBStdFeatureReqHandler@p+1,fsr2h
  4115   0010D2  0E3B               	movlw	59
  4116   0010D4  16DF               	andwf	indf2,f,c
  4117   0010D6                     
  4118                           ; BSR set to: 4
  4119                           ;../source/usb/usb_device.c: 2849:                     USER_USB_CALLBACK_EVENT_HANDLER((
      +                          USB_EVENT)EVENT_TRANSFER_TERMINATED,p,sizeof(p));
  4120   0010D6  0E00               	movlw	0
  4121   0010D8  6E49               	movwf	(USER_USB_CALLBACK_EVENT_HANDLER@event+1)^0,c
  4122   0010DA  0E05               	movlw	5
  4123   0010DC  6E48               	movwf	USER_USB_CALLBACK_EVENT_HANDLER@event^0,c
  4124   0010DE  C055  F04A         	movff	USBStdFeatureReqHandler@p,USER_USB_CALLBACK_EVENT_HANDLER@pdata
  4125   0010E2  C056  F04B         	movff	USBStdFeatureReqHandler@p+1,USER_USB_CALLBACK_EVENT_HANDLER@pdata+1
  4126   0010E6  0E00               	movlw	0
  4127   0010E8  6E4D               	movwf	(USER_USB_CALLBACK_EVENT_HANDLER@size+1)^0,c
  4128   0010EA  0E02               	movlw	2
  4129   0010EC  6E4C               	movwf	USER_USB_CALLBACK_EVENT_HANDLER@size^0,c
  4130   0010EE  EC73  F013         	call	_USER_USB_CALLBACK_EVENT_HANDLER	;wreg free
  4131                           
  4132                           ;../source/usb/usb_device.c: 2850:                 }
  4133   0010F2  EF81  F008         	goto	l3023
  4134   0010F6                     l3021:
  4135                           
  4136                           ;../source/usb/usb_device.c: 2852:                 {;../source/usb/usb_device.c: 2854:  
      +                                             p->STAT.Val &= ~(0x80 | 0x40 | 0x04);
  4137   0010F6  C055  FFD9         	movff	USBStdFeatureReqHandler@p,fsr2l
  4138   0010FA  C056  FFDA         	movff	USBStdFeatureReqHandler@p+1,fsr2h
  4139   0010FE  0E3B               	movlw	59
  4140   001100  16DF               	andwf	indf2,f,c
  4141   001102                     l3023:
  4142                           
  4143                           ;../source/usb/usb_device.c: 2902:                 pUEP = (unsigned char*)(&UEP0+SetupPk
      +                          t.EPNum);
  4144   001102  0104               	movlb	4	; () banked
  4145   001104  5124               	movf	36,w,b	;volatile
  4146   001106  0B0F               	andlw	15
  4147   001108  6E50               	movwf	??_USBStdFeatureReqHandler^0,c
  4148   00110A  6A51               	clrf	(??_USBStdFeatureReqHandler+1)^0,c
  4149   00110C  0E70               	movlw	112
  4150   00110E  2450               	addwf	??_USBStdFeatureReqHandler^0,w,c
  4151   001110  6E52               	movwf	USBStdFeatureReqHandler@pUEP^0,c
  4152   001112  0E0F               	movlw	15
  4153   001114  2051               	addwfc	(??_USBStdFeatureReqHandler+1)^0,w,c
  4154   001116  6E53               	movwf	(USBStdFeatureReqHandler@pUEP+1)^0,c
  4155   001118                     
  4156                           ; BSR set to: 4
  4157                           ;../source/usb/usb_device.c: 2906:             *pUEP &= ~0x0001;
  4158   001118  C052  FFD9         	movff	USBStdFeatureReqHandler@pUEP,fsr2l
  4159   00111C  C053  FFDA         	movff	USBStdFeatureReqHandler@pUEP+1,fsr2h
  4160   001120  0EFE               	movlw	254
  4161   001122  16DF               	andwf	indf2,f,c
  4162   001124                     l475:
  4163                           
  4164                           ; BSR set to: 4
  4165   001124  0012               	return		;funcret
  4166   001126                     __end_of_USBStdFeatureReqHandler:
  4167                           	callstack 0
  4168                           
  4169 ;; *************** function _USER_USB_CALLBACK_EVENT_HANDLER *****************
  4170 ;; Defined at:
  4171 ;;		line 30 in file "../source/usb/usb_events.c"
  4172 ;; Parameters:    Size  Location     Type
  4173 ;;  event           2   14[COMRAM] enum E3438
  4174 ;;  pdata           2   16[COMRAM] PTR void 
  4175 ;;		 -> RAM(2047), USTATcopy(1), USBActiveConfiguration(1), NULL(0), 
  4176 ;;		 -> BDT(32), 
  4177 ;;  size            2   18[COMRAM] unsigned short 
  4178 ;; Auto vars:     Size  Location     Type
  4179 ;;		None
  4180 ;; Return value:  Size  Location     Type
  4181 ;;                  1    wreg      _Bool 
  4182 ;; Registers used:
  4183 ;;		wreg, fsr2l, fsr2h, status,2, status,0, prodl, prodh, cstack
  4184 ;; Tracked objects:
  4185 ;;		On entry : 0/0
  4186 ;;		On exit  : 0/0
  4187 ;;		Unchanged: 0/0
  4188 ;; Data sizes:     COMRAM   BANK0   BANK1   BANK2   BANK3   BANK4   BANK5   BANK6   BANK7
  4189 ;;      Params:         6       0       0       0       0       0       0       0       0
  4190 ;;      Locals:         0       0       0       0       0       0       0       0       0
  4191 ;;      Temps:          2       0       0       0       0       0       0       0       0
  4192 ;;      Totals:         8       0       0       0       0       0       0       0       0
  4193 ;;Total ram usage:        8 bytes
  4194 ;; Hardware stack levels used: 1
  4195 ;; Hardware stack levels required when called: 4
  4196 ;; This function calls:
  4197 ;;		_APP_DeviceJoystickInitialize
  4198 ;;		_SYSTEM_Initialize
  4199 ;;		_USBCheckHIDRequest
  4200 ;; This function is called by:
  4201 ;;		_USBDeviceTasks
  4202 ;;		_USBStdSetCfgHandler
  4203 ;;		_USBSuspend
  4204 ;;		_USBWakeFromSuspend
  4205 ;;		_USBCtrlTrfSetupHandler
  4206 ;;		_USBCheckStdRequest
  4207 ;;		_USBStdFeatureReqHandler
  4208 ;; This function uses a non-reentrant model
  4209 ;;
  4210                           
  4211                           	psect	text18
  4212   0026E6                     __ptext18:
  4213                           	callstack 0
  4214   0026E6                     _USER_USB_CALLBACK_EVENT_HANDLER:
  4215                           	callstack 25
  4216   0026E6                     
  4217                           ;../source/usb/usb_events.c: 30: _Bool USER_USB_CALLBACK_EVENT_HANDLER(USB_EVENT event, 
      +                          void *pdata, uint16_t size);../source/usb/usb_events.c: 31: {;../source/usb/usb_events.c
      +                          : 32:     switch( (int) event )
  4218   0026E6  EF87  F013         	goto	l2895
  4219   0026EA                     l2885:
  4220                           
  4221                           ;../source/usb/usb_events.c: 49:             SYSTEM_Initialize(SYSTEM_STATE_USB_SUSPEND)
      +                          ;
  4222   0026EA  0E01               	movlw	1
  4223   0026EC  EC0F  F014         	call	_SYSTEM_Initialize
  4224                           
  4225                           ;../source/usb/usb_events.c: 50:             break;
  4226   0026F0  EFC0  F013         	goto	l555
  4227   0026F4                     l2887:
  4228                           
  4229                           ;../source/usb/usb_events.c: 58:             SYSTEM_Initialize(SYSTEM_STATE_USB_RESUME);
  4230   0026F4  0E02               	movlw	2
  4231   0026F6  EC0F  F014         	call	_SYSTEM_Initialize
  4232                           
  4233                           ;../source/usb/usb_events.c: 59:             break;
  4234   0026FA  EFC0  F013         	goto	l555
  4235   0026FE                     l2889:
  4236                           
  4237                           ;../source/usb/usb_events.c: 64:             APP_DeviceJoystickInitialize();
  4238   0026FE  EC66  F016         	call	_APP_DeviceJoystickInitialize	;wreg free
  4239                           
  4240                           ;../source/usb/usb_events.c: 65:             break;
  4241   002702  EFC0  F013         	goto	l555
  4242   002706                     l2891:
  4243                           
  4244                           ;../source/usb/usb_events.c: 73:             USBCheckHIDRequest();
  4245   002706  EC7F  F00A         	call	_USBCheckHIDRequest	;wreg free
  4246                           
  4247                           ;../source/usb/usb_events.c: 74:             break;
  4248   00270A  EFC0  F013         	goto	l555
  4249   00270E                     l2895:
  4250   00270E  C048  F04E         	movff	USER_USB_CALLBACK_EVENT_HANDLER@event,??_USER_USB_CALLBACK_EVENT_HANDLER
  4251   002712  C049  F04F         	movff	USER_USB_CALLBACK_EVENT_HANDLER@event+1,??_USER_USB_CALLBACK_EVENT_HANDLER+1
  4252                           
  4253                           ; Switch on 2 bytes has been partitioned into a top level switch of size 1, and 2 sub-sw
      +                          itches
  4254                           ; Switch size 1, requested type "simple"
  4255                           ; Number of cases is 2, Range of values is 0 to 127
  4256                           ; switch strategies available:
  4257                           ; Name         Instructions Cycles
  4258                           ; simple_byte            7     4 (average)
  4259                           ;	Chosen strategy is simple_byte
  4260   002716  504F               	movf	(??_USER_USB_CALLBACK_EVENT_HANDLER+1)^0,w,c
  4261   002718  0A00               	xorlw	0	; case 0
  4262   00271A  B4D8               	btfsc	status,2,c
  4263   00271C  EF96  F013         	goto	l3801
  4264   002720  0A7F               	xorlw	127	; case 127
  4265   002722  B4D8               	btfsc	status,2,c
  4266   002724  EFB9  F013         	goto	l3803
  4267   002728  EFC0  F013         	goto	l555
  4268   00272C                     l3801:
  4269                           
  4270                           ; Switch size 1, requested type "simple"
  4271                           ; Number of cases is 8, Range of values is 1 to 117
  4272                           ; switch strategies available:
  4273                           ; Name         Instructions Cycles
  4274                           ; simple_byte           25    13 (average)
  4275                           ;	Chosen strategy is simple_byte
  4276   00272C  504E               	movf	??_USER_USB_CALLBACK_EVENT_HANDLER^0,w,c
  4277   00272E  0A01               	xorlw	1	; case 1
  4278   002730  B4D8               	btfsc	status,2,c
  4279   002732  EF7F  F013         	goto	l2889
  4280   002736  0A03               	xorlw	3	; case 2
  4281   002738  B4D8               	btfsc	status,2,c
  4282   00273A  EFC0  F013         	goto	l555
  4283   00273E  0A01               	xorlw	1	; case 3
  4284   002740  B4D8               	btfsc	status,2,c
  4285   002742  EF83  F013         	goto	l2891
  4286   002746  0A06               	xorlw	6	; case 5
  4287   002748  B4D8               	btfsc	status,2,c
  4288   00274A  EFC0  F013         	goto	l555
  4289   00274E  0A77               	xorlw	119	; case 114
  4290   002750  B4D8               	btfsc	status,2,c
  4291   002752  EFC0  F013         	goto	l555
  4292   002756  0A01               	xorlw	1	; case 115
  4293   002758  B4D8               	btfsc	status,2,c
  4294   00275A  EFC0  F013         	goto	l555
  4295   00275E  0A07               	xorlw	7	; case 116
  4296   002760  B4D8               	btfsc	status,2,c
  4297   002762  EF7A  F013         	goto	l2887
  4298   002766  0A01               	xorlw	1	; case 117
  4299   002768  B4D8               	btfsc	status,2,c
  4300   00276A  EF75  F013         	goto	l2885
  4301   00276E  EFC0  F013         	goto	l555
  4302   002772                     l3803:
  4303                           
  4304                           ; Switch size 1, requested type "simple"
  4305                           ; Number of cases is 1, Range of values is 255 to 255
  4306                           ; switch strategies available:
  4307                           ; Name         Instructions Cycles
  4308                           ; simple_byte            4     3 (average)
  4309                           ;	Chosen strategy is simple_byte
  4310   002772  504E               	movf	??_USER_USB_CALLBACK_EVENT_HANDLER^0,w,c
  4311   002774  0AFF               	xorlw	255	; case 255
  4312   002776  B4D8               	btfsc	status,2,c
  4313   002778  EFC0  F013         	goto	l555
  4314   00277C  EFC0  F013         	goto	l555
  4315   002780                     l555:
  4316   002780  0012               	return		;funcret
  4317   002782                     __end_of_USER_USB_CALLBACK_EVENT_HANDLER:
  4318                           	callstack 0
  4319                           
  4320 ;; *************** function _USBCheckHIDRequest *****************
  4321 ;; Defined at:
  4322 ;;		line 118 in file "../source/usb/usb_device_hid.c"
  4323 ;; Parameters:    Size  Location     Type
  4324 ;;		None
  4325 ;; Auto vars:     Size  Location     Type
  4326 ;;		None
  4327 ;; Return value:  Size  Location     Type
  4328 ;;                  1    wreg      void 
  4329 ;; Registers used:
  4330 ;;		wreg, status,2, status,0
  4331 ;; Tracked objects:
  4332 ;;		On entry : 0/0
  4333 ;;		On exit  : 0/0
  4334 ;;		Unchanged: 0/0
  4335 ;; Data sizes:     COMRAM   BANK0   BANK1   BANK2   BANK3   BANK4   BANK5   BANK6   BANK7
  4336 ;;      Params:         0       0       0       0       0       0       0       0       0
  4337 ;;      Locals:         0       0       0       0       0       0       0       0       0
  4338 ;;      Temps:          2       0       0       0       0       0       0       0       0
  4339 ;;      Totals:         2       0       0       0       0       0       0       0       0
  4340 ;;Total ram usage:        2 bytes
  4341 ;; Hardware stack levels used: 1
  4342 ;; Hardware stack levels required when called: 1
  4343 ;; This function calls:
  4344 ;;		Nothing
  4345 ;; This function is called by:
  4346 ;;		_USER_USB_CALLBACK_EVENT_HANDLER
  4347 ;; This function uses a non-reentrant model
  4348 ;;
  4349                           
  4350                           	psect	text19
  4351   0014FE                     __ptext19:
  4352                           	callstack 0
  4353   0014FE                     _USBCheckHIDRequest:
  4354                           	callstack 27
  4355   0014FE                     
  4356                           ;../source/usb/usb_device_hid.c: 120:     if(SetupPkt.Recipient != (0x01)) return;
  4357   0014FE  0104               	movlb	4	; () banked
  4358   001500  5120               	movf	32,w,b	;volatile
  4359   001502  0B1F               	andlw	31
  4360   001504  06E8               	decf	wreg,f,c
  4361   001506  B4D8               	btfsc	status,2,c
  4362   001508  EF88  F00A         	goto	u51
  4363   00150C  EF8A  F00A         	goto	u50
  4364   001510                     u51:
  4365   001510  EF8C  F00A         	goto	l1381
  4366   001514                     u50:
  4367   001514  EF2E  F00B         	goto	l517
  4368   001518                     l1381:
  4369                           
  4370                           ; BSR set to: 4
  4371                           ;../source/usb/usb_device_hid.c: 121:     if(SetupPkt.bIntfID != 0x00) return;
  4372   001518  5124               	movf	36,w,b	;volatile
  4373   00151A  B4D8               	btfsc	status,2,c
  4374   00151C  EF92  F00A         	goto	u61
  4375   001520  EF94  F00A         	goto	u60
  4376   001524                     u61:
  4377   001524  EF96  F00A         	goto	l1385
  4378   001528                     u60:
  4379   001528  EF2E  F00B         	goto	l517
  4380   00152C                     l1385:
  4381                           
  4382                           ; BSR set to: 4
  4383                           ;../source/usb/usb_device_hid.c: 128:     if(SetupPkt.bRequest == 6)
  4384   00152C  0E06               	movlw	6
  4385   00152E  1921               	xorwf	33,w,b	;volatile
  4386   001530  A4D8               	btfss	status,2,c
  4387   001532  EF9D  F00A         	goto	u71
  4388   001536  EF9F  F00A         	goto	u70
  4389   00153A                     u71:
  4390   00153A  EFD8  F00A         	goto	l1407
  4391   00153E                     u70:
  4392   00153E  EFBF  F00A         	goto	l1405
  4393   001542                     l1389:
  4394                           
  4395                           ; BSR set to: 4
  4396                           ;../source/usb/usb_device_hid.c: 133:                 if(USBActiveConfiguration == 1)
  4397   001542  0439               	decf	_USBActiveConfiguration^0,w,c
  4398   001544  A4D8               	btfss	status,2,c
  4399   001546  EFA7  F00A         	goto	u81
  4400   00154A  EFA9  F00A         	goto	u80
  4401   00154E                     u81:
  4402   00154E  EFD8  F00A         	goto	l1407
  4403   001552                     u80:
  4404   001552                     
  4405                           ; BSR set to: 4
  4406                           ;../source/usb/usb_device_hid.c: 134:                 {;../source/usb/usb_device_hid.c: 
      +                          135:                     { inPipes[0].pSrc.bRom = (const uint8_t*)&configDescriptor1 + 1
      +                          8; inPipes[0].wCount.Val = sizeof(USB_HID_DSC)+3; inPipes[0].info.Val = 0x40 | 0x80 | 0x
      +                          00; };
  4407   001552  0E6C               	movlw	low (_configDescriptor1+18)
  4408   001554  6E09               	movwf	_inPipes^0,c
  4409   001556  0E08               	movlw	high (_configDescriptor1+18)
  4410   001558  6E0A               	movwf	(_inPipes+1)^0,c
  4411   00155A                     
  4412                           ; BSR set to: 4
  4413   00155A  0E00               	movlw	0
  4414   00155C  6E0E               	movwf	(_inPipes+5)^0,c
  4415   00155E  0E09               	movlw	9
  4416   001560  6E0D               	movwf	(_inPipes+4)^0,c
  4417   001562                     l1395:
  4418                           
  4419                           ; BSR set to: 4
  4420   001562  0EC0               	movlw	192
  4421   001564  6E0C               	movwf	(_inPipes+3)^0,c
  4422   001566  EFD8  F00A         	goto	l1407
  4423   00156A                     l1397:
  4424                           
  4425                           ; BSR set to: 4
  4426                           ;../source/usb/usb_device_hid.c: 143:                 {;../source/usb/usb_device_hid.c: 
      +                          144:                     { inPipes[0].pSrc.bRom = (const uint8_t*)&hid_rpt01; inPipes[0]
      +                          .wCount.Val = 45; inPipes[0].info.Val = 0x40 | 0x80 | 0x00; };
  4427   00156A  0E09               	movlw	low _hid_rpt01
  4428   00156C  6E09               	movwf	_inPipes^0,c
  4429   00156E  0E08               	movlw	high _hid_rpt01
  4430   001570  6E0A               	movwf	(_inPipes+1)^0,c
  4431   001572                     
  4432                           ; BSR set to: 4
  4433   001572  0E00               	movlw	0
  4434   001574  6E0E               	movwf	(_inPipes+5)^0,c
  4435   001576  0E2D               	movlw	45
  4436   001578  6E0D               	movwf	(_inPipes+4)^0,c
  4437   00157A  EFB1  F00A         	goto	l1395
  4438   00157E                     l1405:
  4439                           
  4440                           ; BSR set to: 4
  4441   00157E  5123               	movf	35,w,b	;volatile
  4442   001580  6E3A               	movwf	??_USBCheckHIDRequest^0,c
  4443   001582  6A3B               	clrf	(??_USBCheckHIDRequest+1)^0,c
  4444                           
  4445                           ; Switch on 2 bytes has been partitioned into a top level switch of size 1, and 1 sub-sw
      +                          itches
  4446                           ; Switch size 1, requested type "simple"
  4447                           ; Number of cases is 1, Range of values is 0 to 0
  4448                           ; switch strategies available:
  4449                           ; Name         Instructions Cycles
  4450                           ; simple_byte            4     3 (average)
  4451                           ;	Chosen strategy is simple_byte
  4452   001584  503B               	movf	(??_USBCheckHIDRequest+1)^0,w,c
  4453   001586  0A00               	xorlw	0	; case 0
  4454   001588  B4D8               	btfsc	status,2,c
  4455   00158A  EFC9  F00A         	goto	l3805
  4456   00158E  EFD8  F00A         	goto	l1407
  4457   001592                     l3805:
  4458                           
  4459                           ; BSR set to: 4
  4460                           ; Switch size 1, requested type "simple"
  4461                           ; Number of cases is 3, Range of values is 33 to 35
  4462                           ; switch strategies available:
  4463                           ; Name         Instructions Cycles
  4464                           ; simple_byte           10     6 (average)
  4465                           ;	Chosen strategy is simple_byte
  4466   001592  503A               	movf	??_USBCheckHIDRequest^0,w,c
  4467   001594  0A21               	xorlw	33	; case 33
  4468   001596  B4D8               	btfsc	status,2,c
  4469   001598  EFA1  F00A         	goto	l1389
  4470   00159C  0A03               	xorlw	3	; case 34
  4471   00159E  B4D8               	btfsc	status,2,c
  4472   0015A0  EFB5  F00A         	goto	l1397
  4473   0015A4  0A01               	xorlw	1	; case 35
  4474   0015A6  B4D8               	btfsc	status,2,c
  4475   0015A8  EFD8  F00A         	goto	l1407
  4476   0015AC  EFD8  F00A         	goto	l1407
  4477   0015B0                     l1407:
  4478                           
  4479                           ; BSR set to: 4
  4480                           ;../source/usb/usb_device_hid.c: 166:     if(SetupPkt.RequestType != (0x20>>5))
  4481   0015B0  3920               	swapf	32,w,b	;volatile
  4482   0015B2  32E8               	rrcf	wreg,f,c
  4483   0015B4  0B03               	andlw	3
  4484   0015B6  06E8               	decf	wreg,f,c
  4485   0015B8  B4D8               	btfsc	status,2,c
  4486   0015BA  EFE1  F00A         	goto	u91
  4487   0015BE  EFE3  F00A         	goto	u90
  4488   0015C2                     u91:
  4489   0015C2  EF09  F00B         	goto	l1433
  4490   0015C6                     u90:
  4491   0015C6  EF2E  F00B         	goto	l517
  4492   0015CA                     l1411:
  4493                           
  4494                           ; BSR set to: 4
  4495                           ;../source/usb/usb_device_hid.c: 184:             { inPipes[0].pSrc.bRam = (uint8_t*)&id
      +                          le_rate; inPipes[0].wCount.Val = 1; inPipes[0].info.Val = 0x40 | 0x80 | 0x01; };
  4496   0015CA  0E36               	movlw	low _idle_rate
  4497   0015CC  6E09               	movwf	_inPipes^0,c
  4498   0015CE  0E00               	movlw	high _idle_rate
  4499   0015D0  6E0A               	movwf	(_inPipes+1)^0,c
  4500   0015D2                     
  4501                           ; BSR set to: 4
  4502   0015D2  0E00               	movlw	0
  4503   0015D4  6E0E               	movwf	(_inPipes+5)^0,c
  4504   0015D6  0E01               	movlw	1
  4505   0015D8  6E0D               	movwf	(_inPipes+4)^0,c
  4506   0015DA                     
  4507                           ; BSR set to: 4
  4508   0015DA  0EC1               	movlw	193
  4509   0015DC  6E0C               	movwf	(_inPipes+3)^0,c
  4510                           
  4511                           ;../source/usb/usb_device_hid.c: 188:             break;
  4512   0015DE  EF2E  F00B         	goto	l517
  4513   0015E2                     l1417:
  4514                           
  4515                           ; BSR set to: 4
  4516                           ;../source/usb/usb_device_hid.c: 190:             inPipes[0].info.Val = 0x00 | 0x80;
  4517   0015E2  0E80               	movlw	128
  4518   0015E4  6E0C               	movwf	(_inPipes+3)^0,c
  4519   0015E6                     
  4520                           ; BSR set to: 4
  4521                           ;../source/usb/usb_device_hid.c: 191:             idle_rate = SetupPkt.W_Value.byte.HB;
  4522   0015E6  C423 F036          	movff	1059,_idle_rate	;volatile
  4523                           
  4524                           ;../source/usb/usb_device_hid.c: 193:             break;
  4525   0015EA  EF2E  F00B         	goto	l517
  4526   0015EE                     l1421:
  4527                           
  4528                           ; BSR set to: 4
  4529                           ;../source/usb/usb_device_hid.c: 195:             { inPipes[0].pSrc.bRam = (uint8_t*)&ac
      +                          tive_protocol; inPipes[0].wCount.Val = 1; inPipes[0].info.Val = 0x00 | 0x80 | 0x01; };
  4530   0015EE  0E35               	movlw	low _active_protocol
  4531   0015F0  6E09               	movwf	_inPipes^0,c
  4532   0015F2  0E00               	movlw	high _active_protocol
  4533   0015F4  6E0A               	movwf	(_inPipes+1)^0,c
  4534   0015F6                     
  4535                           ; BSR set to: 4
  4536   0015F6  0E00               	movlw	0
  4537   0015F8  6E0E               	movwf	(_inPipes+5)^0,c
  4538   0015FA  0E01               	movlw	1
  4539   0015FC  6E0D               	movwf	(_inPipes+4)^0,c
  4540   0015FE                     
  4541                           ; BSR set to: 4
  4542   0015FE  0E81               	movlw	129
  4543   001600  6E0C               	movwf	(_inPipes+3)^0,c
  4544                           
  4545                           ;../source/usb/usb_device_hid.c: 199:             break;
  4546   001602  EF2E  F00B         	goto	l517
  4547   001606                     l1427:
  4548                           
  4549                           ; BSR set to: 4
  4550                           ;../source/usb/usb_device_hid.c: 201:             inPipes[0].info.Val = 0x00 | 0x80;
  4551   001606  0E80               	movlw	128
  4552   001608  6E0C               	movwf	(_inPipes+3)^0,c
  4553   00160A                     
  4554                           ; BSR set to: 4
  4555                           ;../source/usb/usb_device_hid.c: 202:             active_protocol = SetupPkt.W_Value.byt
      +                          e.LB;
  4556   00160A  C422 F035          	movff	1058,_active_protocol	;volatile
  4557                           
  4558                           ;../source/usb/usb_device_hid.c: 203:             break;
  4559   00160E  EF2E  F00B         	goto	l517
  4560   001612                     l1433:
  4561                           
  4562                           ; BSR set to: 4
  4563   001612  5121               	movf	33,w,b	;volatile
  4564   001614  6E3A               	movwf	??_USBCheckHIDRequest^0,c
  4565   001616  6A3B               	clrf	(??_USBCheckHIDRequest+1)^0,c
  4566                           
  4567                           ; Switch on 2 bytes has been partitioned into a top level switch of size 1, and 1 sub-sw
      +                          itches
  4568                           ; Switch size 1, requested type "simple"
  4569                           ; Number of cases is 1, Range of values is 0 to 0
  4570                           ; switch strategies available:
  4571                           ; Name         Instructions Cycles
  4572                           ; simple_byte            4     3 (average)
  4573                           ;	Chosen strategy is simple_byte
  4574   001618  503B               	movf	(??_USBCheckHIDRequest+1)^0,w,c
  4575   00161A  0A00               	xorlw	0	; case 0
  4576   00161C  B4D8               	btfsc	status,2,c
  4577   00161E  EF13  F00B         	goto	l3807
  4578   001622  EF2E  F00B         	goto	l517
  4579   001626                     l3807:
  4580                           
  4581                           ; BSR set to: 4
  4582                           ; Switch size 1, requested type "simple"
  4583                           ; Number of cases is 6, Range of values is 1 to 11
  4584                           ; switch strategies available:
  4585                           ; Name         Instructions Cycles
  4586                           ; simple_byte           19    10 (average)
  4587                           ;	Chosen strategy is simple_byte
  4588   001626  503A               	movf	??_USBCheckHIDRequest^0,w,c
  4589   001628  0A01               	xorlw	1	; case 1
  4590   00162A  B4D8               	btfsc	status,2,c
  4591   00162C  EF2E  F00B         	goto	l517
  4592   001630  0A03               	xorlw	3	; case 2
  4593   001632  B4D8               	btfsc	status,2,c
  4594   001634  EFE5  F00A         	goto	l1411
  4595   001638  0A01               	xorlw	1	; case 3
  4596   00163A  B4D8               	btfsc	status,2,c
  4597   00163C  EFF7  F00A         	goto	l1421
  4598   001640  0A0A               	xorlw	10	; case 9
  4599   001642  B4D8               	btfsc	status,2,c
  4600   001644  EF2E  F00B         	goto	l517
  4601   001648  0A03               	xorlw	3	; case 10
  4602   00164A  B4D8               	btfsc	status,2,c
  4603   00164C  EFF1  F00A         	goto	l1417
  4604   001650  0A01               	xorlw	1	; case 11
  4605   001652  B4D8               	btfsc	status,2,c
  4606   001654  EF03  F00B         	goto	l1427
  4607   001658  EF2E  F00B         	goto	l517
  4608   00165C                     l517:
  4609                           
  4610                           ; BSR set to: 4
  4611   00165C  0012               	return		;funcret
  4612   00165E                     __end_of_USBCheckHIDRequest:
  4613                           	callstack 0
  4614                           
  4615 ;; *************** function _SYSTEM_Initialize *****************
  4616 ;; Defined at:
  4617 ;;		line 57 in file "system.c"
  4618 ;; Parameters:    Size  Location     Type
  4619 ;;  state           1    wreg     enum E3915
  4620 ;; Auto vars:     Size  Location     Type
  4621 ;;  state           1    5[COMRAM] enum E3915
  4622 ;; Return value:  Size  Location     Type
  4623 ;;                  1    wreg      void 
  4624 ;; Registers used:
  4625 ;;		wreg, status,2, status,0, cstack
  4626 ;; Tracked objects:
  4627 ;;		On entry : 0/0
  4628 ;;		On exit  : 0/0
  4629 ;;		Unchanged: 0/0
  4630 ;; Data sizes:     COMRAM   BANK0   BANK1   BANK2   BANK3   BANK4   BANK5   BANK6   BANK7
  4631 ;;      Params:         0       0       0       0       0       0       0       0       0
  4632 ;;      Locals:         1       0       0       0       0       0       0       0       0
  4633 ;;      Temps:          2       0       0       0       0       0       0       0       0
  4634 ;;      Totals:         3       0       0       0       0       0       0       0       0
  4635 ;;Total ram usage:        3 bytes
  4636 ;; Hardware stack levels used: 1
  4637 ;; Hardware stack levels required when called: 2
  4638 ;; This function calls:
  4639 ;;		_ADC_Enable
  4640 ;;		_ADC_SetConfiguration
  4641 ;;		_BUTTON_Enable
  4642 ;; This function is called by:
  4643 ;;		_USER_USB_CALLBACK_EVENT_HANDLER
  4644 ;;		_main
  4645 ;; This function uses a non-reentrant model
  4646 ;;
  4647                           
  4648                           	psect	text20
  4649   00281E                     __ptext20:
  4650                           	callstack 0
  4651   00281E                     _SYSTEM_Initialize:
  4652                           	callstack 26
  4653                           
  4654                           ; BSR set to: 4
  4655                           ;incstack = 0
  4656                           ;SYSTEM_Initialize@state stored from wreg
  4657   00281E  6E3F               	movwf	SYSTEM_Initialize@state^0,c
  4658   002820                     
  4659                           ;system.c: 57: void SYSTEM_Initialize( SYSTEM_STATE state );system.c: 58: {;system.c: 59
      +                          :     switch(state)
  4660   002820  EF3E  F014         	goto	l1473
  4661   002824                     l1453:
  4662                           
  4663                           ;system.c: 63:             BUTTON_Enable(BUTTON_S1);
  4664   002824  0E17               	movlw	23
  4665   002826  ECE1  F014         	call	_BUTTON_Enable
  4666                           
  4667                           ;system.c: 64:             BUTTON_Enable(BUTTON_S5);
  4668   00282A  0E18               	movlw	24
  4669   00282C  ECE1  F014         	call	_BUTTON_Enable
  4670                           
  4671                           ;system.c: 65:             BUTTON_Enable(BUTTON_S7_1);
  4672   002830  0E19               	movlw	25
  4673   002832  ECE1  F014         	call	_BUTTON_Enable
  4674                           
  4675                           ;system.c: 66:             BUTTON_Enable(BUTTON_S7_2);
  4676   002836  0E1A               	movlw	26
  4677   002838  ECE1  F014         	call	_BUTTON_Enable
  4678                           
  4679                           ;system.c: 67:             BUTTON_Enable(BUTTON_S9);
  4680   00283C  0E1B               	movlw	27
  4681   00283E  ECE1  F014         	call	_BUTTON_Enable
  4682                           
  4683                           ;system.c: 68:             BUTTON_Enable(BUTTON_S10);
  4684   002842  0E1C               	movlw	28
  4685   002844  ECE1  F014         	call	_BUTTON_Enable
  4686   002848                     
  4687                           ;system.c: 70:             ADC_SetConfiguration(ADC_CONFIGURATION_DEFAULT);
  4688   002848  0E00               	movlw	0
  4689   00284A  EC46  F016         	call	_ADC_SetConfiguration
  4690   00284E                     
  4691                           ;system.c: 71:             ADC_Enable(ADC_CHANNEL_0);
  4692   00284E  0E00               	movlw	0
  4693   002850  EC9F  F014         	call	_ADC_Enable
  4694   002854                     
  4695                           ;system.c: 72:             ADC_Enable(ADC_CHANNEL_1);
  4696   002854  0E01               	movlw	1
  4697   002856  EC9F  F014         	call	_ADC_Enable
  4698   00285A                     
  4699                           ;system.c: 73:             ADC_Enable(ADC_CHANNEL_2);
  4700   00285A  0E02               	movlw	2
  4701   00285C  EC9F  F014         	call	_ADC_Enable
  4702   002860                     
  4703                           ;system.c: 74:             ADC_Enable(ADC_CHANNEL_3);
  4704   002860  0E03               	movlw	3
  4705   002862  EC9F  F014         	call	_ADC_Enable
  4706   002866                     
  4707                           ;system.c: 75:             ADC_Enable(ADC_CHANNEL_4);
  4708   002866  0E04               	movlw	4
  4709   002868  EC9F  F014         	call	_ADC_Enable
  4710   00286C                     
  4711                           ;system.c: 76:             ADC_Enable(ADC_CHANNEL_5);
  4712   00286C  0E05               	movlw	5
  4713   00286E  EC9F  F014         	call	_ADC_Enable
  4714   002872                     
  4715                           ;system.c: 77:             ADC_Enable(ADC_CHANNEL_6);
  4716   002872  0E06               	movlw	6
  4717   002874  EC9F  F014         	call	_ADC_Enable
  4718                           
  4719                           ;system.c: 79:             break;
  4720   002878  EF57  F014         	goto	l591
  4721   00287C                     l1473:
  4722   00287C  503F               	movf	SYSTEM_Initialize@state^0,w,c
  4723   00287E  6E3D               	movwf	??_SYSTEM_Initialize^0,c
  4724   002880  6A3E               	clrf	(??_SYSTEM_Initialize+1)^0,c
  4725                           
  4726                           ; Switch on 2 bytes has been partitioned into a top level switch of size 1, and 1 sub-sw
      +                          itches
  4727                           ; Switch size 1, requested type "simple"
  4728                           ; Number of cases is 1, Range of values is 0 to 0
  4729                           ; switch strategies available:
  4730                           ; Name         Instructions Cycles
  4731                           ; simple_byte            4     3 (average)
  4732                           ;	Chosen strategy is simple_byte
  4733   002882  503E               	movf	(??_SYSTEM_Initialize+1)^0,w,c
  4734   002884  0A00               	xorlw	0	; case 0
  4735   002886  B4D8               	btfsc	status,2,c
  4736   002888  EF48  F014         	goto	l3809
  4737   00288C  EF57  F014         	goto	l591
  4738   002890                     l3809:
  4739                           
  4740                           ; Switch size 1, requested type "simple"
  4741                           ; Number of cases is 3, Range of values is 0 to 2
  4742                           ; switch strategies available:
  4743                           ; Name         Instructions Cycles
  4744                           ; simple_byte           10     6 (average)
  4745                           ;	Chosen strategy is simple_byte
  4746   002890  503D               	movf	??_SYSTEM_Initialize^0,w,c
  4747   002892  0A00               	xorlw	0	; case 0
  4748   002894  B4D8               	btfsc	status,2,c
  4749   002896  EF12  F014         	goto	l1453
  4750   00289A  0A01               	xorlw	1	; case 1
  4751   00289C  B4D8               	btfsc	status,2,c
  4752   00289E  EF57  F014         	goto	l591
  4753   0028A2  0A03               	xorlw	3	; case 2
  4754   0028A4  B4D8               	btfsc	status,2,c
  4755   0028A6  EF57  F014         	goto	l591
  4756   0028AA  EF57  F014         	goto	l591
  4757   0028AE                     l591:
  4758   0028AE  0012               	return		;funcret
  4759   0028B0                     __end_of_SYSTEM_Initialize:
  4760                           	callstack 0
  4761                           
  4762 ;; *************** function _BUTTON_Enable *****************
  4763 ;; Defined at:
  4764 ;;		line 124 in file "../source/buttons.c"
  4765 ;; Parameters:    Size  Location     Type
  4766 ;;  button          1    wreg     enum E3201
  4767 ;; Auto vars:     Size  Location     Type
  4768 ;;  button          1    2[COMRAM] enum E3201
  4769 ;; Return value:  Size  Location     Type
  4770 ;;                  1    wreg      void 
  4771 ;; Registers used:
  4772 ;;		wreg, status,2, status,0
  4773 ;; Tracked objects:
  4774 ;;		On entry : 0/0
  4775 ;;		On exit  : 0/0
  4776 ;;		Unchanged: 0/0
  4777 ;; Data sizes:     COMRAM   BANK0   BANK1   BANK2   BANK3   BANK4   BANK5   BANK6   BANK7
  4778 ;;      Params:         0       0       0       0       0       0       0       0       0
  4779 ;;      Locals:         1       0       0       0       0       0       0       0       0
  4780 ;;      Temps:          2       0       0       0       0       0       0       0       0
  4781 ;;      Totals:         3       0       0       0       0       0       0       0       0
  4782 ;;Total ram usage:        3 bytes
  4783 ;; Hardware stack levels used: 1
  4784 ;; Hardware stack levels required when called: 1
  4785 ;; This function calls:
  4786 ;;		Nothing
  4787 ;; This function is called by:
  4788 ;;		_SYSTEM_Initialize
  4789 ;; This function uses a non-reentrant model
  4790 ;;
  4791                           
  4792                           	psect	text21
  4793   0029C2                     __ptext21:
  4794                           	callstack 0
  4795   0029C2                     _BUTTON_Enable:
  4796                           	callstack 26
  4797                           
  4798                           ;incstack = 0
  4799                           ;BUTTON_Enable@button stored from wreg
  4800   0029C2  6E3C               	movwf	BUTTON_Enable@button^0,c
  4801   0029C4                     
  4802                           ;../source/buttons.c: 124: void BUTTON_Enable(BUTTON button);../source/buttons.c: 125: {
      +                          ;../source/buttons.c: 126:     switch(button)
  4803   0029C4  EFF6  F014         	goto	l1337
  4804   0029C8                     l24:
  4805                           
  4806                           ;../source/buttons.c: 129:             TRISCbits.TRISC6 = 1;
  4807   0029C8  8C94               	bsf	148,6,c	;volatile
  4808                           
  4809                           ;../source/buttons.c: 130:             break;
  4810   0029CA  EF1F  F015         	goto	l32
  4811   0029CE                     l26:
  4812                           
  4813                           ;../source/buttons.c: 133:             TRISCbits.TRISC7 = 1;
  4814   0029CE  8E94               	bsf	148,7,c	;volatile
  4815                           
  4816                           ;../source/buttons.c: 134:             break;
  4817   0029D0  EF1F  F015         	goto	l32
  4818   0029D4                     l27:
  4819                           
  4820                           ;../source/buttons.c: 137:             TRISDbits.TRISD4 = 1;
  4821   0029D4  8895               	bsf	149,4,c	;volatile
  4822                           
  4823                           ;../source/buttons.c: 138:             break;
  4824   0029D6  EF1F  F015         	goto	l32
  4825   0029DA                     l28:
  4826                           
  4827                           ;../source/buttons.c: 141:             TRISDbits.TRISD5 = 1;
  4828   0029DA  8A95               	bsf	149,5,c	;volatile
  4829                           
  4830                           ;../source/buttons.c: 142:             break;
  4831   0029DC  EF1F  F015         	goto	l32
  4832   0029E0                     l29:
  4833                           
  4834                           ;../source/buttons.c: 145:             TRISDbits.TRISD6 = 1;
  4835   0029E0  8C95               	bsf	149,6,c	;volatile
  4836                           
  4837                           ;../source/buttons.c: 146:             break;
  4838   0029E2  EF1F  F015         	goto	l32
  4839   0029E6                     l30:
  4840                           
  4841                           ;../source/buttons.c: 149:             TRISDbits.TRISD7 = 1;
  4842   0029E6  8E95               	bsf	149,7,c	;volatile
  4843                           
  4844                           ;../source/buttons.c: 150:             break;
  4845   0029E8  EF1F  F015         	goto	l32
  4846   0029EC                     l1337:
  4847   0029EC  503C               	movf	BUTTON_Enable@button^0,w,c
  4848   0029EE  6E3A               	movwf	??_BUTTON_Enable^0,c
  4849   0029F0  6A3B               	clrf	(??_BUTTON_Enable+1)^0,c
  4850                           
  4851                           ; Switch on 2 bytes has been partitioned into a top level switch of size 1, and 1 sub-sw
      +                          itches
  4852                           ; Switch size 1, requested type "simple"
  4853                           ; Number of cases is 1, Range of values is 0 to 0
  4854                           ; switch strategies available:
  4855                           ; Name         Instructions Cycles
  4856                           ; simple_byte            4     3 (average)
  4857                           ;	Chosen strategy is simple_byte
  4858   0029F2  503B               	movf	(??_BUTTON_Enable+1)^0,w,c
  4859   0029F4  0A00               	xorlw	0	; case 0
  4860   0029F6  B4D8               	btfsc	status,2,c
  4861   0029F8  EF00  F015         	goto	l3811
  4862   0029FC  EF1F  F015         	goto	l32
  4863   002A00                     l3811:
  4864                           
  4865                           ; Switch size 1, requested type "simple"
  4866                           ; Number of cases is 7, Range of values is 0 to 28
  4867                           ; switch strategies available:
  4868                           ; Name         Instructions Cycles
  4869                           ; simple_byte           22    12 (average)
  4870                           ;	Chosen strategy is simple_byte
  4871   002A00  503A               	movf	??_BUTTON_Enable^0,w,c
  4872   002A02  0A00               	xorlw	0	; case 0
  4873   002A04  B4D8               	btfsc	status,2,c
  4874   002A06  EF1F  F015         	goto	l32
  4875   002A0A  0A17               	xorlw	23	; case 23
  4876   002A0C  B4D8               	btfsc	status,2,c
  4877   002A0E  EFE4  F014         	goto	l24
  4878   002A12  0A0F               	xorlw	15	; case 24
  4879   002A14  B4D8               	btfsc	status,2,c
  4880   002A16  EFE7  F014         	goto	l26
  4881   002A1A  0A01               	xorlw	1	; case 25
  4882   002A1C  B4D8               	btfsc	status,2,c
  4883   002A1E  EFEA  F014         	goto	l27
  4884   002A22  0A03               	xorlw	3	; case 26
  4885   002A24  B4D8               	btfsc	status,2,c
  4886   002A26  EFED  F014         	goto	l28
  4887   002A2A  0A01               	xorlw	1	; case 27
  4888   002A2C  B4D8               	btfsc	status,2,c
  4889   002A2E  EFF0  F014         	goto	l29
  4890   002A32  0A07               	xorlw	7	; case 28
  4891   002A34  B4D8               	btfsc	status,2,c
  4892   002A36  EFF3  F014         	goto	l30
  4893   002A3A  EF1F  F015         	goto	l32
  4894   002A3E                     l32:
  4895   002A3E  0012               	return		;funcret
  4896   002A40                     __end_of_BUTTON_Enable:
  4897                           	callstack 0
  4898                           
  4899 ;; *************** function _ADC_SetConfiguration *****************
  4900 ;; Defined at:
  4901 ;;		line 177 in file "../source/adc.c"
  4902 ;; Parameters:    Size  Location     Type
  4903 ;;  configuratio    1    wreg     enum E48
  4904 ;; Auto vars:     Size  Location     Type
  4905 ;;  configuratio    1    0[COMRAM] enum E48
  4906 ;; Return value:  Size  Location     Type
  4907 ;;                  1    wreg      _Bool 
  4908 ;; Registers used:
  4909 ;;		wreg, status,2
  4910 ;; Tracked objects:
  4911 ;;		On entry : 0/0
  4912 ;;		On exit  : 0/0
  4913 ;;		Unchanged: 0/0
  4914 ;; Data sizes:     COMRAM   BANK0   BANK1   BANK2   BANK3   BANK4   BANK5   BANK6   BANK7
  4915 ;;      Params:         0       0       0       0       0       0       0       0       0
  4916 ;;      Locals:         1       0       0       0       0       0       0       0       0
  4917 ;;      Temps:          0       0       0       0       0       0       0       0       0
  4918 ;;      Totals:         1       0       0       0       0       0       0       0       0
  4919 ;;Total ram usage:        1 bytes
  4920 ;; Hardware stack levels used: 1
  4921 ;; Hardware stack levels required when called: 1
  4922 ;; This function calls:
  4923 ;;		Nothing
  4924 ;; This function is called by:
  4925 ;;		_SYSTEM_Initialize
  4926 ;; This function uses a non-reentrant model
  4927 ;;
  4928                           
  4929                           	psect	text22
  4930   002C8C                     __ptext22:
  4931                           	callstack 0
  4932   002C8C                     _ADC_SetConfiguration:
  4933                           	callstack 26
  4934                           
  4935                           ;incstack = 0
  4936                           ;ADC_SetConfiguration@configuration stored from wreg
  4937   002C8C  6E3A               	movwf	ADC_SetConfiguration@configuration^0,c
  4938   002C8E                     
  4939                           ;../source/adc.c: 177: _Bool ADC_SetConfiguration(ADC_CONFIGURATION configuration);../so
      +                          urce/adc.c: 178: {;../source/adc.c: 179:     if(configuration == ADC_CONFIGURATION_DEFAU
      +                          LT)
  4940   002C8E  503A               	movf	ADC_SetConfiguration@configuration^0,w,c
  4941   002C90  A4D8               	btfss	status,2,c
  4942   002C92  EF4D  F016         	goto	u21
  4943   002C96  EF4F  F016         	goto	u20
  4944   002C9A                     u21:
  4945   002C9A  EF58  F016         	goto	l98
  4946   002C9E                     u20:
  4947   002C9E                     
  4948                           ;../source/adc.c: 180:     {;../source/adc.c: 181:         ADCON0=0x01;
  4949   002C9E  0E01               	movlw	1
  4950   002CA0  6EC2               	movwf	194,c	;volatile
  4951   002CA2                     
  4952                           ;../source/adc.c: 182:         ADCON1bits.PCFG = 0b0101;
  4953   002CA2  50C1               	movf	193,w,c	;volatile
  4954   002CA4  0BF0               	andlw	-16
  4955   002CA6  0905               	iorlw	5
  4956   002CA8  6EC1               	movwf	193,c	;volatile
  4957   002CAA                     
  4958                           ;../source/adc.c: 183:         ADCON2=0x3C;
  4959   002CAA  0E3C               	movlw	60
  4960   002CAC  6EC0               	movwf	192,c	;volatile
  4961   002CAE                     
  4962                           ;../source/adc.c: 184:         ADCON2bits.ADFM = 1;
  4963   002CAE  8EC0               	bsf	192,7,c	;volatile
  4964   002CB0                     l98:
  4965   002CB0  0012               	return		;funcret
  4966   002CB2                     __end_of_ADC_SetConfiguration:
  4967                           	callstack 0
  4968                           
  4969 ;; *************** function _ADC_Enable *****************
  4970 ;; Defined at:
  4971 ;;		line 125 in file "../source/adc.c"
  4972 ;; Parameters:    Size  Location     Type
  4973 ;;  channel         1    wreg     enum E36
  4974 ;; Auto vars:     Size  Location     Type
  4975 ;;  channel         1    2[COMRAM] enum E36
  4976 ;; Return value:  Size  Location     Type
  4977 ;;                  1    wreg      _Bool 
  4978 ;; Registers used:
  4979 ;;		wreg, status,2, status,0
  4980 ;; Tracked objects:
  4981 ;;		On entry : 0/0
  4982 ;;		On exit  : 0/0
  4983 ;;		Unchanged: 0/0
  4984 ;; Data sizes:     COMRAM   BANK0   BANK1   BANK2   BANK3   BANK4   BANK5   BANK6   BANK7
  4985 ;;      Params:         0       0       0       0       0       0       0       0       0
  4986 ;;      Locals:         1       0       0       0       0       0       0       0       0
  4987 ;;      Temps:          2       0       0       0       0       0       0       0       0
  4988 ;;      Totals:         3       0       0       0       0       0       0       0       0
  4989 ;;Total ram usage:        3 bytes
  4990 ;; Hardware stack levels used: 1
  4991 ;; Hardware stack levels required when called: 1
  4992 ;; This function calls:
  4993 ;;		Nothing
  4994 ;; This function is called by:
  4995 ;;		_SYSTEM_Initialize
  4996 ;; This function uses a non-reentrant model
  4997 ;;
  4998                           
  4999                           	psect	text23
  5000   00293E                     __ptext23:
  5001                           	callstack 0
  5002   00293E                     _ADC_Enable:
  5003                           	callstack 26
  5004                           
  5005                           ;incstack = 0
  5006                           ;ADC_Enable@channel stored from wreg
  5007   00293E  6E3C               	movwf	ADC_Enable@channel^0,c
  5008   002940                     
  5009                           ;../source/adc.c: 125: _Bool ADC_Enable(ADC_CHANNEL channel);../source/adc.c: 126: {;../
      +                          source/adc.c: 127:     switch(channel)
  5010   002940  EFB7  F014         	goto	l1347
  5011   002944                     l85:
  5012                           
  5013                           ;../source/adc.c: 130:             TRISAbits.TRISA0 = 1;
  5014   002944  8092               	bsf	146,0,c	;volatile
  5015                           
  5016                           ;../source/adc.c: 131:             return 1;;	Return value of _ADC_Enable is never used
  5017   002946  EFE0  F014         	goto	l86
  5018   00294A                     l87:
  5019                           
  5020                           ;../source/adc.c: 133:             TRISAbits.TRISA1 = 1;
  5021   00294A  8292               	bsf	146,1,c	;volatile
  5022                           
  5023                           ;../source/adc.c: 134:             return 1;;	Return value of _ADC_Enable is never used
  5024   00294C  EFE0  F014         	goto	l86
  5025   002950                     l88:
  5026                           
  5027                           ;../source/adc.c: 136:             TRISAbits.TRISA2 = 1;
  5028   002950  8492               	bsf	146,2,c	;volatile
  5029                           
  5030                           ;../source/adc.c: 137:             return 1;;	Return value of _ADC_Enable is never used
  5031   002952  EFE0  F014         	goto	l86
  5032   002956                     l89:
  5033                           
  5034                           ;../source/adc.c: 139:             TRISAbits.TRISA3 = 1;
  5035   002956  8692               	bsf	146,3,c	;volatile
  5036                           
  5037                           ;../source/adc.c: 140:             return 1;;	Return value of _ADC_Enable is never used
  5038   002958  EFE0  F014         	goto	l86
  5039   00295C                     l90:
  5040                           
  5041                           ;../source/adc.c: 142:             TRISAbits.TRISA5 = 1;
  5042   00295C  8A92               	bsf	146,5,c	;volatile
  5043                           
  5044                           ;../source/adc.c: 143:             return 1;;	Return value of _ADC_Enable is never used
  5045   00295E  EFE0  F014         	goto	l86
  5046   002962                     l91:
  5047                           
  5048                           ;../source/adc.c: 145:             TRISEbits.TRISE0 = 1;
  5049   002962  8096               	bsf	150,0,c	;volatile
  5050                           
  5051                           ;../source/adc.c: 146:             return 1;;	Return value of _ADC_Enable is never used
  5052   002964  EFE0  F014         	goto	l86
  5053   002968                     l92:
  5054                           
  5055                           ;../source/adc.c: 148:             TRISEbits.TRISE1 = 1;
  5056   002968  8296               	bsf	150,1,c	;volatile
  5057                           
  5058                           ;../source/adc.c: 149:             return 1;;	Return value of _ADC_Enable is never used
  5059   00296A  EFE0  F014         	goto	l86
  5060   00296E                     l1347:
  5061   00296E  503C               	movf	ADC_Enable@channel^0,w,c
  5062   002970  6E3A               	movwf	??_ADC_Enable^0,c
  5063   002972  6A3B               	clrf	(??_ADC_Enable+1)^0,c
  5064                           
  5065                           ; Switch on 2 bytes has been partitioned into a top level switch of size 1, and 1 sub-sw
      +                          itches
  5066                           ; Switch size 1, requested type "simple"
  5067                           ; Number of cases is 1, Range of values is 0 to 0
  5068                           ; switch strategies available:
  5069                           ; Name         Instructions Cycles
  5070                           ; simple_byte            4     3 (average)
  5071                           ;	Chosen strategy is simple_byte
  5072   002974  503B               	movf	(??_ADC_Enable+1)^0,w,c
  5073   002976  0A00               	xorlw	0	; case 0
  5074   002978  B4D8               	btfsc	status,2,c
  5075   00297A  EFC1  F014         	goto	l3813
  5076   00297E  EFE0  F014         	goto	l86
  5077   002982                     l3813:
  5078                           
  5079                           ; Switch size 1, requested type "simple"
  5080                           ; Number of cases is 7, Range of values is 0 to 6
  5081                           ; switch strategies available:
  5082                           ; Name         Instructions Cycles
  5083                           ; simple_byte           22    12 (average)
  5084                           ;	Chosen strategy is simple_byte
  5085   002982  503A               	movf	??_ADC_Enable^0,w,c
  5086   002984  0A00               	xorlw	0	; case 0
  5087   002986  B4D8               	btfsc	status,2,c
  5088   002988  EFA2  F014         	goto	l85
  5089   00298C  0A01               	xorlw	1	; case 1
  5090   00298E  B4D8               	btfsc	status,2,c
  5091   002990  EFA5  F014         	goto	l87
  5092   002994  0A03               	xorlw	3	; case 2
  5093   002996  B4D8               	btfsc	status,2,c
  5094   002998  EFA8  F014         	goto	l88
  5095   00299C  0A01               	xorlw	1	; case 3
  5096   00299E  B4D8               	btfsc	status,2,c
  5097   0029A0  EFAB  F014         	goto	l89
  5098   0029A4  0A07               	xorlw	7	; case 4
  5099   0029A6  B4D8               	btfsc	status,2,c
  5100   0029A8  EFAE  F014         	goto	l90
  5101   0029AC  0A01               	xorlw	1	; case 5
  5102   0029AE  B4D8               	btfsc	status,2,c
  5103   0029B0  EFB1  F014         	goto	l91
  5104   0029B4  0A03               	xorlw	3	; case 6
  5105   0029B6  B4D8               	btfsc	status,2,c
  5106   0029B8  EFB4  F014         	goto	l92
  5107   0029BC  EFE0  F014         	goto	l86
  5108   0029C0                     l86:
  5109   0029C0  0012               	return		;funcret
  5110   0029C2                     __end_of_ADC_Enable:
  5111                           	callstack 0
  5112                           
  5113 ;; *************** function _APP_DeviceJoystickInitialize *****************
  5114 ;; Defined at:
  5115 ;;		line 117 in file "../source/app_device_joystick.c"
  5116 ;; Parameters:    Size  Location     Type
  5117 ;;		None
  5118 ;; Auto vars:     Size  Location     Type
  5119 ;;		None
  5120 ;; Return value:  Size  Location     Type
  5121 ;;                  1    wreg      void 
  5122 ;; Registers used:
  5123 ;;		wreg, fsr2l, fsr2h, status,2, status,0, prodl, prodh, cstack
  5124 ;; Tracked objects:
  5125 ;;		On entry : 0/0
  5126 ;;		On exit  : 0/0
  5127 ;;		Unchanged: 0/0
  5128 ;; Data sizes:     COMRAM   BANK0   BANK1   BANK2   BANK3   BANK4   BANK5   BANK6   BANK7
  5129 ;;      Params:         0       0       0       0       0       0       0       0       0
  5130 ;;      Locals:         0       0       0       0       0       0       0       0       0
  5131 ;;      Temps:          0       0       0       0       0       0       0       0       0
  5132 ;;      Totals:         0       0       0       0       0       0       0       0       0
  5133 ;;Total ram usage:        0 bytes
  5134 ;; Hardware stack levels used: 1
  5135 ;; Hardware stack levels required when called: 3
  5136 ;; This function calls:
  5137 ;;		_USBEnableEndpoint
  5138 ;; This function is called by:
  5139 ;;		_USER_USB_CALLBACK_EVENT_HANDLER
  5140 ;; This function uses a non-reentrant model
  5141 ;;
  5142                           
  5143                           	psect	text24
  5144   002CCC                     __ptext24:
  5145                           	callstack 0
  5146   002CCC                     _APP_DeviceJoystickInitialize:
  5147                           	callstack 25
  5148   002CCC                     
  5149                           ;../source/app_device_joystick.c: 121:     lastTransmission = 0;
  5150   002CCC  0E00               	movlw	0
  5151   002CCE  6E1B               	movwf	_lastTransmission^0,c
  5152   002CD0  0E00               	movlw	0
  5153   002CD2  6E1C               	movwf	(_lastTransmission+1)^0,c
  5154   002CD4                     
  5155                           ;../source/app_device_joystick.c: 124:     USBEnableEndpoint(1,0x02|0x10|0x08);
  5156   002CD4  0E1A               	movlw	26
  5157   002CD6  6E44               	movwf	USBEnableEndpoint@options^0,c
  5158   002CD8  0E01               	movlw	1
  5159   002CDA  ECB2  F015         	call	_USBEnableEndpoint
  5160   002CDE  0012               	return		;funcret
  5161   002CE0                     __end_of_APP_DeviceJoystickInitialize:
  5162                           	callstack 0
  5163                           
  5164 ;; *************** function _USBEnableEndpoint *****************
  5165 ;; Defined at:
  5166 ;;		line 838 in file "../source/usb/usb_device.c"
  5167 ;; Parameters:    Size  Location     Type
  5168 ;;  ep              1    wreg     unsigned char 
  5169 ;;  options         1   10[COMRAM] unsigned char 
  5170 ;; Auto vars:     Size  Location     Type
  5171 ;;  ep              1   13[COMRAM] unsigned char 
  5172 ;;  p               2   11[COMRAM] PTR unsigned char 
  5173 ;;		 -> UEP0(1), 
  5174 ;; Return value:  Size  Location     Type
  5175 ;;                  1    wreg      void 
  5176 ;; Registers used:
  5177 ;;		wreg, fsr2l, fsr2h, status,2, status,0, prodl, prodh, cstack
  5178 ;; Tracked objects:
  5179 ;;		On entry : 0/0
  5180 ;;		On exit  : 0/0
  5181 ;;		Unchanged: 0/0
  5182 ;; Data sizes:     COMRAM   BANK0   BANK1   BANK2   BANK3   BANK4   BANK5   BANK6   BANK7
  5183 ;;      Params:         1       0       0       0       0       0       0       0       0
  5184 ;;      Locals:         3       0       0       0       0       0       0       0       0
  5185 ;;      Temps:          0       0       0       0       0       0       0       0       0
  5186 ;;      Totals:         4       0       0       0       0       0       0       0       0
  5187 ;;Total ram usage:        4 bytes
  5188 ;; Hardware stack levels used: 1
  5189 ;; Hardware stack levels required when called: 2
  5190 ;; This function calls:
  5191 ;;		_USBConfigureEndpoint
  5192 ;; This function is called by:
  5193 ;;		_APP_DeviceJoystickInitialize
  5194 ;; This function uses a non-reentrant model
  5195 ;;
  5196                           
  5197                           	psect	text25
  5198   002B64                     __ptext25:
  5199                           	callstack 0
  5200   002B64                     _USBEnableEndpoint:
  5201                           	callstack 25
  5202                           
  5203                           ;incstack = 0
  5204                           ;USBEnableEndpoint@ep stored from wreg
  5205   002B64  6E47               	movwf	USBEnableEndpoint@ep^0,c
  5206   002B66                     
  5207                           ;../source/usb/usb_device.c: 838: void USBEnableEndpoint(uint8_t ep, uint8_t options);..
      +                          /source/usb/usb_device.c: 839: {;../source/usb/usb_device.c: 840:     unsigned char* p;;
      +                          ../source/usb/usb_device.c: 844:     if(options & 0x04)
  5208   002B66  A444               	btfss	USBEnableEndpoint@options^0,2,c
  5209   002B68  EFB8  F015         	goto	u1991
  5210   002B6C  EFBA  F015         	goto	u1990
  5211   002B70                     u1991:
  5212   002B70  EFBF  F015         	goto	l2839
  5213   002B74                     u1990:
  5214   002B74                     
  5215                           ;../source/usb/usb_device.c: 845:     {;../source/usb/usb_device.c: 846:         USBConf
      +                          igureEndpoint(ep, 0);
  5216   002B74  0E00               	movlw	0
  5217   002B76  6E3A               	movwf	USBConfigureEndpoint@direction^0,c
  5218   002B78  5047               	movf	USBEnableEndpoint@ep^0,w,c
  5219   002B7A  ECC5  F012         	call	_USBConfigureEndpoint
  5220   002B7E                     l2839:
  5221                           
  5222                           ;../source/usb/usb_device.c: 848:     if(options & 0x02)
  5223   002B7E  A244               	btfss	USBEnableEndpoint@options^0,1,c
  5224   002B80  EFC4  F015         	goto	u2001
  5225   002B84  EFC6  F015         	goto	u2000
  5226   002B88                     u2001:
  5227   002B88  EFCB  F015         	goto	l2843
  5228   002B8C                     u2000:
  5229   002B8C                     
  5230                           ;../source/usb/usb_device.c: 849:     {;../source/usb/usb_device.c: 850:         USBConf
      +                          igureEndpoint(ep, 1);
  5231   002B8C  0E01               	movlw	1
  5232   002B8E  6E3A               	movwf	USBConfigureEndpoint@direction^0,c
  5233   002B90  5047               	movf	USBEnableEndpoint@ep^0,w,c
  5234   002B92  ECC5  F012         	call	_USBConfigureEndpoint
  5235   002B96                     l2843:
  5236                           
  5237                           ;../source/usb/usb_device.c: 859:         p = (unsigned char*)(&UEP0+ep);
  5238   002B96  0E70               	movlw	112
  5239   002B98  2447               	addwf	USBEnableEndpoint@ep^0,w,c
  5240   002B9A  6E45               	movwf	USBEnableEndpoint@p^0,c
  5241   002B9C  6A46               	clrf	(USBEnableEndpoint@p+1)^0,c
  5242   002B9E  0E0F               	movlw	15
  5243   002BA0  2246               	addwfc	(USBEnableEndpoint@p+1)^0,f,c
  5244   002BA2                     
  5245                           ;../source/usb/usb_device.c: 861:     *p = options;
  5246   002BA2  C045  FFD9         	movff	USBEnableEndpoint@p,fsr2l
  5247   002BA6  C046  FFDA         	movff	USBEnableEndpoint@p+1,fsr2h
  5248   002BAA  C044  FFDF         	movff	USBEnableEndpoint@options,indf2
  5249   002BAE  0012               	return		;funcret
  5250   002BB0                     __end_of_USBEnableEndpoint:
  5251                           	callstack 0
  5252                           
  5253 ;; *************** function _USBConfigureEndpoint *****************
  5254 ;; Defined at:
  5255 ;;		line 1503 in file "../source/usb/usb_device.c"
  5256 ;; Parameters:    Size  Location     Type
  5257 ;;  EPNum           1    wreg     unsigned char 
  5258 ;;  direction       1    0[COMRAM] unsigned char 
  5259 ;; Auto vars:     Size  Location     Type
  5260 ;;  EPNum           1    7[COMRAM] unsigned char 
  5261 ;;  handle          2    8[COMRAM] PTR volatile struct __BD
  5262 ;;		 -> BDT(32), 
  5263 ;; Return value:  Size  Location     Type
  5264 ;;                  1    wreg      void 
  5265 ;; Registers used:
  5266 ;;		wreg, fsr2l, fsr2h, status,2, status,0, prodl, prodh
  5267 ;; Tracked objects:
  5268 ;;		On entry : 0/0
  5269 ;;		On exit  : 0/0
  5270 ;;		Unchanged: 0/0
  5271 ;; Data sizes:     COMRAM   BANK0   BANK1   BANK2   BANK3   BANK4   BANK5   BANK6   BANK7
  5272 ;;      Params:         1       0       0       0       0       0       0       0       0
  5273 ;;      Locals:         3       0       0       0       0       0       0       0       0
  5274 ;;      Temps:          6       0       0       0       0       0       0       0       0
  5275 ;;      Totals:        10       0       0       0       0       0       0       0       0
  5276 ;;Total ram usage:       10 bytes
  5277 ;; Hardware stack levels used: 1
  5278 ;; Hardware stack levels required when called: 1
  5279 ;; This function calls:
  5280 ;;		Nothing
  5281 ;; This function is called by:
  5282 ;;		_USBEnableEndpoint
  5283 ;; This function uses a non-reentrant model
  5284 ;;
  5285                           
  5286                           	psect	text26
  5287   00258A                     __ptext26:
  5288                           	callstack 0
  5289   00258A                     _USBConfigureEndpoint:
  5290                           	callstack 25
  5291                           
  5292                           ;incstack = 0
  5293                           ;USBConfigureEndpoint@EPNum stored from wreg
  5294   00258A  6E41               	movwf	USBConfigureEndpoint@EPNum^0,c
  5295   00258C                     
  5296                           ;../source/usb/usb_device.c: 1503: static void USBConfigureEndpoint(uint8_t EPNum, uint8
      +                          _t direction);../source/usb/usb_device.c: 1504: {;../source/usb/usb_device.c: 1505:     
      +                          volatile BDT_ENTRY* handle;;../source/usb/usb_device.c: 1509:     handle = (volatile BDT
      +                          _ENTRY*)&BDT[0];
  5297   00258C  0E00               	movlw	0
  5298   00258E  6E42               	movwf	USBConfigureEndpoint@handle^0,c
  5299   002590  0E04               	movlw	4
  5300   002592  6E43               	movwf	(USBConfigureEndpoint@handle+1)^0,c
  5301   002594                     
  5302                           ;../source/usb/usb_device.c: 1510:     handle += (4*EPNum+2*direction+0u);
  5303   002594  503A               	movf	USBConfigureEndpoint@direction^0,w,c
  5304   002596  6E3B               	movwf	??_USBConfigureEndpoint^0,c
  5305   002598  6A3C               	clrf	(??_USBConfigureEndpoint+1)^0,c
  5306   00259A  90D8               	bcf	status,0,c
  5307   00259C  363B               	rlcf	??_USBConfigureEndpoint^0,f,c
  5308   00259E  363C               	rlcf	(??_USBConfigureEndpoint+1)^0,f,c
  5309   0025A0  5041               	movf	USBConfigureEndpoint@EPNum^0,w,c
  5310   0025A2  6E3D               	movwf	(??_USBConfigureEndpoint+2)^0,c
  5311   0025A4  6A3E               	clrf	(??_USBConfigureEndpoint+3)^0,c
  5312   0025A6  90D8               	bcf	status,0,c
  5313   0025A8  363D               	rlcf	(??_USBConfigureEndpoint+2)^0,f,c
  5314   0025AA  363E               	rlcf	(??_USBConfigureEndpoint+3)^0,f,c
  5315   0025AC  90D8               	bcf	status,0,c
  5316   0025AE  363D               	rlcf	(??_USBConfigureEndpoint+2)^0,f,c
  5317   0025B0  363E               	rlcf	(??_USBConfigureEndpoint+3)^0,f,c
  5318   0025B2  503B               	movf	??_USBConfigureEndpoint^0,w,c
  5319   0025B4  243D               	addwf	(??_USBConfigureEndpoint+2)^0,w,c
  5320   0025B6  6E3F               	movwf	(??_USBConfigureEndpoint+4)^0,c
  5321   0025B8  503C               	movf	(??_USBConfigureEndpoint+1)^0,w,c
  5322   0025BA  203E               	addwfc	(??_USBConfigureEndpoint+3)^0,w,c
  5323   0025BC  6E40               	movwf	(??_USBConfigureEndpoint+5)^0,c
  5324   0025BE  90D8               	bcf	status,0,c
  5325   0025C0  363F               	rlcf	(??_USBConfigureEndpoint+4)^0,f,c
  5326   0025C2  3640               	rlcf	(??_USBConfigureEndpoint+5)^0,f,c
  5327   0025C4  90D8               	bcf	status,0,c
  5328   0025C6  363F               	rlcf	(??_USBConfigureEndpoint+4)^0,f,c
  5329   0025C8  3640               	rlcf	(??_USBConfigureEndpoint+5)^0,f,c
  5330   0025CA  503F               	movf	(??_USBConfigureEndpoint+4)^0,w,c
  5331   0025CC  2642               	addwf	USBConfigureEndpoint@handle^0,f,c
  5332   0025CE  5040               	movf	(??_USBConfigureEndpoint+5)^0,w,c
  5333   0025D0  2243               	addwfc	(USBConfigureEndpoint@handle+1)^0,f,c
  5334   0025D2                     
  5335                           ;../source/usb/usb_device.c: 1512:     handle->STAT.UOWN = 0;
  5336   0025D2  C042  FFD9         	movff	USBConfigureEndpoint@handle,fsr2l
  5337   0025D6  C043  FFDA         	movff	USBConfigureEndpoint@handle+1,fsr2h
  5338   0025DA  9EDF               	bcf	indf2,7,c
  5339   0025DC                     
  5340                           ;../source/usb/usb_device.c: 1517:     if(direction == 0)
  5341   0025DC  503A               	movf	USBConfigureEndpoint@direction^0,w,c
  5342   0025DE  A4D8               	btfss	status,2,c
  5343   0025E0  EFF4  F012         	goto	u1981
  5344   0025E4  EFF6  F012         	goto	u1980
  5345   0025E8                     u1981:
  5346   0025E8  EF04  F013         	goto	l2829
  5347   0025EC                     u1980:
  5348   0025EC                     
  5349                           ;../source/usb/usb_device.c: 1518:     {;../source/usb/usb_device.c: 1519:         pBDTE
      +                          ntryOut[EPNum] = handle;
  5350   0025EC  5041               	movf	USBConfigureEndpoint@EPNum^0,w,c
  5351   0025EE  0D02               	mullw	2
  5352   0025F0  0E17               	movlw	low _pBDTEntryOut
  5353   0025F2  24F3               	addwf	243,w,c
  5354   0025F4  6ED9               	movwf	fsr2l,c
  5355   0025F6  0E00               	movlw	high _pBDTEntryOut
  5356   0025F8  20F4               	addwfc	prodh,w,c
  5357   0025FA  6EDA               	movwf	fsr2h,c
  5358   0025FC  C042  FFDE         	movff	USBConfigureEndpoint@handle,postinc2
  5359   002600  C043  FFDD         	movff	USBConfigureEndpoint@handle+1,postdec2
  5360                           
  5361                           ;../source/usb/usb_device.c: 1520:     }
  5362   002604  EF10  F013         	goto	l2831
  5363   002608                     l2829:
  5364                           
  5365                           ;../source/usb/usb_device.c: 1522:     {;../source/usb/usb_device.c: 1523:         pBDTE
      +                          ntryIn[EPNum] = handle;
  5366   002608  5041               	movf	USBConfigureEndpoint@EPNum^0,w,c
  5367   00260A  0D02               	mullw	2
  5368   00260C  0E13               	movlw	low _pBDTEntryIn
  5369   00260E  24F3               	addwf	243,w,c
  5370   002610  6ED9               	movwf	fsr2l,c
  5371   002612  0E00               	movlw	high _pBDTEntryIn
  5372   002614  20F4               	addwfc	prodh,w,c
  5373   002616  6EDA               	movwf	fsr2h,c
  5374   002618  C042  FFDE         	movff	USBConfigureEndpoint@handle,postinc2
  5375   00261C  C043  FFDD         	movff	USBConfigureEndpoint@handle+1,postdec2
  5376   002620                     l2831:
  5377                           
  5378                           ;../source/usb/usb_device.c: 1527:         handle->STAT.DTS = 0;
  5379   002620  C042  FFD9         	movff	USBConfigureEndpoint@handle,fsr2l
  5380   002624  C043  FFDA         	movff	USBConfigureEndpoint@handle+1,fsr2h
  5381   002628  9CDF               	bcf	indf2,6,c
  5382   00262A                     
  5383                           ;../source/usb/usb_device.c: 1528:         (handle+1)->STAT.DTS = 1;
  5384   00262A  EE20 F004          	lfsr	2,4
  5385   00262E  5042               	movf	USBConfigureEndpoint@handle^0,w,c
  5386   002630  26D9               	addwf	fsr2l,f,c
  5387   002632  5043               	movf	(USBConfigureEndpoint@handle+1)^0,w,c
  5388   002634  22DA               	addwfc	fsr2h,f,c
  5389   002636  8CDF               	bsf	indf2,6,c
  5390   002638  0012               	return		;funcret
  5391   00263A                     __end_of_USBConfigureEndpoint:
  5392                           	callstack 0
  5393                           
  5394 ;; *************** function _USBCtrlTrfOutHandler *****************
  5395 ;; Defined at:
  5396 ;;		line 2501 in file "../source/usb/usb_device.c"
  5397 ;; Parameters:    Size  Location     Type
  5398 ;;		None
  5399 ;; Auto vars:     Size  Location     Type
  5400 ;;		None
  5401 ;; Return value:  Size  Location     Type
  5402 ;;                  1    wreg      void 
  5403 ;; Registers used:
  5404 ;;		wreg, fsr1l, fsr1h, fsr2l, fsr2h, status,2, status,0, cstack
  5405 ;; Tracked objects:
  5406 ;;		On entry : 0/0
  5407 ;;		On exit  : 0/0
  5408 ;;		Unchanged: 0/0
  5409 ;; Data sizes:     COMRAM   BANK0   BANK1   BANK2   BANK3   BANK4   BANK5   BANK6   BANK7
  5410 ;;      Params:         0       0       0       0       0       0       0       0       0
  5411 ;;      Locals:         0       0       0       0       0       0       0       0       0
  5412 ;;      Temps:          0       0       0       0       0       0       0       0       0
  5413 ;;      Totals:         0       0       0       0       0       0       0       0       0
  5414 ;;Total ram usage:        0 bytes
  5415 ;; Hardware stack levels used: 1
  5416 ;; Hardware stack levels required when called: 3
  5417 ;; This function calls:
  5418 ;;		_USBCtrlTrfRxService
  5419 ;; This function is called by:
  5420 ;;		_USBCtrlEPService
  5421 ;; This function uses a non-reentrant model
  5422 ;;
  5423                           
  5424                           	psect	text27
  5425   002A40                     __ptext27:
  5426                           	callstack 0
  5427   002A40                     _USBCtrlTrfOutHandler:
  5428                           	callstack 25
  5429   002A40                     
  5430                           ;../source/usb/usb_device.c: 2503:     if(controlTransferState == 2)
  5431   002A40  0E02               	movlw	2
  5432   002A42  1832               	xorwf	_controlTransferState^0,w,c
  5433   002A44  A4D8               	btfss	status,2,c
  5434   002A46  EF27  F015         	goto	u761
  5435   002A4A  EF29  F015         	goto	u760
  5436   002A4E                     u761:
  5437   002A4E  EF2D  F015         	goto	l2039
  5438   002A52                     u760:
  5439   002A52                     
  5440                           ;../source/usb/usb_device.c: 2504:     {;../source/usb/usb_device.c: 2505:         USBCt
      +                          rlTrfRxService();
  5441   002A52  EC7A  F00C         	call	_USBCtrlTrfRxService	;wreg free
  5442                           
  5443                           ;../source/usb/usb_device.c: 2506:     }
  5444   002A56  EF59  F015         	goto	l417
  5445   002A5A                     l2039:
  5446                           
  5447                           ;../source/usb/usb_device.c: 2508:     {;../source/usb/usb_device.c: 2511:         contr
      +                          olTransferState = 0;
  5448   002A5A  0E00               	movlw	0
  5449   002A5C  6E32               	movwf	_controlTransferState^0,c
  5450                           
  5451                           ;../source/usb/usb_device.c: 2518:         if(BothEP0OutUOWNsSet == 0)
  5452   002A5E  502E               	movf	_BothEP0OutUOWNsSet^0,w,c
  5453   002A60  A4D8               	btfss	status,2,c
  5454   002A62  EF35  F015         	goto	u771
  5455   002A66  EF37  F015         	goto	u770
  5456   002A6A                     u771:
  5457   002A6A  EF57  F015         	goto	l2047
  5458   002A6E                     u770:
  5459   002A6E                     
  5460                           ;../source/usb/usb_device.c: 2519:         {;../source/usb/usb_device.c: 2520:          
      +                             pBDTEntryEP0OutNext->CNT = 8;
  5461   002A6E  EE20 F001          	lfsr	2,1
  5462   002A72  5023               	movf	_pBDTEntryEP0OutNext^0,w,c
  5463   002A74  26D9               	addwf	fsr2l,f,c
  5464   002A76  5024               	movf	(_pBDTEntryEP0OutNext+1)^0,w,c
  5465   002A78  22DA               	addwfc	fsr2h,f,c
  5466   002A7A  0E08               	movlw	8
  5467   002A7C  6EDF               	movwf	indf2,c
  5468                           
  5469                           ;../source/usb/usb_device.c: 2521:             pBDTEntryEP0OutNext->ADR = ((uint16_t)(&S
      +                          etupPkt));
  5470   002A7E  EE20 F002          	lfsr	2,2
  5471   002A82  5023               	movf	_pBDTEntryEP0OutNext^0,w,c
  5472   002A84  26D9               	addwf	fsr2l,f,c
  5473   002A86  5024               	movf	(_pBDTEntryEP0OutNext+1)^0,w,c
  5474   002A88  22DA               	addwfc	fsr2h,f,c
  5475   002A8A  0E20               	movlw	32
  5476   002A8C  6EDE               	movwf	postinc2,c
  5477   002A8E  0E04               	movlw	4
  5478   002A90  6EDD               	movwf	postdec2,c
  5479   002A92                     
  5480                           ;../source/usb/usb_device.c: 2522:             pBDTEntryEP0OutNext->STAT.Val = 0x00|(0x0
      +                          8 & 0x08)|0x04;
  5481   002A92  C023  FFD9         	movff	_pBDTEntryEP0OutNext,fsr2l
  5482   002A96  C024  FFDA         	movff	_pBDTEntryEP0OutNext+1,fsr2h
  5483   002A9A  0E0C               	movlw	12
  5484   002A9C  6EDF               	movwf	indf2,c
  5485   002A9E                     
  5486                           ;../source/usb/usb_device.c: 2523:             pBDTEntryEP0OutNext->STAT.Val |= 0x80;
  5487   002A9E  C023  FFD9         	movff	_pBDTEntryEP0OutNext,fsr2l
  5488   002AA2  C024  FFDA         	movff	_pBDTEntryEP0OutNext+1,fsr2h
  5489   002AA6  0E00               	movlw	0
  5490   002AA8  8EDB               	bsf	plusw2,7,c
  5491                           
  5492                           ;../source/usb/usb_device.c: 2524:         }
  5493   002AAA  EF59  F015         	goto	l417
  5494   002AAE                     l2047:
  5495                           
  5496                           ;../source/usb/usb_device.c: 2526:         {;../source/usb/usb_device.c: 2527:          
      +                             BothEP0OutUOWNsSet = 0;
  5497   002AAE  0E00               	movlw	0
  5498   002AB0  6E2E               	movwf	_BothEP0OutUOWNsSet^0,c
  5499   002AB2                     l417:
  5500   002AB2  0012               	return		;funcret
  5501   002AB4                     __end_of_USBCtrlTrfOutHandler:
  5502                           	callstack 0
  5503                           
  5504 ;; *************** function _USBCtrlTrfRxService *****************
  5505 ;; Defined at:
  5506 ;;		line 1812 in file "../source/usb/usb_device.c"
  5507 ;; Parameters:    Size  Location     Type
  5508 ;;		None
  5509 ;; Auto vars:     Size  Location     Type
  5510 ;;  byteToRead      1    1[COMRAM] unsigned char 
  5511 ;;  i               1    0[COMRAM] unsigned char 
  5512 ;; Return value:  Size  Location     Type
  5513 ;;                  1    wreg      void 
  5514 ;; Registers used:
  5515 ;;		wreg, fsr1l, fsr1h, fsr2l, fsr2h, status,2, status,0, cstack
  5516 ;; Tracked objects:
  5517 ;;		On entry : 0/0
  5518 ;;		On exit  : 0/0
  5519 ;;		Unchanged: 0/0
  5520 ;; Data sizes:     COMRAM   BANK0   BANK1   BANK2   BANK3   BANK4   BANK5   BANK6   BANK7
  5521 ;;      Params:         0       0       0       0       0       0       0       0       0
  5522 ;;      Locals:         2       0       0       0       0       0       0       0       0
  5523 ;;      Temps:          0       0       0       0       0       0       0       0       0
  5524 ;;      Totals:         2       0       0       0       0       0       0       0       0
  5525 ;;Total ram usage:        2 bytes
  5526 ;; Hardware stack levels used: 1
  5527 ;; Hardware stack levels required when called: 2
  5528 ;; This function calls:
  5529 ;;		_USBCtrlEPAllowStatusStage
  5530 ;; This function is called by:
  5531 ;;		_USBCtrlTrfOutHandler
  5532 ;; This function uses a non-reentrant model
  5533 ;;
  5534                           
  5535                           	psect	text28
  5536   0018F4                     __ptext28:
  5537                           	callstack 0
  5538   0018F4                     _USBCtrlTrfRxService:
  5539                           	callstack 25
  5540   0018F4                     
  5541                           ;../source/usb/usb_device.c: 1814:     uint8_t byteToRead;;../source/usb/usb_device.c: 1
      +                          815:     uint8_t i;;../source/usb/usb_device.c: 1819:     byteToRead = pBDTEntryEP0OutCu
      +                          rrent->CNT;
  5542   0018F4  EE20 F001          	lfsr	2,1
  5543   0018F8  5025               	movf	_pBDTEntryEP0OutCurrent^0,w,c
  5544   0018FA  26D9               	addwf	fsr2l,f,c
  5545   0018FC  5026               	movf	(_pBDTEntryEP0OutCurrent+1)^0,w,c
  5546   0018FE  22DA               	addwfc	fsr2h,f,c
  5547   001900  50DF               	movf	indf2,w,c
  5548   001902  6E3B               	movwf	USBCtrlTrfRxService@byteToRead^0,c
  5549   001904                     
  5550                           ;../source/usb/usb_device.c: 1825:     if(byteToRead > outPipes[0].wCount.Val)
  5551   001904  503B               	movf	USBCtrlTrfRxService@byteToRead^0,w,c
  5552   001906  5C05               	subwf	(_outPipes+4)^0,w,c
  5553   001908  0E00               	movlw	0
  5554   00190A  5806               	subwfb	(_outPipes+5)^0,w,c
  5555   00190C  B0D8               	btfsc	status,0,c
  5556   00190E  EF8B  F00C         	goto	u681
  5557   001912  EF8D  F00C         	goto	u680
  5558   001916                     u681:
  5559   001916  EF8F  F00C         	goto	l1891
  5560   00191A                     u680:
  5561   00191A                     
  5562                           ;../source/usb/usb_device.c: 1826:     {;../source/usb/usb_device.c: 1827:         byteT
      +                          oRead = outPipes[0].wCount.Val;
  5563   00191A  C005  F03B         	movff	_outPipes+4,USBCtrlTrfRxService@byteToRead
  5564   00191E                     l1891:
  5565                           
  5566                           ;../source/usb/usb_device.c: 1830:     outPipes[0].wCount.Val -= byteToRead;
  5567   00191E  503B               	movf	USBCtrlTrfRxService@byteToRead^0,w,c
  5568   001920  5E05               	subwf	(_outPipes+4)^0,f,c
  5569   001922  0E00               	movlw	0
  5570   001924  5A06               	subwfb	(_outPipes+5)^0,f,c
  5571   001926                     
  5572                           ;../source/usb/usb_device.c: 1834:     for(i=0;i<byteToRead;i++)
  5573   001926  0E00               	movlw	0
  5574   001928  6E3A               	movwf	USBCtrlTrfRxService@i^0,c
  5575   00192A  EFA6  F00C         	goto	l1901
  5576   00192E                     l1895:
  5577                           
  5578                           ;../source/usb/usb_device.c: 1835:     {;../source/usb/usb_device.c: 1836:         *outP
      +                          ipes[0].pDst.bRam++ = CtrlTrfData[i];
  5579   00192E  0E28               	movlw	40
  5580   001930  243A               	addwf	USBCtrlTrfRxService@i^0,w,c
  5581   001932  6ED9               	movwf	fsr2l,c
  5582   001934  6ADA               	clrf	fsr2h,c
  5583   001936  0E04               	movlw	4
  5584   001938  22DA               	addwfc	fsr2h,f,c
  5585   00193A  C001  FFE1         	movff	_outPipes,fsr1l
  5586   00193E  C002  FFE2         	movff	_outPipes+1,fsr1h
  5587   001942  CFDF FFE7          	movff	indf2,indf1
  5588   001946  4A01               	infsnz	_outPipes^0,f,c
  5589   001948  2A02               	incf	(_outPipes+1)^0,f,c
  5590   00194A                     
  5591                           ;../source/usb/usb_device.c: 1837:     }
  5592   00194A  2A3A               	incf	USBCtrlTrfRxService@i^0,f,c
  5593   00194C                     l1901:
  5594   00194C  503B               	movf	USBCtrlTrfRxService@byteToRead^0,w,c
  5595   00194E  5C3A               	subwf	USBCtrlTrfRxService@i^0,w,c
  5596   001950  A0D8               	btfss	status,0,c
  5597   001952  EFAD  F00C         	goto	u691
  5598   001956  EFAF  F00C         	goto	u690
  5599   00195A                     u691:
  5600   00195A  EF97  F00C         	goto	l1895
  5601   00195E                     u690:
  5602   00195E                     
  5603                           ;../source/usb/usb_device.c: 1841:     if(outPipes[0].wCount.Val > 0)
  5604   00195E  5005               	movf	(_outPipes+4)^0,w,c
  5605   001960  1006               	iorwf	(_outPipes+5)^0,w,c
  5606   001962  B4D8               	btfsc	status,2,c
  5607   001964  EFB6  F00C         	goto	u701
  5608   001968  EFB8  F00C         	goto	u700
  5609   00196C                     u701:
  5610   00196C  EFF1  F00C         	goto	l1917
  5611   001970                     u700:
  5612   001970                     
  5613                           ;../source/usb/usb_device.c: 1842:     {;../source/usb/usb_device.c: 1843:         pBDTE
      +                          ntryEP0OutNext->CNT = 8;
  5614   001970  EE20 F001          	lfsr	2,1
  5615   001974  5023               	movf	_pBDTEntryEP0OutNext^0,w,c
  5616   001976  26D9               	addwf	fsr2l,f,c
  5617   001978  5024               	movf	(_pBDTEntryEP0OutNext+1)^0,w,c
  5618   00197A  22DA               	addwfc	fsr2h,f,c
  5619   00197C  0E08               	movlw	8
  5620   00197E  6EDF               	movwf	indf2,c
  5621                           
  5622                           ;../source/usb/usb_device.c: 1844:         pBDTEntryEP0OutNext->ADR = ((uint16_t)(&CtrlT
      +                          rfData));
  5623   001980  EE20 F002          	lfsr	2,2
  5624   001984  5023               	movf	_pBDTEntryEP0OutNext^0,w,c
  5625   001986  26D9               	addwf	fsr2l,f,c
  5626   001988  5024               	movf	(_pBDTEntryEP0OutNext+1)^0,w,c
  5627   00198A  22DA               	addwfc	fsr2h,f,c
  5628   00198C  0E28               	movlw	40
  5629   00198E  6EDE               	movwf	postinc2,c
  5630   001990  0E04               	movlw	4
  5631   001992  6EDD               	movwf	postdec2,c
  5632   001994                     
  5633                           ;../source/usb/usb_device.c: 1845:         if(pBDTEntryEP0OutCurrent->STAT.DTS == 0)
  5634   001994  C025  FFD9         	movff	_pBDTEntryEP0OutCurrent,fsr2l
  5635   001998  C026  FFDA         	movff	_pBDTEntryEP0OutCurrent+1,fsr2h
  5636   00199C  BCDF               	btfsc	indf2,6,c
  5637   00199E  EFD3  F00C         	goto	u711
  5638   0019A2  EFD5  F00C         	goto	u710
  5639   0019A6                     u711:
  5640   0019A6  EFE3  F00C         	goto	l1913
  5641   0019AA                     u710:
  5642   0019AA                     
  5643                           ;../source/usb/usb_device.c: 1846:         {;../source/usb/usb_device.c: 1847:          
      +                             pBDTEntryEP0OutNext->STAT.Val = 0x40|(0x08 & 0x08);
  5644   0019AA  C023  FFD9         	movff	_pBDTEntryEP0OutNext,fsr2l
  5645   0019AE  C024  FFDA         	movff	_pBDTEntryEP0OutNext+1,fsr2h
  5646   0019B2  0E48               	movlw	72
  5647   0019B4  6EDF               	movwf	indf2,c
  5648   0019B6                     
  5649                           ;../source/usb/usb_device.c: 1848:             pBDTEntryEP0OutNext->STAT.Val |= 0x80;
  5650   0019B6  C023  FFD9         	movff	_pBDTEntryEP0OutNext,fsr2l
  5651   0019BA  C024  FFDA         	movff	_pBDTEntryEP0OutNext+1,fsr2h
  5652   0019BE  0E00               	movlw	0
  5653   0019C0  8EDB               	bsf	plusw2,7,c
  5654                           
  5655                           ;../source/usb/usb_device.c: 1849:         }
  5656   0019C2  EF1A  F00D         	goto	l349
  5657   0019C6                     l1913:
  5658                           
  5659                           ;../source/usb/usb_device.c: 1851:         {;../source/usb/usb_device.c: 1852:          
      +                             pBDTEntryEP0OutNext->STAT.Val = 0x00|(0x08 & 0x08);
  5660   0019C6  C023  FFD9         	movff	_pBDTEntryEP0OutNext,fsr2l
  5661   0019CA  C024  FFDA         	movff	_pBDTEntryEP0OutNext+1,fsr2h
  5662   0019CE  0E08               	movlw	8
  5663   0019D0  6EDF               	movwf	indf2,c
  5664   0019D2                     
  5665                           ;../source/usb/usb_device.c: 1853:             pBDTEntryEP0OutNext->STAT.Val |= 0x80;
  5666   0019D2  C023  FFD9         	movff	_pBDTEntryEP0OutNext,fsr2l
  5667   0019D6  C024  FFDA         	movff	_pBDTEntryEP0OutNext+1,fsr2h
  5668   0019DA  0E00               	movlw	0
  5669   0019DC  8EDB               	bsf	plusw2,7,c
  5670   0019DE  EF1A  F00D         	goto	l349
  5671   0019E2                     l1917:
  5672                           
  5673                           ;../source/usb/usb_device.c: 1857:     {;../source/usb/usb_device.c: 1861:         pBDTE
      +                          ntryEP0OutNext->CNT = 8;
  5674   0019E2  EE20 F001          	lfsr	2,1
  5675   0019E6  5023               	movf	_pBDTEntryEP0OutNext^0,w,c
  5676   0019E8  26D9               	addwf	fsr2l,f,c
  5677   0019EA  5024               	movf	(_pBDTEntryEP0OutNext+1)^0,w,c
  5678   0019EC  22DA               	addwfc	fsr2h,f,c
  5679   0019EE  0E08               	movlw	8
  5680   0019F0  6EDF               	movwf	indf2,c
  5681                           
  5682                           ;../source/usb/usb_device.c: 1862:         pBDTEntryEP0OutNext->ADR = ((uint16_t)(&Setup
      +                          Pkt));
  5683   0019F2  EE20 F002          	lfsr	2,2
  5684   0019F6  5023               	movf	_pBDTEntryEP0OutNext^0,w,c
  5685   0019F8  26D9               	addwf	fsr2l,f,c
  5686   0019FA  5024               	movf	(_pBDTEntryEP0OutNext+1)^0,w,c
  5687   0019FC  22DA               	addwfc	fsr2h,f,c
  5688   0019FE  0E20               	movlw	32
  5689   001A00  6EDE               	movwf	postinc2,c
  5690   001A02  0E04               	movlw	4
  5691   001A04  6EDD               	movwf	postdec2,c
  5692   001A06                     
  5693                           ;../source/usb/usb_device.c: 1866:         pBDTEntryEP0OutNext->STAT.Val = 0x04;
  5694   001A06  C023  FFD9         	movff	_pBDTEntryEP0OutNext,fsr2l
  5695   001A0A  C024  FFDA         	movff	_pBDTEntryEP0OutNext+1,fsr2h
  5696   001A0E  0E04               	movlw	4
  5697   001A10  6EDF               	movwf	indf2,c
  5698   001A12                     
  5699                           ;../source/usb/usb_device.c: 1867:         pBDTEntryEP0OutNext->STAT.Val |= 0x80;
  5700   001A12  C023  FFD9         	movff	_pBDTEntryEP0OutNext,fsr2l
  5701   001A16  C024  FFDA         	movff	_pBDTEntryEP0OutNext+1,fsr2h
  5702   001A1A  0E00               	movlw	0
  5703   001A1C  8EDB               	bsf	plusw2,7,c
  5704   001A1E  9E04               	bcf	(_outPipes+3)^0,7,c
  5705   001A20                     
  5706                           ;../source/usb/usb_device.c: 1901:         if(USBDeferStatusStagePacket == 0)
  5707   001A20  502C               	movf	_USBDeferStatusStagePacket^0,w,c	;volatile
  5708   001A22  A4D8               	btfss	status,2,c
  5709   001A24  EF16  F00D         	goto	u721
  5710   001A28  EF18  F00D         	goto	u720
  5711   001A2C                     u721:
  5712   001A2C  EF1A  F00D         	goto	l349
  5713   001A30                     u720:
  5714   001A30                     
  5715                           ;../source/usb/usb_device.c: 1902:         {;../source/usb/usb_device.c: 1903:          
      +                             USBCtrlEPAllowStatusStage();
  5716   001A30  EC0C  F011         	call	_USBCtrlEPAllowStatusStage	;wreg free
  5717   001A34                     l349:
  5718   001A34  0012               	return		;funcret
  5719   001A36                     __end_of_USBCtrlTrfRxService:
  5720                           	callstack 0
  5721                           
  5722 ;; *************** function _USBCtrlEPAllowStatusStage *****************
  5723 ;; Defined at:
  5724 ;;		line 1376 in file "../source/usb/usb_device.c"
  5725 ;; Parameters:    Size  Location     Type
  5726 ;;		None
  5727 ;; Auto vars:     Size  Location     Type
  5728 ;;		None
  5729 ;; Return value:  Size  Location     Type
  5730 ;;                  1    wreg      void 
  5731 ;; Registers used:
  5732 ;;		wreg, fsr2l, fsr2h, status,2, status,0
  5733 ;; Tracked objects:
  5734 ;;		On entry : 0/0
  5735 ;;		On exit  : 0/0
  5736 ;;		Unchanged: 0/0
  5737 ;; Data sizes:     COMRAM   BANK0   BANK1   BANK2   BANK3   BANK4   BANK5   BANK6   BANK7
  5738 ;;      Params:         0       0       0       0       0       0       0       0       0
  5739 ;;      Locals:         0       0       0       0       0       0       0       0       0
  5740 ;;      Temps:          0       0       0       0       0       0       0       0       0
  5741 ;;      Totals:         0       0       0       0       0       0       0       0       0
  5742 ;;Total ram usage:        0 bytes
  5743 ;; Hardware stack levels used: 1
  5744 ;; Hardware stack levels required when called: 1
  5745 ;; This function calls:
  5746 ;;		Nothing
  5747 ;; This function is called by:
  5748 ;;		_USBDeviceTasks
  5749 ;;		_USBCtrlEPServiceComplete
  5750 ;;		_USBCtrlTrfRxService
  5751 ;; This function uses a non-reentrant model
  5752 ;;
  5753                           
  5754                           	psect	text29
  5755   002218                     __ptext29:
  5756                           	callstack 0
  5757   002218                     _USBCtrlEPAllowStatusStage:
  5758                           	callstack 25
  5759   002218                     
  5760                           ;../source/usb/usb_device.c: 1383:     if(USBStatusStageEnabledFlag1 == 0)
  5761   002218  502B               	movf	_USBStatusStageEnabledFlag1^0,w,c	;volatile
  5762   00221A  A4D8               	btfss	status,2,c
  5763   00221C  EF12  F011         	goto	u231
  5764   002220  EF14  F011         	goto	u230
  5765   002224                     u231:
  5766   002224  EF83  F011         	goto	l297
  5767   002228                     u230:
  5768   002228                     
  5769                           ;../source/usb/usb_device.c: 1384:     {;../source/usb/usb_device.c: 1385:         USBSt
      +                          atusStageEnabledFlag1 = 1;
  5770   002228  0E01               	movlw	1
  5771   00222A  6E2B               	movwf	_USBStatusStageEnabledFlag1^0,c	;volatile
  5772                           
  5773                           ;../source/usb/usb_device.c: 1386:         if(USBStatusStageEnabledFlag2 == 0)
  5774   00222C  502A               	movf	_USBStatusStageEnabledFlag2^0,w,c	;volatile
  5775   00222E  A4D8               	btfss	status,2,c
  5776   002230  EF1C  F011         	goto	u241
  5777   002234  EF1E  F011         	goto	u240
  5778   002238                     u241:
  5779   002238  EF83  F011         	goto	l297
  5780   00223C                     u240:
  5781   00223C                     
  5782                           ;../source/usb/usb_device.c: 1387:         {;../source/usb/usb_device.c: 1388:          
      +                             USBStatusStageEnabledFlag2 = 1;
  5783   00223C  0E01               	movlw	1
  5784   00223E  6E2A               	movwf	_USBStatusStageEnabledFlag2^0,c	;volatile
  5785   002240                     
  5786                           ;../source/usb/usb_device.c: 1392:             if(controlTransferState == 2)
  5787   002240  0E02               	movlw	2
  5788   002242  1832               	xorwf	_controlTransferState^0,w,c
  5789   002244  A4D8               	btfss	status,2,c
  5790   002246  EF27  F011         	goto	u251
  5791   00224A  EF29  F011         	goto	u250
  5792   00224E                     u251:
  5793   00224E  EF3F  F011         	goto	l1595
  5794   002252                     u250:
  5795   002252                     
  5796                           ;../source/usb/usb_device.c: 1393:             {;../source/usb/usb_device.c: 1394:      
      +                                     pBDTEntryIn[0]->CNT = 0;
  5797   002252  EE20 F001          	lfsr	2,1
  5798   002256  5013               	movf	_pBDTEntryIn^0,w,c
  5799   002258  26D9               	addwf	fsr2l,f,c
  5800   00225A  5014               	movf	(_pBDTEntryIn+1)^0,w,c
  5801   00225C  22DA               	addwfc	fsr2h,f,c
  5802   00225E  0E00               	movlw	0
  5803   002260  6EDF               	movwf	indf2,c
  5804   002262                     
  5805                           ;../source/usb/usb_device.c: 1395:                 pBDTEntryIn[0]->STAT.Val = 0x40|(0x08
      +                           & 0x08);
  5806   002262  C013  FFD9         	movff	_pBDTEntryIn,fsr2l
  5807   002266  C014  FFDA         	movff	_pBDTEntryIn+1,fsr2h
  5808   00226A  0E48               	movlw	72
  5809   00226C  6EDF               	movwf	indf2,c
  5810   00226E                     
  5811                           ;../source/usb/usb_device.c: 1396:                 pBDTEntryIn[0]->STAT.Val |= 0x80;
  5812   00226E  C013  FFD9         	movff	_pBDTEntryIn,fsr2l
  5813   002272  C014  FFDA         	movff	_pBDTEntryIn+1,fsr2h
  5814   002276  0E00               	movlw	0
  5815   002278  8EDB               	bsf	plusw2,7,c
  5816                           
  5817                           ;../source/usb/usb_device.c: 1397:             }
  5818   00227A  EF83  F011         	goto	l297
  5819   00227E                     l1595:
  5820   00227E  0432               	decf	_controlTransferState^0,w,c
  5821   002280  A4D8               	btfss	status,2,c
  5822   002282  EF45  F011         	goto	u261
  5823   002286  EF47  F011         	goto	u260
  5824   00228A                     u261:
  5825   00228A  EF83  F011         	goto	l293
  5826   00228E                     u260:
  5827   00228E                     
  5828                           ;../source/usb/usb_device.c: 1399:             {;../source/usb/usb_device.c: 1400:      
      +                                     BothEP0OutUOWNsSet = 0;
  5829   00228E  0E00               	movlw	0
  5830   002290  6E2E               	movwf	_BothEP0OutUOWNsSet^0,c
  5831   002292                     
  5832                           ;../source/usb/usb_device.c: 1405:                     pBDTEntryEP0OutCurrent->CNT = 8;
  5833   002292  EE20 F001          	lfsr	2,1
  5834   002296  5025               	movf	_pBDTEntryEP0OutCurrent^0,w,c
  5835   002298  26D9               	addwf	fsr2l,f,c
  5836   00229A  5026               	movf	(_pBDTEntryEP0OutCurrent+1)^0,w,c
  5837   00229C  22DA               	addwfc	fsr2h,f,c
  5838   00229E  0E08               	movlw	8
  5839   0022A0  6EDF               	movwf	indf2,c
  5840   0022A2                     
  5841                           ;../source/usb/usb_device.c: 1406:                     pBDTEntryEP0OutCurrent->ADR = ((u
      +                          int16_t)(&SetupPkt));
  5842   0022A2  EE20 F002          	lfsr	2,2
  5843   0022A6  5025               	movf	_pBDTEntryEP0OutCurrent^0,w,c
  5844   0022A8  26D9               	addwf	fsr2l,f,c
  5845   0022AA  5026               	movf	(_pBDTEntryEP0OutCurrent+1)^0,w,c
  5846   0022AC  22DA               	addwfc	fsr2h,f,c
  5847   0022AE  0E20               	movlw	32
  5848   0022B0  6EDE               	movwf	postinc2,c
  5849   0022B2  0E04               	movlw	4
  5850   0022B4  6EDD               	movwf	postdec2,c
  5851   0022B6                     
  5852                           ;../source/usb/usb_device.c: 1407:                     pBDTEntryEP0OutCurrent->STAT.Val 
      +                          = 0x04;
  5853   0022B6  C025  FFD9         	movff	_pBDTEntryEP0OutCurrent,fsr2l
  5854   0022BA  C026  FFDA         	movff	_pBDTEntryEP0OutCurrent+1,fsr2h
  5855   0022BE  0E04               	movlw	4
  5856   0022C0  6EDF               	movwf	indf2,c
  5857   0022C2                     
  5858                           ;../source/usb/usb_device.c: 1408:                     pBDTEntryEP0OutCurrent->STAT.Val 
      +                          |= 0x80;
  5859   0022C2  C025  FFD9         	movff	_pBDTEntryEP0OutCurrent,fsr2l
  5860   0022C6  C026  FFDA         	movff	_pBDTEntryEP0OutCurrent+1,fsr2h
  5861   0022CA  0E00               	movlw	0
  5862   0022CC  8EDB               	bsf	plusw2,7,c
  5863   0022CE                     
  5864                           ;../source/usb/usb_device.c: 1409:                     BothEP0OutUOWNsSet = 1;
  5865   0022CE  0E01               	movlw	1
  5866   0022D0  6E2E               	movwf	_BothEP0OutUOWNsSet^0,c
  5867   0022D2                     
  5868                           ;../source/usb/usb_device.c: 1413:                 pBDTEntryEP0OutNext->CNT = 8;
  5869   0022D2  EE20 F001          	lfsr	2,1
  5870   0022D6  5023               	movf	_pBDTEntryEP0OutNext^0,w,c
  5871   0022D8  26D9               	addwf	fsr2l,f,c
  5872   0022DA  5024               	movf	(_pBDTEntryEP0OutNext+1)^0,w,c
  5873   0022DC  22DA               	addwfc	fsr2h,f,c
  5874   0022DE  0E08               	movlw	8
  5875   0022E0  6EDF               	movwf	indf2,c
  5876   0022E2                     
  5877                           ;../source/usb/usb_device.c: 1414:                 pBDTEntryEP0OutNext->ADR = ((uint16_t
      +                          )(&SetupPkt));
  5878   0022E2  EE20 F002          	lfsr	2,2
  5879   0022E6  5023               	movf	_pBDTEntryEP0OutNext^0,w,c
  5880   0022E8  26D9               	addwf	fsr2l,f,c
  5881   0022EA  5024               	movf	(_pBDTEntryEP0OutNext+1)^0,w,c
  5882   0022EC  22DA               	addwfc	fsr2h,f,c
  5883   0022EE  0E20               	movlw	32
  5884   0022F0  6EDE               	movwf	postinc2,c
  5885   0022F2  0E04               	movlw	4
  5886   0022F4  6EDD               	movwf	postdec2,c
  5887   0022F6                     
  5888                           ;../source/usb/usb_device.c: 1415:                 pBDTEntryEP0OutNext->STAT.Val = 0x80;
  5889   0022F6  C023  FFD9         	movff	_pBDTEntryEP0OutNext,fsr2l
  5890   0022FA  C024  FFDA         	movff	_pBDTEntryEP0OutNext+1,fsr2h
  5891   0022FE  0E80               	movlw	128
  5892   002300  6EDF               	movwf	indf2,c
  5893   002302  EF83  F011         	goto	l297
  5894   002306                     l293:
  5895   002306                     l297:
  5896   002306  0012               	return		;funcret
  5897   002308                     __end_of_USBCtrlEPAllowStatusStage:
  5898                           	callstack 0
  5899                           
  5900 ;; *************** function _USBCtrlTrfInHandler *****************
  5901 ;; Defined at:
  5902 ;;		line 2555 in file "../source/usb/usb_device.c"
  5903 ;; Parameters:    Size  Location     Type
  5904 ;;		None
  5905 ;; Auto vars:     Size  Location     Type
  5906 ;;  lastDTS         1    1[COMRAM] unsigned char 
  5907 ;; Return value:  Size  Location     Type
  5908 ;;                  1    wreg      void 
  5909 ;; Registers used:
  5910 ;;		wreg, fsr1l, fsr1h, fsr2l, fsr2h, status,2, status,0, tblptrl, tblptrh, tblptru, cstack
  5911 ;; Tracked objects:
  5912 ;;		On entry : 0/0
  5913 ;;		On exit  : 0/0
  5914 ;;		Unchanged: 0/0
  5915 ;; Data sizes:     COMRAM   BANK0   BANK1   BANK2   BANK3   BANK4   BANK5   BANK6   BANK7
  5916 ;;      Params:         0       0       0       0       0       0       0       0       0
  5917 ;;      Locals:         1       0       0       0       0       0       0       0       0
  5918 ;;      Temps:          0       0       0       0       0       0       0       0       0
  5919 ;;      Totals:         1       0       0       0       0       0       0       0       0
  5920 ;;Total ram usage:        1 bytes
  5921 ;; Hardware stack levels used: 1
  5922 ;; Hardware stack levels required when called: 2
  5923 ;; This function calls:
  5924 ;;		_USBCtrlTrfTxService
  5925 ;; This function is called by:
  5926 ;;		_USBCtrlEPService
  5927 ;; This function uses a non-reentrant model
  5928 ;;
  5929                           
  5930                           	psect	text30
  5931   002114                     __ptext30:
  5932                           	callstack 0
  5933   002114                     _USBCtrlTrfInHandler:
  5934                           	callstack 26
  5935   002114                     
  5936                           ;../source/usb/usb_device.c: 2557:     uint8_t lastDTS;;../source/usb/usb_device.c: 2559
      +                          :     lastDTS = pBDTEntryIn[0]->STAT.DTS;
  5937   002114  C013  FFD9         	movff	_pBDTEntryIn,fsr2l
  5938   002118  C014  FFDA         	movff	_pBDTEntryIn+1,fsr2h
  5939   00211C  0E00               	movlw	0
  5940   00211E  BCDF               	btfsc	indf2,6,c
  5941   002120  0E01               	movlw	1
  5942   002122  6E3B               	movwf	USBCtrlTrfInHandler@lastDTS^0,c
  5943   002124                     
  5944                           ;../source/usb/usb_device.c: 2562:     pBDTEntryIn[0] = (volatile BDT_ENTRY*)(((uint16_t
      +                          )pBDTEntryIn[0]) ^ 0x0004);
  5945   002124  0E04               	movlw	4
  5946   002126  1813               	xorwf	_pBDTEntryIn^0,w,c
  5947   002128  6E13               	movwf	_pBDTEntryIn^0,c
  5948   00212A  5014               	movf	(_pBDTEntryIn+1)^0,w,c
  5949   00212C  6E14               	movwf	(_pBDTEntryIn+1)^0,c
  5950   00212E                     
  5951                           ;../source/usb/usb_device.c: 2567:     if(USBDeviceState == ADR_PENDING_STATE)
  5952   00212E  0E08               	movlw	8
  5953   002130  1834               	xorwf	_USBDeviceState^0,w,c
  5954   002132  A4D8               	btfss	status,2,c
  5955   002134  EF9E  F010         	goto	u781
  5956   002138  EFA0  F010         	goto	u780
  5957   00213C                     u781:
  5958   00213C  EFB2  F010         	goto	l2063
  5959   002140                     u780:
  5960   002140                     
  5961                           ;../source/usb/usb_device.c: 2568:     {;../source/usb/usb_device.c: 2569:         UADDR
      +                           = (SetupPkt.bDevADR & 0x7F);
  5962   002140  0104               	movlb	4	; () banked
  5963   002142  5122               	movf	34,w,b	;volatile
  5964   002144  0B7F               	andlw	127
  5965   002146  6E6E               	movwf	110,c	;volatile
  5966   002148                     
  5967                           ; BSR set to: 4
  5968                           ;../source/usb/usb_device.c: 2570:         if(UADDR != 0u)
  5969   002148  506E               	movf	110,w,c	;volatile
  5970   00214A  B4D8               	btfsc	status,2,c
  5971   00214C  EFAA  F010         	goto	u791
  5972   002150  EFAC  F010         	goto	u790
  5973   002154                     u791:
  5974   002154  EFB0  F010         	goto	l2061
  5975   002158                     u790:
  5976   002158                     
  5977                           ; BSR set to: 4
  5978                           ;../source/usb/usb_device.c: 2571:         {;../source/usb/usb_device.c: 2572:          
      +                             USBDeviceState=ADDRESS_STATE;
  5979   002158  0E10               	movlw	16
  5980   00215A  6E34               	movwf	_USBDeviceState^0,c
  5981                           
  5982                           ;../source/usb/usb_device.c: 2573:         }
  5983   00215C  EFB2  F010         	goto	l2063
  5984   002160                     l2061:
  5985                           
  5986                           ; BSR set to: 4
  5987                           ;../source/usb/usb_device.c: 2575:         {;../source/usb/usb_device.c: 2576:          
      +                             USBDeviceState=DEFAULT_STATE;
  5988   002160  0E04               	movlw	4
  5989   002162  6E34               	movwf	_USBDeviceState^0,c
  5990   002164                     l2063:
  5991                           
  5992                           ;../source/usb/usb_device.c: 2581:     if(controlTransferState == 1)
  5993   002164  0432               	decf	_controlTransferState^0,w,c
  5994   002166  A4D8               	btfss	status,2,c
  5995   002168  EFB8  F010         	goto	u801
  5996   00216C  EFBA  F010         	goto	u800
  5997   002170                     u801:
  5998   002170  EF01  F011         	goto	l423
  5999   002174                     u800:
  6000   002174                     
  6001                           ;../source/usb/usb_device.c: 2582:     {;../source/usb/usb_device.c: 2583:         pBDTE
      +                          ntryIn[0]->ADR = ((uint16_t)(CtrlTrfData));
  6002   002174  EE20 F002          	lfsr	2,2
  6003   002178  5013               	movf	_pBDTEntryIn^0,w,c
  6004   00217A  26D9               	addwf	fsr2l,f,c
  6005   00217C  5014               	movf	(_pBDTEntryIn+1)^0,w,c
  6006   00217E  22DA               	addwfc	fsr2h,f,c
  6007   002180  0E28               	movlw	40
  6008   002182  6EDE               	movwf	postinc2,c
  6009   002184  0E04               	movlw	4
  6010   002186  6EDD               	movwf	postdec2,c
  6011   002188                     
  6012                           ;../source/usb/usb_device.c: 2584:         USBCtrlTrfTxService();
  6013   002188  EC05  F010         	call	_USBCtrlTrfTxService	;wreg free
  6014   00218C                     
  6015                           ;../source/usb/usb_device.c: 2590:         if(shortPacketStatus == 2)
  6016   00218C  0E02               	movlw	2
  6017   00218E  1833               	xorwf	_shortPacketStatus^0,w,c
  6018   002190  A4D8               	btfss	status,2,c
  6019   002192  EFCD  F010         	goto	u811
  6020   002196  EFCF  F010         	goto	u810
  6021   00219A                     u811:
  6022   00219A  EFDD  F010         	goto	l2075
  6023   00219E                     u810:
  6024   00219E                     
  6025                           ;../source/usb/usb_device.c: 2591:         {;../source/usb/usb_device.c: 2594:          
      +                             pBDTEntryIn[0]->STAT.Val = 0x04;
  6026   00219E  C013  FFD9         	movff	_pBDTEntryIn,fsr2l
  6027   0021A2  C014  FFDA         	movff	_pBDTEntryIn+1,fsr2h
  6028   0021A6  0E04               	movlw	4
  6029   0021A8  6EDF               	movwf	indf2,c
  6030   0021AA                     
  6031                           ;../source/usb/usb_device.c: 2595:             pBDTEntryIn[0]->STAT.Val |= 0x80;
  6032   0021AA  C013  FFD9         	movff	_pBDTEntryIn,fsr2l
  6033   0021AE  C014  FFDA         	movff	_pBDTEntryIn+1,fsr2h
  6034   0021B2  0E00               	movlw	0
  6035   0021B4  8EDB               	bsf	plusw2,7,c
  6036                           
  6037                           ;../source/usb/usb_device.c: 2596:         }
  6038   0021B6  EF0B  F011         	goto	l431
  6039   0021BA                     l2075:
  6040                           
  6041                           ;../source/usb/usb_device.c: 2598:         {;../source/usb/usb_device.c: 2599:          
      +                             if(lastDTS == 0)
  6042   0021BA  503B               	movf	USBCtrlTrfInHandler@lastDTS^0,w,c
  6043   0021BC  A4D8               	btfss	status,2,c
  6044   0021BE  EFE3  F010         	goto	u821
  6045   0021C2  EFE5  F010         	goto	u820
  6046   0021C6                     u821:
  6047   0021C6  EFF3  F010         	goto	l2081
  6048   0021CA                     u820:
  6049   0021CA                     
  6050                           ;../source/usb/usb_device.c: 2600:             {;../source/usb/usb_device.c: 2601:      
      +                                     pBDTEntryIn[0]->STAT.Val = 0x40|(0x08 & 0x08);
  6051   0021CA  C013  FFD9         	movff	_pBDTEntryIn,fsr2l
  6052   0021CE  C014  FFDA         	movff	_pBDTEntryIn+1,fsr2h
  6053   0021D2  0E48               	movlw	72
  6054   0021D4  6EDF               	movwf	indf2,c
  6055   0021D6                     
  6056                           ;../source/usb/usb_device.c: 2602:                 pBDTEntryIn[0]->STAT.Val |= 0x80;
  6057   0021D6  C013  FFD9         	movff	_pBDTEntryIn,fsr2l
  6058   0021DA  C014  FFDA         	movff	_pBDTEntryIn+1,fsr2h
  6059   0021DE  0E00               	movlw	0
  6060   0021E0  8EDB               	bsf	plusw2,7,c
  6061                           
  6062                           ;../source/usb/usb_device.c: 2603:             }
  6063   0021E2  EF0B  F011         	goto	l431
  6064   0021E6                     l2081:
  6065                           
  6066                           ;../source/usb/usb_device.c: 2605:             {;../source/usb/usb_device.c: 2606:      
      +                                     pBDTEntryIn[0]->STAT.Val = 0x00|(0x08 & 0x08);
  6067   0021E6  C013  FFD9         	movff	_pBDTEntryIn,fsr2l
  6068   0021EA  C014  FFDA         	movff	_pBDTEntryIn+1,fsr2h
  6069   0021EE  0E08               	movlw	8
  6070   0021F0  6EDF               	movwf	indf2,c
  6071   0021F2                     
  6072                           ;../source/usb/usb_device.c: 2607:                 pBDTEntryIn[0]->STAT.Val |= 0x80;
  6073   0021F2  C013  FFD9         	movff	_pBDTEntryIn,fsr2l
  6074   0021F6  C014  FFDA         	movff	_pBDTEntryIn+1,fsr2h
  6075   0021FA  0E00               	movlw	0
  6076   0021FC  8EDB               	bsf	plusw2,7,c
  6077   0021FE  EF0B  F011         	goto	l431
  6078   002202                     l423:
  6079                           
  6080                           ;../source/usb/usb_device.c: 2612:  {;../source/usb/usb_device.c: 2616:         if(outPi
      +                          pes[0].info.bits.busy == 1)
  6081   002202  AE04               	btfss	(_outPipes+3)^0,7,c
  6082   002204  EF06  F011         	goto	u831
  6083   002208  EF08  F011         	goto	u830
  6084   00220C                     u831:
  6085   00220C  EF09  F011         	goto	l2087
  6086   002210                     u830:
  6087   002210                     
  6088                           ;../source/usb/usb_device.c: 2622:             outPipes[0].info.bits.busy = 0;
  6089   002210  9E04               	bcf	(_outPipes+3)^0,7,c
  6090   002212                     l2087:
  6091                           
  6092                           ;../source/usb/usb_device.c: 2625:         controlTransferState = 0;
  6093   002212  0E00               	movlw	0
  6094   002214  6E32               	movwf	_controlTransferState^0,c
  6095   002216                     l431:
  6096   002216  0012               	return		;funcret
  6097   002218                     __end_of_USBCtrlTrfInHandler:
  6098                           	callstack 0
  6099                           
  6100 ;; *************** function _USBCtrlTrfTxService *****************
  6101 ;; Defined at:
  6102 ;;		line 1731 in file "../source/usb/usb_device.c"
  6103 ;; Parameters:    Size  Location     Type
  6104 ;;		None
  6105 ;; Auto vars:     Size  Location     Type
  6106 ;;  byteToSend      1    0[COMRAM] unsigned char 
  6107 ;; Return value:  Size  Location     Type
  6108 ;;                  1    wreg      void 
  6109 ;; Registers used:
  6110 ;;		wreg, fsr1l, fsr1h, fsr2l, fsr2h, status,2, status,0, tblptrl, tblptrh, tblptru
  6111 ;; Tracked objects:
  6112 ;;		On entry : 0/0
  6113 ;;		On exit  : 0/0
  6114 ;;		Unchanged: 0/0
  6115 ;; Data sizes:     COMRAM   BANK0   BANK1   BANK2   BANK3   BANK4   BANK5   BANK6   BANK7
  6116 ;;      Params:         0       0       0       0       0       0       0       0       0
  6117 ;;      Locals:         1       0       0       0       0       0       0       0       0
  6118 ;;      Temps:          0       0       0       0       0       0       0       0       0
  6119 ;;      Totals:         1       0       0       0       0       0       0       0       0
  6120 ;;Total ram usage:        1 bytes
  6121 ;; Hardware stack levels used: 1
  6122 ;; Hardware stack levels required when called: 1
  6123 ;; This function calls:
  6124 ;;		Nothing
  6125 ;; This function is called by:
  6126 ;;		_USBCtrlEPAllowDataStage
  6127 ;;		_USBCtrlTrfInHandler
  6128 ;; This function uses a non-reentrant model
  6129 ;;
  6130                           
  6131                           	psect	text31
  6132   00200A                     __ptext31:
  6133                           	callstack 0
  6134   00200A                     _USBCtrlTrfTxService:
  6135                           	callstack 24
  6136   00200A                     
  6137                           ;../source/usb/usb_device.c: 1733:     uint8_t byteToSend;;../source/usb/usb_device.c: 1
      +                          737:     byteToSend = 8;
  6138   00200A  0E08               	movlw	8
  6139   00200C  6E3A               	movwf	USBCtrlTrfTxService@byteToSend^0,c
  6140   00200E                     
  6141                           ;../source/usb/usb_device.c: 1738:     if(inPipes[0].wCount.Val < (uint8_t)8)
  6142   00200E  500E               	movf	(_inPipes+5)^0,w,c
  6143   002010  E107               	bnz	u151
  6144   002012  0E08               	movlw	8
  6145   002014  5C0D               	subwf	(_inPipes+4)^0,w,c
  6146   002016  B0D8               	btfsc	status,0,c
  6147   002018  EF10  F010         	goto	u151
  6148   00201C  EF12  F010         	goto	u150
  6149   002020                     u151:
  6150   002020  EF2A  F010         	goto	l1551
  6151   002024                     u150:
  6152   002024                     
  6153                           ;../source/usb/usb_device.c: 1739:     {;../source/usb/usb_device.c: 1740:         byteT
      +                          oSend = inPipes[0].wCount.Val;
  6154   002024  C00D  F03A         	movff	_inPipes+4,USBCtrlTrfTxService@byteToSend
  6155   002028                     
  6156                           ;../source/usb/usb_device.c: 1747:         if(shortPacketStatus == 0)
  6157   002028  5033               	movf	_shortPacketStatus^0,w,c
  6158   00202A  A4D8               	btfss	status,2,c
  6159   00202C  EF1A  F010         	goto	u161
  6160   002030  EF1C  F010         	goto	u160
  6161   002034                     u161:
  6162   002034  EF20  F010         	goto	l1547
  6163   002038                     u160:
  6164   002038                     
  6165                           ;../source/usb/usb_device.c: 1748:         {;../source/usb/usb_device.c: 1749:          
      +                             shortPacketStatus = 1;
  6166   002038  0E01               	movlw	1
  6167   00203A  6E33               	movwf	_shortPacketStatus^0,c
  6168                           
  6169                           ;../source/usb/usb_device.c: 1750:         }
  6170   00203C  EF2A  F010         	goto	l1551
  6171   002040                     l1547:
  6172   002040  0433               	decf	_shortPacketStatus^0,w,c
  6173   002042  A4D8               	btfss	status,2,c
  6174   002044  EF26  F010         	goto	u171
  6175   002048  EF28  F010         	goto	u170
  6176   00204C                     u171:
  6177   00204C  EF2A  F010         	goto	l1551
  6178   002050                     u170:
  6179   002050                     
  6180                           ;../source/usb/usb_device.c: 1752:         {;../source/usb/usb_device.c: 1753:          
      +                             shortPacketStatus = 2;
  6181   002050  0E02               	movlw	2
  6182   002052  6E33               	movwf	_shortPacketStatus^0,c
  6183   002054                     l1551:
  6184                           
  6185                           ;../source/usb/usb_device.c: 1759:     inPipes[0].wCount.Val -= byteToSend;
  6186   002054  503A               	movf	USBCtrlTrfTxService@byteToSend^0,w,c
  6187   002056  5E0D               	subwf	(_inPipes+4)^0,f,c
  6188   002058  0E00               	movlw	0
  6189   00205A  5A0E               	subwfb	(_inPipes+5)^0,f,c
  6190   00205C                     
  6191                           ;../source/usb/usb_device.c: 1764:     pBDTEntryIn[0]->CNT = byteToSend;
  6192   00205C  EE20 F001          	lfsr	2,1
  6193   002060  5013               	movf	_pBDTEntryIn^0,w,c
  6194   002062  26D9               	addwf	fsr2l,f,c
  6195   002064  5014               	movf	(_pBDTEntryIn+1)^0,w,c
  6196   002066  22DA               	addwfc	fsr2h,f,c
  6197   002068  C03A  FFDF         	movff	USBCtrlTrfTxService@byteToSend,indf2
  6198   00206C                     
  6199                           ;../source/usb/usb_device.c: 1768:     pDst = ( uint8_t*)CtrlTrfData;
  6200   00206C  0E28               	movlw	40
  6201   00206E  6E21               	movwf	_pDst^0,c
  6202   002070  0E04               	movlw	4
  6203   002072  6E22               	movwf	(_pDst+1)^0,c
  6204   002074                     
  6205                           ;../source/usb/usb_device.c: 1769:     if(inPipes[0].info.bits.ctrl_trf_mem == 0x00)
  6206   002074  B00C               	btfsc	(_inPipes+3)^0,0,c
  6207   002076  EF3F  F010         	goto	u181
  6208   00207A  EF41  F010         	goto	u180
  6209   00207E                     u181:
  6210   00207E  EF81  F010         	goto	l1579
  6211   002082                     u180:
  6212   002082  EF5D  F010         	goto	l1569
  6213   002086                     l1561:
  6214                           
  6215                           ;../source/usb/usb_device.c: 1772:         {;../source/usb/usb_device.c: 1773:          
      +                             *pDst++ = *inPipes[0].pSrc.bRom++;
  6216   002086  C009  FFF6         	movff	_inPipes,tblptrl
  6217   00208A  C00A  FFF7         	movff	_inPipes+1,tblptrh
  6218   00208E  6AF8               	clrf	tblptru,c
  6219   002090  C021  FFE1         	movff	_pDst,fsr1l
  6220   002094  C022  FFE2         	movff	_pDst+1,fsr1h
  6221   002098  0E07               	movlw	(high __ramtop+-1)
  6222   00209A  64F7               	cpfsgt	tblptrh,c
  6223   00209C  D003               	bra	u197
  6224   00209E  0008               	tblrd		*
  6225   0020A0  50F5               	movf	tablat,w,c
  6226   0020A2  D005               	bra	u190
  6227   0020A4                     u197:
  6228   0020A4  CFF6 FFD9          	movff	tblptrl,fsr2l
  6229   0020A8  CFF7 FFDA          	movff	tblptrh,fsr2h
  6230   0020AC  50DF               	movf	indf2,w,c
  6231   0020AE                     u190:
  6232   0020AE  6EE7               	movwf	indf1,c
  6233   0020B0  4A09               	infsnz	_inPipes^0,f,c
  6234   0020B2  2A0A               	incf	(_inPipes+1)^0,f,c
  6235   0020B4  4A21               	infsnz	_pDst^0,f,c
  6236   0020B6  2A22               	incf	(_pDst+1)^0,f,c
  6237   0020B8                     
  6238                           ;../source/usb/usb_device.c: 1774:             byteToSend--;
  6239   0020B8  063A               	decf	USBCtrlTrfTxService@byteToSend^0,f,c
  6240   0020BA                     l1569:
  6241                           
  6242                           ;../source/usb/usb_device.c: 1771:         while(byteToSend)
  6243   0020BA  503A               	movf	USBCtrlTrfTxService@byteToSend^0,w,c
  6244   0020BC  A4D8               	btfss	status,2,c
  6245   0020BE  EF63  F010         	goto	u201
  6246   0020C2  EF65  F010         	goto	u200
  6247   0020C6                     u201:
  6248   0020C6  EF43  F010         	goto	l1561
  6249   0020CA                     u200:
  6250   0020CA  EF89  F010         	goto	l336
  6251   0020CE                     l1571:
  6252                           
  6253                           ;../source/usb/usb_device.c: 1780:         {;../source/usb/usb_device.c: 1781:          
      +                             *pDst++ = *inPipes[0].pSrc.bRam++;
  6254   0020CE  C009  FFF6         	movff	_inPipes,tblptrl
  6255   0020D2  C00A  FFF7         	movff	_inPipes+1,tblptrh
  6256   0020D6  6AF8               	clrf	tblptru,c
  6257   0020D8  C021  FFE1         	movff	_pDst,fsr1l
  6258   0020DC  C022  FFE2         	movff	_pDst+1,fsr1h
  6259   0020E0  0E07               	movlw	(high __ramtop+-1)
  6260   0020E2  64F7               	cpfsgt	tblptrh,c
  6261   0020E4  D003               	bra	u217
  6262   0020E6  0008               	tblrd		*
  6263   0020E8  50F5               	movf	tablat,w,c
  6264   0020EA  D005               	bra	u210
  6265   0020EC                     u217:
  6266   0020EC  CFF6 FFD9          	movff	tblptrl,fsr2l
  6267   0020F0  CFF7 FFDA          	movff	tblptrh,fsr2h
  6268   0020F4  50DF               	movf	indf2,w,c
  6269   0020F6                     u210:
  6270   0020F6  6EE7               	movwf	indf1,c
  6271   0020F8  4A09               	infsnz	_inPipes^0,f,c
  6272   0020FA  2A0A               	incf	(_inPipes+1)^0,f,c
  6273   0020FC  4A21               	infsnz	_pDst^0,f,c
  6274   0020FE  2A22               	incf	(_pDst+1)^0,f,c
  6275   002100                     
  6276                           ;../source/usb/usb_device.c: 1782:             byteToSend--;
  6277   002100  063A               	decf	USBCtrlTrfTxService@byteToSend^0,f,c
  6278   002102                     l1579:
  6279                           
  6280                           ;../source/usb/usb_device.c: 1779:         while(byteToSend)
  6281   002102  503A               	movf	USBCtrlTrfTxService@byteToSend^0,w,c
  6282   002104  A4D8               	btfss	status,2,c
  6283   002106  EF87  F010         	goto	u221
  6284   00210A  EF89  F010         	goto	u220
  6285   00210E                     u221:
  6286   00210E  EF67  F010         	goto	l1571
  6287   002112                     u220:
  6288   002112                     l336:
  6289   002112  0012               	return		;funcret
  6290   002114                     __end_of_USBCtrlTrfTxService:
  6291                           	callstack 0
  6292                           
  6293 ;; *************** function _APP_DeviceJoystickTasks *****************
  6294 ;; Defined at:
  6295 ;;		line 141 in file "../source/app_device_joystick.c"
  6296 ;; Parameters:    Size  Location     Type
  6297 ;;		None
  6298 ;; Auto vars:     Size  Location     Type
  6299 ;;		None
  6300 ;; Return value:  Size  Location     Type
  6301 ;;                  1    wreg      void 
  6302 ;; Registers used:
  6303 ;;		wreg, fsr2l, fsr2h, status,2, status,0, prodl, prodh, cstack
  6304 ;; Tracked objects:
  6305 ;;		On entry : 0/0
  6306 ;;		On exit  : 0/0
  6307 ;;		Unchanged: 0/0
  6308 ;; Data sizes:     COMRAM   BANK0   BANK1   BANK2   BANK3   BANK4   BANK5   BANK6   BANK7
  6309 ;;      Params:         0       0       0       0       0       0       0       0       0
  6310 ;;      Locals:         0       0       0       0       0       0       0       0       0
  6311 ;;      Temps:          1       0       0       0       0       0       0       0       0
  6312 ;;      Totals:         1       0       0       0       0       0       0       0       0
  6313 ;;Total ram usage:        1 bytes
  6314 ;; Hardware stack levels used: 1
  6315 ;; Hardware stack levels required when called: 3
  6316 ;; This function calls:
  6317 ;;		_ADC_Readbits
  6318 ;;		_ADC_multiButton
  6319 ;;		_BUTTON_IsPressed
  6320 ;;		_USBTransferOnePacket
  6321 ;; This function is called by:
  6322 ;;		_main
  6323 ;; This function uses a non-reentrant model
  6324 ;;
  6325                           
  6326                           	psect	text32
  6327   0008A6                     __ptext32:
  6328                           	callstack 0
  6329   0008A6                     _APP_DeviceJoystickTasks:
  6330                           	callstack 27
  6331   0008A6                     
  6332                           ;../source/app_device_joystick.c: 146:     if( USBDeviceState < CONFIGURED_STATE )
  6333   0008A6  0E20               	movlw	32
  6334   0008A8  6034               	cpfslt	_USBDeviceState^0,c
  6335   0008AA  EF59  F004         	goto	u2741
  6336   0008AE  EF5B  F004         	goto	u2740
  6337   0008B2                     u2741:
  6338   0008B2  EF5D  F004         	goto	l620
  6339   0008B6                     u2740:
  6340   0008B6  EFEC  F006         	goto	l621
  6341   0008BA                     l620:
  6342                           
  6343                           ;../source/app_device_joystick.c: 156:     if( UCONbits.SUSPND == 1 )
  6344   0008BA  A26D               	btfss	109,1,c	;volatile
  6345   0008BC  EF62  F004         	goto	u2751
  6346   0008C0  EF64  F004         	goto	u2750
  6347   0008C4                     u2751:
  6348   0008C4  EF66  F004         	goto	l3463
  6349   0008C8                     u2750:
  6350   0008C8  EFEC  F006         	goto	l621
  6351   0008CC                     l3463:
  6352                           
  6353                           ;../source/app_device_joystick.c: 163:     if(!((lastTransmission != 0x0000) && ((*(vola
      +                          tile uint8_t*)lastTransmission & 0x80) != 0x00)))
  6354   0008CC  501B               	movf	_lastTransmission^0,w,c
  6355   0008CE  101C               	iorwf	(_lastTransmission+1)^0,w,c
  6356   0008D0  B4D8               	btfsc	status,2,c
  6357   0008D2  EF6D  F004         	goto	u2761
  6358   0008D6  EF6F  F004         	goto	u2760
  6359   0008DA                     u2761:
  6360   0008DA  EF7A  F004         	goto	l3467
  6361   0008DE                     u2760:
  6362   0008DE  C01B  FFD9         	movff	_lastTransmission,fsr2l
  6363   0008E2  C01C  FFDA         	movff	_lastTransmission+1,fsr2h
  6364   0008E6  BEDF               	btfsc	indf2,7,c
  6365   0008E8  EF78  F004         	goto	u2771
  6366   0008EC  EF7A  F004         	goto	u2770
  6367   0008F0                     u2771:
  6368   0008F0  EFEC  F006         	goto	l621
  6369   0008F4                     u2770:
  6370   0008F4                     l3467:
  6371                           
  6372                           ;../source/app_device_joystick.c: 164:     {;../source/app_device_joystick.c: 168:      
      +                             joystick_input.members.buttons.s2_1 = (ADC_multiButton(ADC_CHANNEL_2) == 1) ? 1 : 0;
  6373   0008F4  0E02               	movlw	2
  6374   0008F6  EC5A  F00E         	call	_ADC_multiButton
  6375   0008FA  0441               	decf	?_ADC_multiButton^0,w,c
  6376   0008FC  1042               	iorwf	(?_ADC_multiButton+1)^0,w,c
  6377   0008FE  B4D8               	btfsc	status,2,c
  6378   000900  EF84  F004         	goto	u2781
  6379   000904  EF88  F004         	goto	u2780
  6380   000908                     u2781:
  6381   000908  6A46               	clrf	??_APP_DeviceJoystickTasks^0,c
  6382   00090A  2A46               	incf	??_APP_DeviceJoystickTasks^0,f,c
  6383   00090C  EF89  F004         	goto	u2798
  6384   000910                     u2780:
  6385   000910  6A46               	clrf	??_APP_DeviceJoystickTasks^0,c
  6386   000912                     u2798:
  6387   000912  0105               	movlb	5	; () banked
  6388   000914  5100               	movf	0,w,b
  6389   000916  1846               	xorwf	??_APP_DeviceJoystickTasks^0,w,c
  6390   000918  0BFE               	andlw	-2
  6391   00091A  1846               	xorwf	??_APP_DeviceJoystickTasks^0,w,c
  6392   00091C  6F00               	movwf	0,b
  6393                           
  6394                           ;../source/app_device_joystick.c: 169:         joystick_input.members.buttons.s2_2 = (AD
      +                          C_multiButton(ADC_CHANNEL_2) == 2) ? 1 : 0;
  6395   00091E  0E02               	movlw	2
  6396   000920  EC5A  F00E         	call	_ADC_multiButton
  6397   000924  0E02               	movlw	2
  6398   000926  1841               	xorwf	?_ADC_multiButton^0,w,c
  6399   000928  1042               	iorwf	(?_ADC_multiButton+1)^0,w,c
  6400   00092A  B4D8               	btfsc	status,2,c
  6401   00092C  EF9A  F004         	goto	u2801
  6402   000930  EF9E  F004         	goto	u2800
  6403   000934                     u2801:
  6404   000934  6A46               	clrf	??_APP_DeviceJoystickTasks^0,c
  6405   000936  2A46               	incf	??_APP_DeviceJoystickTasks^0,f,c
  6406   000938  EF9F  F004         	goto	u2818
  6407   00093C                     u2800:
  6408   00093C  6A46               	clrf	??_APP_DeviceJoystickTasks^0,c
  6409   00093E                     u2818:
  6410   00093E  4646               	rlncf	??_APP_DeviceJoystickTasks^0,f,c
  6411   000940  0105               	movlb	5	; () banked
  6412   000942  5100               	movf	0,w,b
  6413   000944  1846               	xorwf	??_APP_DeviceJoystickTasks^0,w,c
  6414   000946  0BFD               	andlw	-3
  6415   000948  1846               	xorwf	??_APP_DeviceJoystickTasks^0,w,c
  6416   00094A  6F00               	movwf	0,b
  6417                           
  6418                           ;../source/app_device_joystick.c: 170:         joystick_input.members.buttons.s2_3 = (AD
      +                          C_multiButton(ADC_CHANNEL_2) == 3) ? 1 : 0;
  6419   00094C  0E02               	movlw	2
  6420   00094E  EC5A  F00E         	call	_ADC_multiButton
  6421   000952  0E03               	movlw	3
  6422   000954  1841               	xorwf	?_ADC_multiButton^0,w,c
  6423   000956  1042               	iorwf	(?_ADC_multiButton+1)^0,w,c
  6424   000958  B4D8               	btfsc	status,2,c
  6425   00095A  EFB1  F004         	goto	u2821
  6426   00095E  EFB5  F004         	goto	u2820
  6427   000962                     u2821:
  6428   000962  6A46               	clrf	??_APP_DeviceJoystickTasks^0,c
  6429   000964  2A46               	incf	??_APP_DeviceJoystickTasks^0,f,c
  6430   000966  EFB6  F004         	goto	u2838
  6431   00096A                     u2820:
  6432   00096A  6A46               	clrf	??_APP_DeviceJoystickTasks^0,c
  6433   00096C                     u2838:
  6434   00096C  4646               	rlncf	??_APP_DeviceJoystickTasks^0,f,c
  6435   00096E  4646               	rlncf	??_APP_DeviceJoystickTasks^0,f,c
  6436   000970  0105               	movlb	5	; () banked
  6437   000972  5100               	movf	0,w,b
  6438   000974  1846               	xorwf	??_APP_DeviceJoystickTasks^0,w,c
  6439   000976  0BFB               	andlw	-5
  6440   000978  1846               	xorwf	??_APP_DeviceJoystickTasks^0,w,c
  6441   00097A  6F00               	movwf	0,b
  6442                           
  6443                           ;../source/app_device_joystick.c: 171:         joystick_input.members.buttons.s2_4 = (AD
      +                          C_multiButton(ADC_CHANNEL_2) == 4) ? 1 : 0;
  6444   00097C  0E02               	movlw	2
  6445   00097E  EC5A  F00E         	call	_ADC_multiButton
  6446   000982  0E04               	movlw	4
  6447   000984  1841               	xorwf	?_ADC_multiButton^0,w,c
  6448   000986  1042               	iorwf	(?_ADC_multiButton+1)^0,w,c
  6449   000988  B4D8               	btfsc	status,2,c
  6450   00098A  EFC9  F004         	goto	u2841
  6451   00098E  EFCD  F004         	goto	u2840
  6452   000992                     u2841:
  6453   000992  6A46               	clrf	??_APP_DeviceJoystickTasks^0,c
  6454   000994  2A46               	incf	??_APP_DeviceJoystickTasks^0,f,c
  6455   000996  EFCE  F004         	goto	u2858
  6456   00099A                     u2840:
  6457   00099A  6A46               	clrf	??_APP_DeviceJoystickTasks^0,c
  6458   00099C                     u2858:
  6459   00099C  4646               	rlncf	??_APP_DeviceJoystickTasks^0,f,c
  6460   00099E  4646               	rlncf	??_APP_DeviceJoystickTasks^0,f,c
  6461   0009A0  4646               	rlncf	??_APP_DeviceJoystickTasks^0,f,c
  6462   0009A2  0105               	movlb	5	; () banked
  6463   0009A4  5100               	movf	0,w,b
  6464   0009A6  1846               	xorwf	??_APP_DeviceJoystickTasks^0,w,c
  6465   0009A8  0BF7               	andlw	-9
  6466   0009AA  1846               	xorwf	??_APP_DeviceJoystickTasks^0,w,c
  6467   0009AC  6F00               	movwf	0,b
  6468                           
  6469                           ;../source/app_device_joystick.c: 172:         joystick_input.members.buttons.s3_1 = (AD
      +                          C_multiButton(ADC_CHANNEL_3) == 1) ? 1 : 0;
  6470   0009AE  0E03               	movlw	3
  6471   0009B0  EC5A  F00E         	call	_ADC_multiButton
  6472   0009B4  0441               	decf	?_ADC_multiButton^0,w,c
  6473   0009B6  1042               	iorwf	(?_ADC_multiButton+1)^0,w,c
  6474   0009B8  B4D8               	btfsc	status,2,c
  6475   0009BA  EFE1  F004         	goto	u2861
  6476   0009BE  EFE5  F004         	goto	u2860
  6477   0009C2                     u2861:
  6478   0009C2  6A46               	clrf	??_APP_DeviceJoystickTasks^0,c
  6479   0009C4  2A46               	incf	??_APP_DeviceJoystickTasks^0,f,c
  6480   0009C6  EFE6  F004         	goto	u2878
  6481   0009CA                     u2860:
  6482   0009CA  6A46               	clrf	??_APP_DeviceJoystickTasks^0,c
  6483   0009CC                     u2878:
  6484   0009CC  3A46               	swapf	??_APP_DeviceJoystickTasks^0,f,c
  6485   0009CE  0105               	movlb	5	; () banked
  6486   0009D0  5100               	movf	0,w,b
  6487   0009D2  1846               	xorwf	??_APP_DeviceJoystickTasks^0,w,c
  6488   0009D4  0BEF               	andlw	-17
  6489   0009D6  1846               	xorwf	??_APP_DeviceJoystickTasks^0,w,c
  6490   0009D8  6F00               	movwf	0,b
  6491                           
  6492                           ;../source/app_device_joystick.c: 173:         joystick_input.members.buttons.s3_2 = (AD
      +                          C_multiButton(ADC_CHANNEL_3) == 2) ? 1 : 0;
  6493   0009DA  0E03               	movlw	3
  6494   0009DC  EC5A  F00E         	call	_ADC_multiButton
  6495   0009E0  0E02               	movlw	2
  6496   0009E2  1841               	xorwf	?_ADC_multiButton^0,w,c
  6497   0009E4  1042               	iorwf	(?_ADC_multiButton+1)^0,w,c
  6498   0009E6  B4D8               	btfsc	status,2,c
  6499   0009E8  EFF8  F004         	goto	u2881
  6500   0009EC  EFFC  F004         	goto	u2880
  6501   0009F0                     u2881:
  6502   0009F0  6A46               	clrf	??_APP_DeviceJoystickTasks^0,c
  6503   0009F2  2A46               	incf	??_APP_DeviceJoystickTasks^0,f,c
  6504   0009F4  EFFD  F004         	goto	u2898
  6505   0009F8                     u2880:
  6506   0009F8  6A46               	clrf	??_APP_DeviceJoystickTasks^0,c
  6507   0009FA                     u2898:
  6508   0009FA  3A46               	swapf	??_APP_DeviceJoystickTasks^0,f,c
  6509   0009FC  4646               	rlncf	??_APP_DeviceJoystickTasks^0,f,c
  6510   0009FE  0105               	movlb	5	; () banked
  6511   000A00  5100               	movf	0,w,b
  6512   000A02  1846               	xorwf	??_APP_DeviceJoystickTasks^0,w,c
  6513   000A04  0BDF               	andlw	-33
  6514   000A06  1846               	xorwf	??_APP_DeviceJoystickTasks^0,w,c
  6515   000A08  6F00               	movwf	0,b
  6516                           
  6517                           ;../source/app_device_joystick.c: 174:         joystick_input.members.buttons.s3_3 = (AD
      +                          C_multiButton(ADC_CHANNEL_3) == 3) ? 1 : 0;
  6518   000A0A  0E03               	movlw	3
  6519   000A0C  EC5A  F00E         	call	_ADC_multiButton
  6520   000A10  0E03               	movlw	3
  6521   000A12  1841               	xorwf	?_ADC_multiButton^0,w,c
  6522   000A14  1042               	iorwf	(?_ADC_multiButton+1)^0,w,c
  6523   000A16  B4D8               	btfsc	status,2,c
  6524   000A18  EF10  F005         	goto	u2901
  6525   000A1C  EF14  F005         	goto	u2900
  6526   000A20                     u2901:
  6527   000A20  6A46               	clrf	??_APP_DeviceJoystickTasks^0,c
  6528   000A22  2A46               	incf	??_APP_DeviceJoystickTasks^0,f,c
  6529   000A24  EF15  F005         	goto	u2918
  6530   000A28                     u2900:
  6531   000A28  6A46               	clrf	??_APP_DeviceJoystickTasks^0,c
  6532   000A2A                     u2918:
  6533   000A2A  3A46               	swapf	??_APP_DeviceJoystickTasks^0,f,c
  6534   000A2C  4646               	rlncf	??_APP_DeviceJoystickTasks^0,f,c
  6535   000A2E  4646               	rlncf	??_APP_DeviceJoystickTasks^0,f,c
  6536   000A30  0105               	movlb	5	; () banked
  6537   000A32  5100               	movf	0,w,b
  6538   000A34  1846               	xorwf	??_APP_DeviceJoystickTasks^0,w,c
  6539   000A36  0BBF               	andlw	-65
  6540   000A38  1846               	xorwf	??_APP_DeviceJoystickTasks^0,w,c
  6541   000A3A  6F00               	movwf	0,b
  6542                           
  6543                           ;../source/app_device_joystick.c: 175:         joystick_input.members.buttons.s3_4 = (AD
      +                          C_multiButton(ADC_CHANNEL_3) == 4) ? 1 : 0;
  6544   000A3C  0E03               	movlw	3
  6545   000A3E  EC5A  F00E         	call	_ADC_multiButton
  6546   000A42  0E04               	movlw	4
  6547   000A44  1841               	xorwf	?_ADC_multiButton^0,w,c
  6548   000A46  1042               	iorwf	(?_ADC_multiButton+1)^0,w,c
  6549   000A48  B4D8               	btfsc	status,2,c
  6550   000A4A  EF29  F005         	goto	u2921
  6551   000A4E  EF2D  F005         	goto	u2920
  6552   000A52                     u2921:
  6553   000A52  6A46               	clrf	??_APP_DeviceJoystickTasks^0,c
  6554   000A54  2A46               	incf	??_APP_DeviceJoystickTasks^0,f,c
  6555   000A56  EF2E  F005         	goto	u2938
  6556   000A5A                     u2920:
  6557   000A5A  6A46               	clrf	??_APP_DeviceJoystickTasks^0,c
  6558   000A5C                     u2938:
  6559   000A5C  3246               	rrcf	??_APP_DeviceJoystickTasks^0,f,c
  6560   000A5E  3246               	rrcf	??_APP_DeviceJoystickTasks^0,f,c
  6561   000A60  0105               	movlb	5	; () banked
  6562   000A62  5100               	movf	0,w,b
  6563   000A64  1846               	xorwf	??_APP_DeviceJoystickTasks^0,w,c
  6564   000A66  0B7F               	andlw	-129
  6565   000A68  1846               	xorwf	??_APP_DeviceJoystickTasks^0,w,c
  6566   000A6A  6F00               	movwf	0,b
  6567                           
  6568                           ;../source/app_device_joystick.c: 176:         joystick_input.members.buttons.s3_5 = (AD
      +                          C_multiButton(ADC_CHANNEL_3) == 5) ? 1 : 0;
  6569   000A6C  0E03               	movlw	3
  6570   000A6E  EC5A  F00E         	call	_ADC_multiButton
  6571   000A72  0E05               	movlw	5
  6572   000A74  1841               	xorwf	?_ADC_multiButton^0,w,c
  6573   000A76  1042               	iorwf	(?_ADC_multiButton+1)^0,w,c
  6574   000A78  B4D8               	btfsc	status,2,c
  6575   000A7A  EF41  F005         	goto	u2941
  6576   000A7E  EF45  F005         	goto	u2940
  6577   000A82                     u2941:
  6578   000A82  6A46               	clrf	??_APP_DeviceJoystickTasks^0,c
  6579   000A84  2A46               	incf	??_APP_DeviceJoystickTasks^0,f,c
  6580   000A86  EF46  F005         	goto	u2958
  6581   000A8A                     u2940:
  6582   000A8A  6A46               	clrf	??_APP_DeviceJoystickTasks^0,c
  6583   000A8C                     u2958:
  6584   000A8C  0105               	movlb	5	; () banked
  6585   000A8E  5101               	movf	1,w,b
  6586   000A90  1846               	xorwf	??_APP_DeviceJoystickTasks^0,w,c
  6587   000A92  0BFE               	andlw	-2
  6588   000A94  1846               	xorwf	??_APP_DeviceJoystickTasks^0,w,c
  6589   000A96  6F01               	movwf	1,b
  6590                           
  6591                           ;../source/app_device_joystick.c: 177:         joystick_input.members.buttons.s4_1 = (AD
      +                          C_multiButton(ADC_CHANNEL_4) == 1) ? 1 : 0;
  6592   000A98  0E04               	movlw	4
  6593   000A9A  EC5A  F00E         	call	_ADC_multiButton
  6594   000A9E  0441               	decf	?_ADC_multiButton^0,w,c
  6595   000AA0  1042               	iorwf	(?_ADC_multiButton+1)^0,w,c
  6596   000AA2  B4D8               	btfsc	status,2,c
  6597   000AA4  EF56  F005         	goto	u2961
  6598   000AA8  EF5A  F005         	goto	u2960
  6599   000AAC                     u2961:
  6600   000AAC  6A46               	clrf	??_APP_DeviceJoystickTasks^0,c
  6601   000AAE  2A46               	incf	??_APP_DeviceJoystickTasks^0,f,c
  6602   000AB0  EF5B  F005         	goto	u2978
  6603   000AB4                     u2960:
  6604   000AB4  6A46               	clrf	??_APP_DeviceJoystickTasks^0,c
  6605   000AB6                     u2978:
  6606   000AB6  4646               	rlncf	??_APP_DeviceJoystickTasks^0,f,c
  6607   000AB8  0105               	movlb	5	; () banked
  6608   000ABA  5101               	movf	1,w,b
  6609   000ABC  1846               	xorwf	??_APP_DeviceJoystickTasks^0,w,c
  6610   000ABE  0BFD               	andlw	-3
  6611   000AC0  1846               	xorwf	??_APP_DeviceJoystickTasks^0,w,c
  6612   000AC2  6F01               	movwf	1,b
  6613                           
  6614                           ;../source/app_device_joystick.c: 178:         joystick_input.members.buttons.s4_2 = (AD
      +                          C_multiButton(ADC_CHANNEL_4) == 2) ? 1 : 0;
  6615   000AC4  0E04               	movlw	4
  6616   000AC6  EC5A  F00E         	call	_ADC_multiButton
  6617   000ACA  0E02               	movlw	2
  6618   000ACC  1841               	xorwf	?_ADC_multiButton^0,w,c
  6619   000ACE  1042               	iorwf	(?_ADC_multiButton+1)^0,w,c
  6620   000AD0  B4D8               	btfsc	status,2,c
  6621   000AD2  EF6D  F005         	goto	u2981
  6622   000AD6  EF71  F005         	goto	u2980
  6623   000ADA                     u2981:
  6624   000ADA  6A46               	clrf	??_APP_DeviceJoystickTasks^0,c
  6625   000ADC  2A46               	incf	??_APP_DeviceJoystickTasks^0,f,c
  6626   000ADE  EF72  F005         	goto	u2998
  6627   000AE2                     u2980:
  6628   000AE2  6A46               	clrf	??_APP_DeviceJoystickTasks^0,c
  6629   000AE4                     u2998:
  6630   000AE4  4646               	rlncf	??_APP_DeviceJoystickTasks^0,f,c
  6631   000AE6  4646               	rlncf	??_APP_DeviceJoystickTasks^0,f,c
  6632   000AE8  0105               	movlb	5	; () banked
  6633   000AEA  5101               	movf	1,w,b
  6634   000AEC  1846               	xorwf	??_APP_DeviceJoystickTasks^0,w,c
  6635   000AEE  0BFB               	andlw	-5
  6636   000AF0  1846               	xorwf	??_APP_DeviceJoystickTasks^0,w,c
  6637   000AF2  6F01               	movwf	1,b
  6638                           
  6639                           ;../source/app_device_joystick.c: 179:         joystick_input.members.buttons.s4_3 = (AD
      +                          C_multiButton(ADC_CHANNEL_4) == 3) ? 1 : 0;
  6640   000AF4  0E04               	movlw	4
  6641   000AF6  EC5A  F00E         	call	_ADC_multiButton
  6642   000AFA  0E03               	movlw	3
  6643   000AFC  1841               	xorwf	?_ADC_multiButton^0,w,c
  6644   000AFE  1042               	iorwf	(?_ADC_multiButton+1)^0,w,c
  6645   000B00  B4D8               	btfsc	status,2,c
  6646   000B02  EF85  F005         	goto	u3001
  6647   000B06  EF89  F005         	goto	u3000
  6648   000B0A                     u3001:
  6649   000B0A  6A46               	clrf	??_APP_DeviceJoystickTasks^0,c
  6650   000B0C  2A46               	incf	??_APP_DeviceJoystickTasks^0,f,c
  6651   000B0E  EF8A  F005         	goto	u3018
  6652   000B12                     u3000:
  6653   000B12  6A46               	clrf	??_APP_DeviceJoystickTasks^0,c
  6654   000B14                     u3018:
  6655   000B14  4646               	rlncf	??_APP_DeviceJoystickTasks^0,f,c
  6656   000B16  4646               	rlncf	??_APP_DeviceJoystickTasks^0,f,c
  6657   000B18  4646               	rlncf	??_APP_DeviceJoystickTasks^0,f,c
  6658   000B1A  0105               	movlb	5	; () banked
  6659   000B1C  5101               	movf	1,w,b
  6660   000B1E  1846               	xorwf	??_APP_DeviceJoystickTasks^0,w,c
  6661   000B20  0BF7               	andlw	-9
  6662   000B22  1846               	xorwf	??_APP_DeviceJoystickTasks^0,w,c
  6663   000B24  6F01               	movwf	1,b
  6664                           
  6665                           ;../source/app_device_joystick.c: 180:         joystick_input.members.buttons.s4_4 = (AD
      +                          C_multiButton(ADC_CHANNEL_4) == 4) ? 1 : 0;
  6666   000B26  0E04               	movlw	4
  6667   000B28  EC5A  F00E         	call	_ADC_multiButton
  6668   000B2C  0E04               	movlw	4
  6669   000B2E  1841               	xorwf	?_ADC_multiButton^0,w,c
  6670   000B30  1042               	iorwf	(?_ADC_multiButton+1)^0,w,c
  6671   000B32  B4D8               	btfsc	status,2,c
  6672   000B34  EF9E  F005         	goto	u3021
  6673   000B38  EFA2  F005         	goto	u3020
  6674   000B3C                     u3021:
  6675   000B3C  6A46               	clrf	??_APP_DeviceJoystickTasks^0,c
  6676   000B3E  2A46               	incf	??_APP_DeviceJoystickTasks^0,f,c
  6677   000B40  EFA3  F005         	goto	u3038
  6678   000B44                     u3020:
  6679   000B44  6A46               	clrf	??_APP_DeviceJoystickTasks^0,c
  6680   000B46                     u3038:
  6681   000B46  3A46               	swapf	??_APP_DeviceJoystickTasks^0,f,c
  6682   000B48  0105               	movlb	5	; () banked
  6683   000B4A  5101               	movf	1,w,b
  6684   000B4C  1846               	xorwf	??_APP_DeviceJoystickTasks^0,w,c
  6685   000B4E  0BEF               	andlw	-17
  6686   000B50  1846               	xorwf	??_APP_DeviceJoystickTasks^0,w,c
  6687   000B52  6F01               	movwf	1,b
  6688                           
  6689                           ;../source/app_device_joystick.c: 181:         joystick_input.members.buttons.s6_1 = (AD
      +                          C_multiButton(ADC_CHANNEL_5) == 1) ? 1 : 0;
  6690   000B54  0E05               	movlw	5
  6691   000B56  EC5A  F00E         	call	_ADC_multiButton
  6692   000B5A  0441               	decf	?_ADC_multiButton^0,w,c
  6693   000B5C  1042               	iorwf	(?_ADC_multiButton+1)^0,w,c
  6694   000B5E  B4D8               	btfsc	status,2,c
  6695   000B60  EFB4  F005         	goto	u3041
  6696   000B64  EFB8  F005         	goto	u3040
  6697   000B68                     u3041:
  6698   000B68  6A46               	clrf	??_APP_DeviceJoystickTasks^0,c
  6699   000B6A  2A46               	incf	??_APP_DeviceJoystickTasks^0,f,c
  6700   000B6C  EFB9  F005         	goto	u3058
  6701   000B70                     u3040:
  6702   000B70  6A46               	clrf	??_APP_DeviceJoystickTasks^0,c
  6703   000B72                     u3058:
  6704   000B72  3A46               	swapf	??_APP_DeviceJoystickTasks^0,f,c
  6705   000B74  4646               	rlncf	??_APP_DeviceJoystickTasks^0,f,c
  6706   000B76  0105               	movlb	5	; () banked
  6707   000B78  5101               	movf	1,w,b
  6708   000B7A  1846               	xorwf	??_APP_DeviceJoystickTasks^0,w,c
  6709   000B7C  0BDF               	andlw	-33
  6710   000B7E  1846               	xorwf	??_APP_DeviceJoystickTasks^0,w,c
  6711   000B80  6F01               	movwf	1,b
  6712                           
  6713                           ;../source/app_device_joystick.c: 182:         joystick_input.members.buttons.s6_2 = (AD
      +                          C_multiButton(ADC_CHANNEL_5) == 2) ? 1 : 0;
  6714   000B82  0E05               	movlw	5
  6715   000B84  EC5A  F00E         	call	_ADC_multiButton
  6716   000B88  0E02               	movlw	2
  6717   000B8A  1841               	xorwf	?_ADC_multiButton^0,w,c
  6718   000B8C  1042               	iorwf	(?_ADC_multiButton+1)^0,w,c
  6719   000B8E  B4D8               	btfsc	status,2,c
  6720   000B90  EFCC  F005         	goto	u3061
  6721   000B94  EFD0  F005         	goto	u3060
  6722   000B98                     u3061:
  6723   000B98  6A46               	clrf	??_APP_DeviceJoystickTasks^0,c
  6724   000B9A  2A46               	incf	??_APP_DeviceJoystickTasks^0,f,c
  6725   000B9C  EFD1  F005         	goto	u3078
  6726   000BA0                     u3060:
  6727   000BA0  6A46               	clrf	??_APP_DeviceJoystickTasks^0,c
  6728   000BA2                     u3078:
  6729   000BA2  3A46               	swapf	??_APP_DeviceJoystickTasks^0,f,c
  6730   000BA4  4646               	rlncf	??_APP_DeviceJoystickTasks^0,f,c
  6731   000BA6  4646               	rlncf	??_APP_DeviceJoystickTasks^0,f,c
  6732   000BA8  0105               	movlb	5	; () banked
  6733   000BAA  5101               	movf	1,w,b
  6734   000BAC  1846               	xorwf	??_APP_DeviceJoystickTasks^0,w,c
  6735   000BAE  0BBF               	andlw	-65
  6736   000BB0  1846               	xorwf	??_APP_DeviceJoystickTasks^0,w,c
  6737   000BB2  6F01               	movwf	1,b
  6738                           
  6739                           ;../source/app_device_joystick.c: 183:         joystick_input.members.buttons.s6_3 = (AD
      +                          C_multiButton(ADC_CHANNEL_5) == 3) ? 1 : 0;
  6740   000BB4  0E05               	movlw	5
  6741   000BB6  EC5A  F00E         	call	_ADC_multiButton
  6742   000BBA  0E03               	movlw	3
  6743   000BBC  1841               	xorwf	?_ADC_multiButton^0,w,c
  6744   000BBE  1042               	iorwf	(?_ADC_multiButton+1)^0,w,c
  6745   000BC0  B4D8               	btfsc	status,2,c
  6746   000BC2  EFE5  F005         	goto	u3081
  6747   000BC6  EFE9  F005         	goto	u3080
  6748   000BCA                     u3081:
  6749   000BCA  6A46               	clrf	??_APP_DeviceJoystickTasks^0,c
  6750   000BCC  2A46               	incf	??_APP_DeviceJoystickTasks^0,f,c
  6751   000BCE  EFEA  F005         	goto	u3098
  6752   000BD2                     u3080:
  6753   000BD2  6A46               	clrf	??_APP_DeviceJoystickTasks^0,c
  6754   000BD4                     u3098:
  6755   000BD4  3246               	rrcf	??_APP_DeviceJoystickTasks^0,f,c
  6756   000BD6  3246               	rrcf	??_APP_DeviceJoystickTasks^0,f,c
  6757   000BD8  0105               	movlb	5	; () banked
  6758   000BDA  5101               	movf	1,w,b
  6759   000BDC  1846               	xorwf	??_APP_DeviceJoystickTasks^0,w,c
  6760   000BDE  0B7F               	andlw	-129
  6761   000BE0  1846               	xorwf	??_APP_DeviceJoystickTasks^0,w,c
  6762   000BE2  6F01               	movwf	1,b
  6763                           
  6764                           ;../source/app_device_joystick.c: 184:         joystick_input.members.buttons.s6_4 = (AD
      +                          C_multiButton(ADC_CHANNEL_5) == 4) ? 1 : 0;
  6765   000BE4  0E05               	movlw	5
  6766   000BE6  EC5A  F00E         	call	_ADC_multiButton
  6767   000BEA  0E04               	movlw	4
  6768   000BEC  1841               	xorwf	?_ADC_multiButton^0,w,c
  6769   000BEE  1042               	iorwf	(?_ADC_multiButton+1)^0,w,c
  6770   000BF0  B4D8               	btfsc	status,2,c
  6771   000BF2  EFFD  F005         	goto	u3101
  6772   000BF6  EF01  F006         	goto	u3100
  6773   000BFA                     u3101:
  6774   000BFA  6A46               	clrf	??_APP_DeviceJoystickTasks^0,c
  6775   000BFC  2A46               	incf	??_APP_DeviceJoystickTasks^0,f,c
  6776   000BFE  EF02  F006         	goto	u3118
  6777   000C02                     u3100:
  6778   000C02  6A46               	clrf	??_APP_DeviceJoystickTasks^0,c
  6779   000C04                     u3118:
  6780   000C04  0105               	movlb	5	; () banked
  6781   000C06  5102               	movf	2,w,b
  6782   000C08  1846               	xorwf	??_APP_DeviceJoystickTasks^0,w,c
  6783   000C0A  0BFE               	andlw	-2
  6784   000C0C  1846               	xorwf	??_APP_DeviceJoystickTasks^0,w,c
  6785   000C0E  6F02               	movwf	2,b
  6786                           
  6787                           ;../source/app_device_joystick.c: 185:         joystick_input.members.buttons.s8_1 = (AD
      +                          C_multiButton(ADC_CHANNEL_6) == 1) ? 1 : 0;
  6788   000C10  0E06               	movlw	6
  6789   000C12  EC5A  F00E         	call	_ADC_multiButton
  6790   000C16  0441               	decf	?_ADC_multiButton^0,w,c
  6791   000C18  1042               	iorwf	(?_ADC_multiButton+1)^0,w,c
  6792   000C1A  B4D8               	btfsc	status,2,c
  6793   000C1C  EF12  F006         	goto	u3121
  6794   000C20  EF16  F006         	goto	u3120
  6795   000C24                     u3121:
  6796   000C24  6A46               	clrf	??_APP_DeviceJoystickTasks^0,c
  6797   000C26  2A46               	incf	??_APP_DeviceJoystickTasks^0,f,c
  6798   000C28  EF17  F006         	goto	u3138
  6799   000C2C                     u3120:
  6800   000C2C  6A46               	clrf	??_APP_DeviceJoystickTasks^0,c
  6801   000C2E                     u3138:
  6802   000C2E  4646               	rlncf	??_APP_DeviceJoystickTasks^0,f,c
  6803   000C30  0105               	movlb	5	; () banked
  6804   000C32  5102               	movf	2,w,b
  6805   000C34  1846               	xorwf	??_APP_DeviceJoystickTasks^0,w,c
  6806   000C36  0BFD               	andlw	-3
  6807   000C38  1846               	xorwf	??_APP_DeviceJoystickTasks^0,w,c
  6808   000C3A  6F02               	movwf	2,b
  6809                           
  6810                           ;../source/app_device_joystick.c: 186:         joystick_input.members.buttons.s8_2 = (AD
      +                          C_multiButton(ADC_CHANNEL_6) == 2) ? 1 : 0;
  6811   000C3C  0E06               	movlw	6
  6812   000C3E  EC5A  F00E         	call	_ADC_multiButton
  6813   000C42  0E02               	movlw	2
  6814   000C44  1841               	xorwf	?_ADC_multiButton^0,w,c
  6815   000C46  1042               	iorwf	(?_ADC_multiButton+1)^0,w,c
  6816   000C48  B4D8               	btfsc	status,2,c
  6817   000C4A  EF29  F006         	goto	u3141
  6818   000C4E  EF2D  F006         	goto	u3140
  6819   000C52                     u3141:
  6820   000C52  6A46               	clrf	??_APP_DeviceJoystickTasks^0,c
  6821   000C54  2A46               	incf	??_APP_DeviceJoystickTasks^0,f,c
  6822   000C56  EF2E  F006         	goto	u3158
  6823   000C5A                     u3140:
  6824   000C5A  6A46               	clrf	??_APP_DeviceJoystickTasks^0,c
  6825   000C5C                     u3158:
  6826   000C5C  4646               	rlncf	??_APP_DeviceJoystickTasks^0,f,c
  6827   000C5E  4646               	rlncf	??_APP_DeviceJoystickTasks^0,f,c
  6828   000C60  0105               	movlb	5	; () banked
  6829   000C62  5102               	movf	2,w,b
  6830   000C64  1846               	xorwf	??_APP_DeviceJoystickTasks^0,w,c
  6831   000C66  0BFB               	andlw	-5
  6832   000C68  1846               	xorwf	??_APP_DeviceJoystickTasks^0,w,c
  6833   000C6A  6F02               	movwf	2,b
  6834                           
  6835                           ;../source/app_device_joystick.c: 187:         joystick_input.members.buttons.s8_3 = (AD
      +                          C_multiButton(ADC_CHANNEL_6) == 3) ? 1 : 0;
  6836   000C6C  0E06               	movlw	6
  6837   000C6E  EC5A  F00E         	call	_ADC_multiButton
  6838   000C72  0E03               	movlw	3
  6839   000C74  1841               	xorwf	?_ADC_multiButton^0,w,c
  6840   000C76  1042               	iorwf	(?_ADC_multiButton+1)^0,w,c
  6841   000C78  B4D8               	btfsc	status,2,c
  6842   000C7A  EF41  F006         	goto	u3161
  6843   000C7E  EF45  F006         	goto	u3160
  6844   000C82                     u3161:
  6845   000C82  6A46               	clrf	??_APP_DeviceJoystickTasks^0,c
  6846   000C84  2A46               	incf	??_APP_DeviceJoystickTasks^0,f,c
  6847   000C86  EF46  F006         	goto	u3178
  6848   000C8A                     u3160:
  6849   000C8A  6A46               	clrf	??_APP_DeviceJoystickTasks^0,c
  6850   000C8C                     u3178:
  6851   000C8C  4646               	rlncf	??_APP_DeviceJoystickTasks^0,f,c
  6852   000C8E  4646               	rlncf	??_APP_DeviceJoystickTasks^0,f,c
  6853   000C90  4646               	rlncf	??_APP_DeviceJoystickTasks^0,f,c
  6854   000C92  0105               	movlb	5	; () banked
  6855   000C94  5102               	movf	2,w,b
  6856   000C96  1846               	xorwf	??_APP_DeviceJoystickTasks^0,w,c
  6857   000C98  0BF7               	andlw	-9
  6858   000C9A  1846               	xorwf	??_APP_DeviceJoystickTasks^0,w,c
  6859   000C9C  6F02               	movwf	2,b
  6860                           
  6861                           ;../source/app_device_joystick.c: 188:         joystick_input.members.buttons.s8_4 = (AD
      +                          C_multiButton(ADC_CHANNEL_6) == 4) ? 1 : 0;
  6862   000C9E  0E06               	movlw	6
  6863   000CA0  EC5A  F00E         	call	_ADC_multiButton
  6864   000CA4  0E04               	movlw	4
  6865   000CA6  1841               	xorwf	?_ADC_multiButton^0,w,c
  6866   000CA8  1042               	iorwf	(?_ADC_multiButton+1)^0,w,c
  6867   000CAA  B4D8               	btfsc	status,2,c
  6868   000CAC  EF5A  F006         	goto	u3181
  6869   000CB0  EF5E  F006         	goto	u3180
  6870   000CB4                     u3181:
  6871   000CB4  6A46               	clrf	??_APP_DeviceJoystickTasks^0,c
  6872   000CB6  2A46               	incf	??_APP_DeviceJoystickTasks^0,f,c
  6873   000CB8  EF5F  F006         	goto	u3198
  6874   000CBC                     u3180:
  6875   000CBC  6A46               	clrf	??_APP_DeviceJoystickTasks^0,c
  6876   000CBE                     u3198:
  6877   000CBE  3A46               	swapf	??_APP_DeviceJoystickTasks^0,f,c
  6878   000CC0  0105               	movlb	5	; () banked
  6879   000CC2  5102               	movf	2,w,b
  6880   000CC4  1846               	xorwf	??_APP_DeviceJoystickTasks^0,w,c
  6881   000CC6  0BEF               	andlw	-17
  6882   000CC8  1846               	xorwf	??_APP_DeviceJoystickTasks^0,w,c
  6883   000CCA  6F02               	movwf	2,b
  6884                           
  6885                           ;../source/app_device_joystick.c: 189:         joystick_input.members.buttons.s8_5 = (AD
      +                          C_multiButton(ADC_CHANNEL_6) == 5) ? 1 : 0;
  6886   000CCC  0E06               	movlw	6
  6887   000CCE  EC5A  F00E         	call	_ADC_multiButton
  6888   000CD2  0E05               	movlw	5
  6889   000CD4  1841               	xorwf	?_ADC_multiButton^0,w,c
  6890   000CD6  1042               	iorwf	(?_ADC_multiButton+1)^0,w,c
  6891   000CD8  B4D8               	btfsc	status,2,c
  6892   000CDA  EF71  F006         	goto	u3201
  6893   000CDE  EF75  F006         	goto	u3200
  6894   000CE2                     u3201:
  6895   000CE2  6A46               	clrf	??_APP_DeviceJoystickTasks^0,c
  6896   000CE4  2A46               	incf	??_APP_DeviceJoystickTasks^0,f,c
  6897   000CE6  EF76  F006         	goto	u3218
  6898   000CEA                     u3200:
  6899   000CEA  6A46               	clrf	??_APP_DeviceJoystickTasks^0,c
  6900   000CEC                     u3218:
  6901   000CEC  3A46               	swapf	??_APP_DeviceJoystickTasks^0,f,c
  6902   000CEE  4646               	rlncf	??_APP_DeviceJoystickTasks^0,f,c
  6903   000CF0  0105               	movlb	5	; () banked
  6904   000CF2  5102               	movf	2,w,b
  6905   000CF4  1846               	xorwf	??_APP_DeviceJoystickTasks^0,w,c
  6906   000CF6  0BDF               	andlw	-33
  6907   000CF8  1846               	xorwf	??_APP_DeviceJoystickTasks^0,w,c
  6908   000CFA  6F02               	movwf	2,b
  6909                           
  6910                           ;../source/app_device_joystick.c: 191:         joystick_input.members.buttons.s1 = BUTTO
      +                          N_IsPressed(BUTTON_S1);
  6911   000CFC  0E17               	movlw	23
  6912   000CFE  ECF7  F011         	call	_BUTTON_IsPressed
  6913   000D02  6E46               	movwf	??_APP_DeviceJoystickTasks^0,c
  6914   000D04  3A46               	swapf	??_APP_DeviceJoystickTasks^0,f,c
  6915   000D06  4646               	rlncf	??_APP_DeviceJoystickTasks^0,f,c
  6916   000D08  4646               	rlncf	??_APP_DeviceJoystickTasks^0,f,c
  6917   000D0A  0105               	movlb	5	; () banked
  6918   000D0C  5102               	movf	2,w,b
  6919   000D0E  1846               	xorwf	??_APP_DeviceJoystickTasks^0,w,c
  6920   000D10  0BBF               	andlw	-65
  6921   000D12  1846               	xorwf	??_APP_DeviceJoystickTasks^0,w,c
  6922   000D14  6F02               	movwf	2,b
  6923                           
  6924                           ;../source/app_device_joystick.c: 192:         joystick_input.members.buttons.s5 = BUTTO
      +                          N_IsPressed(BUTTON_S5);
  6925   000D16  0E18               	movlw	24
  6926   000D18  ECF7  F011         	call	_BUTTON_IsPressed
  6927   000D1C  6E46               	movwf	??_APP_DeviceJoystickTasks^0,c
  6928   000D1E  3246               	rrcf	??_APP_DeviceJoystickTasks^0,f,c
  6929   000D20  3246               	rrcf	??_APP_DeviceJoystickTasks^0,f,c
  6930   000D22  0105               	movlb	5	; () banked
  6931   000D24  5102               	movf	2,w,b
  6932   000D26  1846               	xorwf	??_APP_DeviceJoystickTasks^0,w,c
  6933   000D28  0B7F               	andlw	-129
  6934   000D2A  1846               	xorwf	??_APP_DeviceJoystickTasks^0,w,c
  6935   000D2C  6F02               	movwf	2,b
  6936                           
  6937                           ;../source/app_device_joystick.c: 193:         joystick_input.members.buttons.s7_1 = BUT
      +                          TON_IsPressed(BUTTON_S7_1);
  6938   000D2E  0E19               	movlw	25
  6939   000D30  ECF7  F011         	call	_BUTTON_IsPressed
  6940   000D34  6E46               	movwf	??_APP_DeviceJoystickTasks^0,c
  6941   000D36  0105               	movlb	5	; () banked
  6942   000D38  5103               	movf	3,w,b
  6943   000D3A  1846               	xorwf	??_APP_DeviceJoystickTasks^0,w,c
  6944   000D3C  0BFE               	andlw	-2
  6945   000D3E  1846               	xorwf	??_APP_DeviceJoystickTasks^0,w,c
  6946   000D40  6F03               	movwf	3,b
  6947                           
  6948                           ;../source/app_device_joystick.c: 194:         joystick_input.members.buttons.s7_2 = BUT
      +                          TON_IsPressed(BUTTON_S7_2);
  6949   000D42  0E1A               	movlw	26
  6950   000D44  ECF7  F011         	call	_BUTTON_IsPressed
  6951   000D48  6E46               	movwf	??_APP_DeviceJoystickTasks^0,c
  6952   000D4A  4646               	rlncf	??_APP_DeviceJoystickTasks^0,f,c
  6953   000D4C  0105               	movlb	5	; () banked
  6954   000D4E  5103               	movf	3,w,b
  6955   000D50  1846               	xorwf	??_APP_DeviceJoystickTasks^0,w,c
  6956   000D52  0BFD               	andlw	-3
  6957   000D54  1846               	xorwf	??_APP_DeviceJoystickTasks^0,w,c
  6958   000D56  6F03               	movwf	3,b
  6959                           
  6960                           ;../source/app_device_joystick.c: 195:         joystick_input.members.buttons.s9 = BUTTO
      +                          N_IsPressed(BUTTON_S9);
  6961   000D58  0E1B               	movlw	27
  6962   000D5A  ECF7  F011         	call	_BUTTON_IsPressed
  6963   000D5E  6E46               	movwf	??_APP_DeviceJoystickTasks^0,c
  6964   000D60  4646               	rlncf	??_APP_DeviceJoystickTasks^0,f,c
  6965   000D62  4646               	rlncf	??_APP_DeviceJoystickTasks^0,f,c
  6966   000D64  0105               	movlb	5	; () banked
  6967   000D66  5103               	movf	3,w,b
  6968   000D68  1846               	xorwf	??_APP_DeviceJoystickTasks^0,w,c
  6969   000D6A  0BFB               	andlw	-5
  6970   000D6C  1846               	xorwf	??_APP_DeviceJoystickTasks^0,w,c
  6971   000D6E  6F03               	movwf	3,b
  6972                           
  6973                           ;../source/app_device_joystick.c: 196:         joystick_input.members.buttons.s10 = BUTT
      +                          ON_IsPressed(BUTTON_S10);
  6974   000D70  0E1C               	movlw	28
  6975   000D72  ECF7  F011         	call	_BUTTON_IsPressed
  6976   000D76  6E46               	movwf	??_APP_DeviceJoystickTasks^0,c
  6977   000D78  4646               	rlncf	??_APP_DeviceJoystickTasks^0,f,c
  6978   000D7A  4646               	rlncf	??_APP_DeviceJoystickTasks^0,f,c
  6979   000D7C  4646               	rlncf	??_APP_DeviceJoystickTasks^0,f,c
  6980   000D7E  0105               	movlb	5	; () banked
  6981   000D80  5103               	movf	3,w,b
  6982   000D82  1846               	xorwf	??_APP_DeviceJoystickTasks^0,w,c
  6983   000D84  0BF7               	andlw	-9
  6984   000D86  1846               	xorwf	??_APP_DeviceJoystickTasks^0,w,c
  6985   000D88  6F03               	movwf	3,b
  6986                           
  6987                           ;../source/app_device_joystick.c: 207:         joystick_input.members.analog_stick.X = A
      +                          DC_Readbits(ADC_CHANNEL_0)/4;
  6988   000D8A  0E00               	movlw	0
  6989   000D8C  ECC1  F013         	call	_ADC_Readbits
  6990   000D90  90D8               	bcf	status,0,c
  6991   000D92  323B               	rrcf	(?_ADC_Readbits+1)^0,f,c
  6992   000D94  323A               	rrcf	?_ADC_Readbits^0,f,c
  6993   000D96  90D8               	bcf	status,0,c
  6994   000D98  323B               	rrcf	(?_ADC_Readbits+1)^0,f,c
  6995   000D9A  323A               	rrcf	?_ADC_Readbits^0,f,c
  6996   000D9C  503A               	movf	?_ADC_Readbits^0,w,c
  6997   000D9E  0105               	movlb	5	; () banked
  6998   000DA0  6F04               	movwf	4,b
  6999                           
  7000                           ;../source/app_device_joystick.c: 208:         joystick_input.members.analog_stick.Y = A
      +                          DC_Readbits(ADC_CHANNEL_1)/4;
  7001   000DA2  0E01               	movlw	1
  7002   000DA4  ECC1  F013         	call	_ADC_Readbits
  7003   000DA8  90D8               	bcf	status,0,c
  7004   000DAA  323B               	rrcf	(?_ADC_Readbits+1)^0,f,c
  7005   000DAC  323A               	rrcf	?_ADC_Readbits^0,f,c
  7006   000DAE  90D8               	bcf	status,0,c
  7007   000DB0  323B               	rrcf	(?_ADC_Readbits+1)^0,f,c
  7008   000DB2  323A               	rrcf	?_ADC_Readbits^0,f,c
  7009   000DB4  503A               	movf	?_ADC_Readbits^0,w,c
  7010   000DB6  0105               	movlb	5	; () banked
  7011   000DB8  6F05               	movwf	5,b
  7012   000DBA                     
  7013                           ; BSR set to: 5
  7014                           ;../source/app_device_joystick.c: 214:         lastTransmission = USBTransferOnePacket(1
      +                          ,1,(uint8_t*)&joystick_input,sizeof(joystick_input));
  7015   000DBA  0E01               	movlw	1
  7016   000DBC  6E3A               	movwf	USBTransferOnePacket@dir^0,c
  7017   000DBE  0E00               	movlw	0
  7018   000DC0  6E3B               	movwf	USBTransferOnePacket@data^0,c
  7019   000DC2  0E05               	movlw	5
  7020   000DC4  6E3C               	movwf	(USBTransferOnePacket@data+1)^0,c
  7021   000DC6  0E06               	movlw	6
  7022   000DC8  6E3D               	movwf	USBTransferOnePacket@len^0,c
  7023   000DCA  0E01               	movlw	1
  7024   000DCC  ECBB  F00D         	call	_USBTransferOnePacket
  7025   000DD0  C03A  F01B         	movff	?_USBTransferOnePacket,_lastTransmission
  7026   000DD4  C03B  F01C         	movff	?_USBTransferOnePacket+1,_lastTransmission+1
  7027   000DD8                     l621:
  7028   000DD8  0012               	return		;funcret
  7029   000DDA                     __end_of_APP_DeviceJoystickTasks:
  7030                           	callstack 0
  7031                           
  7032 ;; *************** function _USBTransferOnePacket *****************
  7033 ;; Defined at:
  7034 ;;		line 955 in file "../source/usb/usb_device.c"
  7035 ;; Parameters:    Size  Location     Type
  7036 ;;  ep              1    wreg     unsigned char 
  7037 ;;  dir             1    0[COMRAM] unsigned char 
  7038 ;;  data            2    1[COMRAM] PTR unsigned char 
  7039 ;;		 -> joystick_input(6), 
  7040 ;;  len             1    3[COMRAM] unsigned char 
  7041 ;; Auto vars:     Size  Location     Type
  7042 ;;  ep              1    8[COMRAM] unsigned char 
  7043 ;;  handle          2    9[COMRAM] PTR volatile struct __BD
  7044 ;;		 -> RAM(2047), NULL(0), BDT(32), 
  7045 ;; Return value:  Size  Location     Type
  7046 ;;                  2    0[COMRAM] PTR void 
  7047 ;; Registers used:
  7048 ;;		wreg, fsr2l, fsr2h, status,2, status,0, prodl, prodh
  7049 ;; Tracked objects:
  7050 ;;		On entry : 0/0
  7051 ;;		On exit  : 0/0
  7052 ;;		Unchanged: 0/0
  7053 ;; Data sizes:     COMRAM   BANK0   BANK1   BANK2   BANK3   BANK4   BANK5   BANK6   BANK7
  7054 ;;      Params:         4       0       0       0       0       0       0       0       0
  7055 ;;      Locals:         3       0       0       0       0       0       0       0       0
  7056 ;;      Temps:          4       0       0       0       0       0       0       0       0
  7057 ;;      Totals:        11       0       0       0       0       0       0       0       0
  7058 ;;Total ram usage:       11 bytes
  7059 ;; Hardware stack levels used: 1
  7060 ;; Hardware stack levels required when called: 1
  7061 ;; This function calls:
  7062 ;;		Nothing
  7063 ;; This function is called by:
  7064 ;;		_APP_DeviceJoystickTasks
  7065 ;; This function uses a non-reentrant model
  7066 ;;
  7067                           
  7068                           	psect	text33
  7069   001B76                     __ptext33:
  7070                           	callstack 0
  7071   001B76                     _USBTransferOnePacket:
  7072                           	callstack 28
  7073                           
  7074                           ;incstack = 0
  7075                           ;USBTransferOnePacket@ep stored from wreg
  7076   001B76  6E42               	movwf	USBTransferOnePacket@ep^0,c
  7077   001B78                     
  7078                           ;../source/usb/usb_device.c: 955: void* USBTransferOnePacket(uint8_t ep,uint8_t dir,uint
      +                          8_t* data,uint8_t len);../source/usb/usb_device.c: 956: {;../source/usb/usb_device.c: 95
      +                          7:     volatile BDT_ENTRY* handle;;../source/usb/usb_device.c: 960:     if(dir != 0)
  7079   001B78  503A               	movf	USBTransferOnePacket@dir^0,w,c
  7080   001B7A  B4D8               	btfsc	status,2,c
  7081   001B7C  EFC2  F00D         	goto	u2461
  7082   001B80  EFC4  F00D         	goto	u2460
  7083   001B84                     u2461:
  7084   001B84  EFD2  F00D         	goto	l3317
  7085   001B88                     u2460:
  7086   001B88                     
  7087                           ;../source/usb/usb_device.c: 961:     {;../source/usb/usb_device.c: 963:         handle 
      +                          = pBDTEntryIn[ep];
  7088   001B88  5042               	movf	USBTransferOnePacket@ep^0,w,c
  7089   001B8A  0D02               	mullw	2
  7090   001B8C  0E13               	movlw	low _pBDTEntryIn
  7091   001B8E  24F3               	addwf	243,w,c
  7092   001B90  6ED9               	movwf	fsr2l,c
  7093   001B92  0E00               	movlw	high _pBDTEntryIn
  7094   001B94  20F4               	addwfc	prodh,w,c
  7095   001B96  6EDA               	movwf	fsr2h,c
  7096   001B98  CFDE F043          	movff	postinc2,USBTransferOnePacket@handle
  7097   001B9C  CFDD F044          	movff	postdec2,USBTransferOnePacket@handle+1
  7098                           
  7099                           ;../source/usb/usb_device.c: 964:     }
  7100   001BA0  EFDE  F00D         	goto	l3319
  7101   001BA4                     l3317:
  7102                           
  7103                           ;../source/usb/usb_device.c: 966:     {;../source/usb/usb_device.c: 968:         handle 
      +                          = pBDTEntryOut[ep];
  7104   001BA4  5042               	movf	USBTransferOnePacket@ep^0,w,c
  7105   001BA6  0D02               	mullw	2
  7106   001BA8  0E17               	movlw	low _pBDTEntryOut
  7107   001BAA  24F3               	addwf	243,w,c
  7108   001BAC  6ED9               	movwf	fsr2l,c
  7109   001BAE  0E00               	movlw	high _pBDTEntryOut
  7110   001BB0  20F4               	addwfc	prodh,w,c
  7111   001BB2  6EDA               	movwf	fsr2h,c
  7112   001BB4  CFDE F043          	movff	postinc2,USBTransferOnePacket@handle
  7113   001BB8  CFDD F044          	movff	postdec2,USBTransferOnePacket@handle+1
  7114   001BBC                     l3319:
  7115                           
  7116                           ;../source/usb/usb_device.c: 973:     if(handle == 0)
  7117   001BBC  5043               	movf	USBTransferOnePacket@handle^0,w,c
  7118   001BBE  1044               	iorwf	(USBTransferOnePacket@handle+1)^0,w,c
  7119   001BC0  A4D8               	btfss	status,2,c
  7120   001BC2  EFE5  F00D         	goto	u2471
  7121   001BC6  EFE7  F00D         	goto	u2470
  7122   001BCA                     u2471:
  7123   001BCA  EFED  F00D         	goto	l3325
  7124   001BCE                     u2470:
  7125   001BCE                     
  7126                           ;../source/usb/usb_device.c: 974:     {;../source/usb/usb_device.c: 975:         return 
      +                          0;
  7127   001BCE  0E00               	movlw	0
  7128   001BD0  6E3A               	movwf	?_USBTransferOnePacket^0,c
  7129   001BD2  0E00               	movlw	0
  7130   001BD4  6E3B               	movwf	(?_USBTransferOnePacket+1)^0,c
  7131   001BD6  EF59  F00E         	goto	l278
  7132   001BDA                     l3325:
  7133                           
  7134                           ;../source/usb/usb_device.c: 989:     handle->ADR = ((uint16_t)(data));
  7135   001BDA  EE20 F002          	lfsr	2,2
  7136   001BDE  5043               	movf	USBTransferOnePacket@handle^0,w,c
  7137   001BE0  26D9               	addwf	fsr2l,f,c
  7138   001BE2  5044               	movf	(USBTransferOnePacket@handle+1)^0,w,c
  7139   001BE4  22DA               	addwfc	fsr2h,f,c
  7140   001BE6  C03B  FFDE         	movff	USBTransferOnePacket@data,postinc2
  7141   001BEA  C03C  FFDD         	movff	USBTransferOnePacket@data+1,postdec2
  7142                           
  7143                           ;../source/usb/usb_device.c: 990:     handle->CNT = len;
  7144   001BEE  EE20 F001          	lfsr	2,1
  7145   001BF2  5043               	movf	USBTransferOnePacket@handle^0,w,c
  7146   001BF4  26D9               	addwf	fsr2l,f,c
  7147   001BF6  5044               	movf	(USBTransferOnePacket@handle+1)^0,w,c
  7148   001BF8  22DA               	addwfc	fsr2h,f,c
  7149   001BFA  C03D  FFDF         	movff	USBTransferOnePacket@len,indf2
  7150   001BFE                     
  7151                           ;../source/usb/usb_device.c: 991:     handle->STAT.Val &= 0x40;
  7152   001BFE  C043  FFD9         	movff	USBTransferOnePacket@handle,fsr2l
  7153   001C02  C044  FFDA         	movff	USBTransferOnePacket@handle+1,fsr2h
  7154   001C06  0E40               	movlw	64
  7155   001C08  16DF               	andwf	indf2,f,c
  7156   001C0A                     
  7157                           ;../source/usb/usb_device.c: 992:     handle->STAT.Val |= (0x08 & 0x08);
  7158   001C0A  C043  FFD9         	movff	USBTransferOnePacket@handle,fsr2l
  7159   001C0E  C044  FFDA         	movff	USBTransferOnePacket@handle+1,fsr2h
  7160   001C12  0E00               	movlw	0
  7161   001C14  86DB               	bsf	plusw2,3,c
  7162   001C16                     
  7163                           ;../source/usb/usb_device.c: 993:     handle->STAT.Val |= 0x80;
  7164   001C16  C043  FFD9         	movff	USBTransferOnePacket@handle,fsr2l
  7165   001C1A  C044  FFDA         	movff	USBTransferOnePacket@handle+1,fsr2h
  7166   001C1E  0E00               	movlw	0
  7167   001C20  8EDB               	bsf	plusw2,7,c
  7168   001C22                     
  7169                           ;../source/usb/usb_device.c: 996:     if(dir != 0)
  7170   001C22  503A               	movf	USBTransferOnePacket@dir^0,w,c
  7171   001C24  B4D8               	btfsc	status,2,c
  7172   001C26  EF17  F00E         	goto	u2481
  7173   001C2A  EF19  F00E         	goto	u2480
  7174   001C2E                     u2481:
  7175   001C2E  EF38  F00E         	goto	l3337
  7176   001C32                     u2480:
  7177   001C32                     
  7178                           ;../source/usb/usb_device.c: 997:     {;../source/usb/usb_device.c: 999:         pBDTEnt
      +                          ryIn[ep] = (BDT_ENTRY*)(((uint16_t)pBDTEntryIn[ep]) ^ 0x0004);
  7179   001C32  5042               	movf	USBTransferOnePacket@ep^0,w,c
  7180   001C34  0D02               	mullw	2
  7181   001C36  0E13               	movlw	low _pBDTEntryIn
  7182   001C38  24F3               	addwf	243,w,c
  7183   001C3A  6ED9               	movwf	fsr2l,c
  7184   001C3C  0E00               	movlw	high _pBDTEntryIn
  7185   001C3E  20F4               	addwfc	prodh,w,c
  7186   001C40  6EDA               	movwf	fsr2h,c
  7187   001C42  CFDE F03E          	movff	postinc2,??_USBTransferOnePacket
  7188   001C46  CFDD F03F          	movff	postdec2,??_USBTransferOnePacket+1
  7189   001C4A  0E04               	movlw	4
  7190   001C4C  183E               	xorwf	??_USBTransferOnePacket^0,w,c
  7191   001C4E  6E40               	movwf	(??_USBTransferOnePacket+2)^0,c
  7192   001C50  503F               	movf	(??_USBTransferOnePacket+1)^0,w,c
  7193   001C52  6E41               	movwf	(??_USBTransferOnePacket+3)^0,c
  7194   001C54  5042               	movf	USBTransferOnePacket@ep^0,w,c
  7195   001C56  0D02               	mullw	2
  7196   001C58  0E13               	movlw	low _pBDTEntryIn
  7197   001C5A  24F3               	addwf	243,w,c
  7198   001C5C  6ED9               	movwf	fsr2l,c
  7199   001C5E  0E00               	movlw	high _pBDTEntryIn
  7200   001C60  20F4               	addwfc	prodh,w,c
  7201   001C62  6EDA               	movwf	fsr2h,c
  7202   001C64  C040  FFDE         	movff	??_USBTransferOnePacket+2,postinc2
  7203   001C68  C041  FFDD         	movff	??_USBTransferOnePacket+3,postdec2
  7204                           
  7205                           ;../source/usb/usb_device.c: 1000:     }
  7206   001C6C  EF55  F00E         	goto	l3339
  7207   001C70                     l3337:
  7208                           
  7209                           ;../source/usb/usb_device.c: 1002:     {;../source/usb/usb_device.c: 1004:         pBDTE
      +                          ntryOut[ep] = (BDT_ENTRY*)(((uint16_t)pBDTEntryOut[ep]) ^ 0x0004);
  7210   001C70  5042               	movf	USBTransferOnePacket@ep^0,w,c
  7211   001C72  0D02               	mullw	2
  7212   001C74  0E17               	movlw	low _pBDTEntryOut
  7213   001C76  24F3               	addwf	243,w,c
  7214   001C78  6ED9               	movwf	fsr2l,c
  7215   001C7A  0E00               	movlw	high _pBDTEntryOut
  7216   001C7C  20F4               	addwfc	prodh,w,c
  7217   001C7E  6EDA               	movwf	fsr2h,c
  7218   001C80  CFDE F03E          	movff	postinc2,??_USBTransferOnePacket
  7219   001C84  CFDD F03F          	movff	postdec2,??_USBTransferOnePacket+1
  7220   001C88  0E04               	movlw	4
  7221   001C8A  183E               	xorwf	??_USBTransferOnePacket^0,w,c
  7222   001C8C  6E40               	movwf	(??_USBTransferOnePacket+2)^0,c
  7223   001C8E  503F               	movf	(??_USBTransferOnePacket+1)^0,w,c
  7224   001C90  6E41               	movwf	(??_USBTransferOnePacket+3)^0,c
  7225   001C92  5042               	movf	USBTransferOnePacket@ep^0,w,c
  7226   001C94  0D02               	mullw	2
  7227   001C96  0E17               	movlw	low _pBDTEntryOut
  7228   001C98  24F3               	addwf	243,w,c
  7229   001C9A  6ED9               	movwf	fsr2l,c
  7230   001C9C  0E00               	movlw	high _pBDTEntryOut
  7231   001C9E  20F4               	addwfc	prodh,w,c
  7232   001CA0  6EDA               	movwf	fsr2h,c
  7233   001CA2  C040  FFDE         	movff	??_USBTransferOnePacket+2,postinc2
  7234   001CA6  C041  FFDD         	movff	??_USBTransferOnePacket+3,postdec2
  7235   001CAA                     l3339:
  7236                           
  7237                           ;../source/usb/usb_device.c: 1006:     return (void*)handle;
  7238   001CAA  C043  F03A         	movff	USBTransferOnePacket@handle,?_USBTransferOnePacket
  7239   001CAE  C044  F03B         	movff	USBTransferOnePacket@handle+1,?_USBTransferOnePacket+1
  7240   001CB2                     l278:
  7241   001CB2  0012               	return		;funcret
  7242   001CB4                     __end_of_USBTransferOnePacket:
  7243                           	callstack 0
  7244                           
  7245 ;; *************** function _BUTTON_IsPressed *****************
  7246 ;; Defined at:
  7247 ;;		line 79 in file "../source/buttons.c"
  7248 ;; Parameters:    Size  Location     Type
  7249 ;;  button          1    wreg     enum E3201
  7250 ;; Auto vars:     Size  Location     Type
  7251 ;;  button          1    2[COMRAM] enum E3201
  7252 ;; Return value:  Size  Location     Type
  7253 ;;                  1    wreg      _Bool 
  7254 ;; Registers used:
  7255 ;;		wreg, status,2, status,0
  7256 ;; Tracked objects:
  7257 ;;		On entry : 0/0
  7258 ;;		On exit  : 0/0
  7259 ;;		Unchanged: 0/0
  7260 ;; Data sizes:     COMRAM   BANK0   BANK1   BANK2   BANK3   BANK4   BANK5   BANK6   BANK7
  7261 ;;      Params:         0       0       0       0       0       0       0       0       0
  7262 ;;      Locals:         1       0       0       0       0       0       0       0       0
  7263 ;;      Temps:          2       0       0       0       0       0       0       0       0
  7264 ;;      Totals:         3       0       0       0       0       0       0       0       0
  7265 ;;Total ram usage:        3 bytes
  7266 ;; Hardware stack levels used: 1
  7267 ;; Hardware stack levels required when called: 1
  7268 ;; This function calls:
  7269 ;;		Nothing
  7270 ;; This function is called by:
  7271 ;;		_APP_DeviceJoystickTasks
  7272 ;; This function uses a non-reentrant model
  7273 ;;
  7274                           
  7275                           	psect	text34
  7276   0023EE                     __ptext34:
  7277                           	callstack 0
  7278   0023EE                     _BUTTON_IsPressed:
  7279                           	callstack 28
  7280                           
  7281                           ;incstack = 0
  7282                           ;BUTTON_IsPressed@button stored from wreg
  7283   0023EE  6E3C               	movwf	BUTTON_IsPressed@button^0,c
  7284   0023F0                     
  7285                           ;../source/buttons.c: 79: _Bool BUTTON_IsPressed(BUTTON button);../source/buttons.c: 80:
      +                           {;../source/buttons.c: 81:     switch(button)
  7286   0023F0  EF3F  F012         	goto	l2097
  7287   0023F4                     l12:
  7288                           
  7289                           ;../source/buttons.c: 84:             return ( (PORTCbits.RC6 == 0) ? 1 : 0);
  7290   0023F4  AC82               	btfss	130,6,c	;volatile
  7291   0023F6  EFFF  F011         	goto	u841
  7292   0023FA  EF02  F012         	goto	u840
  7293   0023FE                     u841:
  7294   0023FE  0E01               	movlw	1
  7295   002400  EF03  F012         	goto	u850
  7296   002404                     u840:
  7297   002404  0E00               	movlw	0
  7298   002406                     u850:
  7299   002406  EF68  F012         	goto	l13
  7300   00240A                     l14:
  7301                           
  7302                           ;../source/buttons.c: 87:             return ( (PORTCbits.RC7 == 0) ? 1 : 0);
  7303   00240A  AE82               	btfss	130,7,c	;volatile
  7304   00240C  EF0A  F012         	goto	u861
  7305   002410  EF0D  F012         	goto	u860
  7306   002414                     u861:
  7307   002414  0E01               	movlw	1
  7308   002416  EF0E  F012         	goto	u870
  7309   00241A                     u860:
  7310   00241A  0E00               	movlw	0
  7311   00241C                     u870:
  7312   00241C  EF68  F012         	goto	l13
  7313   002420                     l15:
  7314                           
  7315                           ;../source/buttons.c: 90:             return ( (PORTDbits.RD4 == 0) ? 1 : 0);
  7316   002420  A883               	btfss	131,4,c	;volatile
  7317   002422  EF15  F012         	goto	u881
  7318   002426  EF18  F012         	goto	u880
  7319   00242A                     u881:
  7320   00242A  0E01               	movlw	1
  7321   00242C  EF19  F012         	goto	u890
  7322   002430                     u880:
  7323   002430  0E00               	movlw	0
  7324   002432                     u890:
  7325   002432  EF68  F012         	goto	l13
  7326   002436                     l16:
  7327                           
  7328                           ;../source/buttons.c: 93:             return ( (PORTDbits.RD5 == 0) ? 1 : 0);
  7329   002436  AA83               	btfss	131,5,c	;volatile
  7330   002438  EF20  F012         	goto	u901
  7331   00243C  EF23  F012         	goto	u900
  7332   002440                     u901:
  7333   002440  0E01               	movlw	1
  7334   002442  EF24  F012         	goto	u910
  7335   002446                     u900:
  7336   002446  0E00               	movlw	0
  7337   002448                     u910:
  7338   002448  EF68  F012         	goto	l13
  7339   00244C                     l17:
  7340                           
  7341                           ;../source/buttons.c: 96:             return ( (PORTDbits.RD6 == 0) ? 1 : 0);
  7342   00244C  AC83               	btfss	131,6,c	;volatile
  7343   00244E  EF2B  F012         	goto	u921
  7344   002452  EF2E  F012         	goto	u920
  7345   002456                     u921:
  7346   002456  0E01               	movlw	1
  7347   002458  EF2F  F012         	goto	u930
  7348   00245C                     u920:
  7349   00245C  0E00               	movlw	0
  7350   00245E                     u930:
  7351   00245E  EF68  F012         	goto	l13
  7352   002462                     l18:
  7353                           
  7354                           ;../source/buttons.c: 99:             return ( (PORTDbits.RD7 == 0) ? 1 : 0);
  7355   002462  AE83               	btfss	131,7,c	;volatile
  7356   002464  EF36  F012         	goto	u941
  7357   002468  EF39  F012         	goto	u940
  7358   00246C                     u941:
  7359   00246C  0E01               	movlw	1
  7360   00246E  EF3A  F012         	goto	u950
  7361   002472                     u940:
  7362   002472  0E00               	movlw	0
  7363   002474                     u950:
  7364   002474  EF68  F012         	goto	l13
  7365   002478                     l2091:
  7366                           
  7367                           ;../source/buttons.c: 102:             return 0;
  7368   002478  0E00               	movlw	0
  7369   00247A  EF68  F012         	goto	l13
  7370   00247E                     l2097:
  7371   00247E  503C               	movf	BUTTON_IsPressed@button^0,w,c
  7372   002480  6E3A               	movwf	??_BUTTON_IsPressed^0,c
  7373   002482  6A3B               	clrf	(??_BUTTON_IsPressed+1)^0,c
  7374                           
  7375                           ; Switch on 2 bytes has been partitioned into a top level switch of size 1, and 1 sub-sw
      +                          itches
  7376                           ; Switch size 1, requested type "simple"
  7377                           ; Number of cases is 1, Range of values is 0 to 0
  7378                           ; switch strategies available:
  7379                           ; Name         Instructions Cycles
  7380                           ; simple_byte            4     3 (average)
  7381                           ;	Chosen strategy is simple_byte
  7382   002484  503B               	movf	(??_BUTTON_IsPressed+1)^0,w,c
  7383   002486  0A00               	xorlw	0	; case 0
  7384   002488  B4D8               	btfsc	status,2,c
  7385   00248A  EF49  F012         	goto	l3815
  7386   00248E  EF3C  F012         	goto	l2091
  7387   002492                     l3815:
  7388                           
  7389                           ; Switch size 1, requested type "simple"
  7390                           ; Number of cases is 7, Range of values is 0 to 28
  7391                           ; switch strategies available:
  7392                           ; Name         Instructions Cycles
  7393                           ; simple_byte           22    12 (average)
  7394                           ;	Chosen strategy is simple_byte
  7395   002492  503A               	movf	??_BUTTON_IsPressed^0,w,c
  7396   002494  0A00               	xorlw	0	; case 0
  7397   002496  B4D8               	btfsc	status,2,c
  7398   002498  EF3C  F012         	goto	l2091
  7399   00249C  0A17               	xorlw	23	; case 23
  7400   00249E  B4D8               	btfsc	status,2,c
  7401   0024A0  EFFA  F011         	goto	l12
  7402   0024A4  0A0F               	xorlw	15	; case 24
  7403   0024A6  B4D8               	btfsc	status,2,c
  7404   0024A8  EF05  F012         	goto	l14
  7405   0024AC  0A01               	xorlw	1	; case 25
  7406   0024AE  B4D8               	btfsc	status,2,c
  7407   0024B0  EF10  F012         	goto	l15
  7408   0024B4  0A03               	xorlw	3	; case 26
  7409   0024B6  B4D8               	btfsc	status,2,c
  7410   0024B8  EF1B  F012         	goto	l16
  7411   0024BC  0A01               	xorlw	1	; case 27
  7412   0024BE  B4D8               	btfsc	status,2,c
  7413   0024C0  EF26  F012         	goto	l17
  7414   0024C4  0A07               	xorlw	7	; case 28
  7415   0024C6  B4D8               	btfsc	status,2,c
  7416   0024C8  EF31  F012         	goto	l18
  7417   0024CC  EF3C  F012         	goto	l2091
  7418   0024D0                     l13:
  7419   0024D0  0012               	return		;funcret
  7420   0024D2                     __end_of_BUTTON_IsPressed:
  7421                           	callstack 0
  7422                           
  7423 ;; *************** function _ADC_multiButton *****************
  7424 ;; Defined at:
  7425 ;;		line 32 in file "../source/adc.c"
  7426 ;; Parameters:    Size  Location     Type
  7427 ;;  channel         1    wreg     enum E36
  7428 ;; Auto vars:     Size  Location     Type
  7429 ;;  channel         1    9[COMRAM] enum E36
  7430 ;;  adc_volt        2   10[COMRAM] unsigned short 
  7431 ;; Return value:  Size  Location     Type
  7432 ;;                  2    7[COMRAM] int 
  7433 ;; Registers used:
  7434 ;;		wreg, status,2, status,0, cstack
  7435 ;; Tracked objects:
  7436 ;;		On entry : 0/0
  7437 ;;		On exit  : 0/0
  7438 ;;		Unchanged: 0/0
  7439 ;; Data sizes:     COMRAM   BANK0   BANK1   BANK2   BANK3   BANK4   BANK5   BANK6   BANK7
  7440 ;;      Params:         2       0       0       0       0       0       0       0       0
  7441 ;;      Locals:         3       0       0       0       0       0       0       0       0
  7442 ;;      Temps:          0       0       0       0       0       0       0       0       0
  7443 ;;      Totals:         5       0       0       0       0       0       0       0       0
  7444 ;;Total ram usage:        5 bytes
  7445 ;; Hardware stack levels used: 1
  7446 ;; Hardware stack levels required when called: 2
  7447 ;; This function calls:
  7448 ;;		_ADC_Readbits
  7449 ;; This function is called by:
  7450 ;;		_APP_DeviceJoystickTasks
  7451 ;; This function uses a non-reentrant model
  7452 ;;
  7453                           
  7454                           	psect	text35
  7455   001CB4                     __ptext35:
  7456                           	callstack 0
  7457   001CB4                     _ADC_multiButton:
  7458                           	callstack 27
  7459                           
  7460                           ;incstack = 0
  7461                           ;ADC_multiButton@channel stored from wreg
  7462   001CB4  6E43               	movwf	ADC_multiButton@channel^0,c
  7463   001CB6                     
  7464                           ;../source/adc.c: 34:     uint16_t adc_volt = ADC_Readbits(channel);
  7465   001CB6  5043               	movf	ADC_multiButton@channel^0,w,c
  7466   001CB8  ECC1  F013         	call	_ADC_Readbits
  7467   001CBC  C03A  F044         	movff	?_ADC_Readbits,ADC_multiButton@adc_volt
  7468   001CC0  C03B  F045         	movff	?_ADC_Readbits+1,ADC_multiButton@adc_volt+1
  7469   001CC4                     
  7470                           ;../source/adc.c: 36:         if (adc_volt<=1024 && adc_volt>=853){
  7471   001CC4  0444               	decf	ADC_multiButton@adc_volt^0,w,c
  7472   001CC6  0E04               	movlw	4
  7473   001CC8  5845               	subwfb	(ADC_multiButton@adc_volt+1)^0,w,c
  7474   001CCA  B0D8               	btfsc	status,0,c
  7475   001CCC  EF6A  F00E         	goto	u2291
  7476   001CD0  EF6C  F00E         	goto	u2290
  7477   001CD4                     u2291:
  7478   001CD4  EF7D  F00E         	goto	l3145
  7479   001CD8                     u2290:
  7480   001CD8  0E55               	movlw	85
  7481   001CDA  5C44               	subwf	ADC_multiButton@adc_volt^0,w,c
  7482   001CDC  0E03               	movlw	3
  7483   001CDE  5845               	subwfb	(ADC_multiButton@adc_volt+1)^0,w,c
  7484   001CE0  A0D8               	btfss	status,0,c
  7485   001CE2  EF75  F00E         	goto	u2301
  7486   001CE6  EF77  F00E         	goto	u2300
  7487   001CEA                     u2301:
  7488   001CEA  EF7D  F00E         	goto	l3145
  7489   001CEE                     u2300:
  7490   001CEE                     
  7491                           ;../source/adc.c: 37:       return 5;
  7492   001CEE  0E00               	movlw	0
  7493   001CF0  6E42               	movwf	(?_ADC_multiButton+1)^0,c
  7494   001CF2  0E05               	movlw	5
  7495   001CF4  6E41               	movwf	?_ADC_multiButton^0,c
  7496   001CF6  EFEF  F00E         	goto	l56
  7497   001CFA                     l3145:
  7498   001CFA  0E55               	movlw	85
  7499   001CFC  5C44               	subwf	ADC_multiButton@adc_volt^0,w,c
  7500   001CFE  0E03               	movlw	3
  7501   001D00  5845               	subwfb	(ADC_multiButton@adc_volt+1)^0,w,c
  7502   001D02  B0D8               	btfsc	status,0,c
  7503   001D04  EF86  F00E         	goto	u2311
  7504   001D08  EF88  F00E         	goto	u2310
  7505   001D0C                     u2311:
  7506   001D0C  EF99  F00E         	goto	l3155
  7507   001D10                     u2310:
  7508   001D10  0EAA               	movlw	170
  7509   001D12  5C44               	subwf	ADC_multiButton@adc_volt^0,w,c
  7510   001D14  0E02               	movlw	2
  7511   001D16  5845               	subwfb	(ADC_multiButton@adc_volt+1)^0,w,c
  7512   001D18  A0D8               	btfss	status,0,c
  7513   001D1A  EF91  F00E         	goto	u2321
  7514   001D1E  EF93  F00E         	goto	u2320
  7515   001D22                     u2321:
  7516   001D22  EF99  F00E         	goto	l3155
  7517   001D26                     u2320:
  7518   001D26                     
  7519                           ;../source/adc.c: 39:       return 4;
  7520   001D26  0E00               	movlw	0
  7521   001D28  6E42               	movwf	(?_ADC_multiButton+1)^0,c
  7522   001D2A  0E04               	movlw	4
  7523   001D2C  6E41               	movwf	?_ADC_multiButton^0,c
  7524   001D2E  EFEF  F00E         	goto	l56
  7525   001D32                     l3155:
  7526   001D32  0EAA               	movlw	170
  7527   001D34  5C44               	subwf	ADC_multiButton@adc_volt^0,w,c
  7528   001D36  0E02               	movlw	2
  7529   001D38  5845               	subwfb	(ADC_multiButton@adc_volt+1)^0,w,c
  7530   001D3A  B0D8               	btfsc	status,0,c
  7531   001D3C  EFA2  F00E         	goto	u2331
  7532   001D40  EFA4  F00E         	goto	u2330
  7533   001D44                     u2331:
  7534   001D44  EFB4  F00E         	goto	l3165
  7535   001D48                     u2330:
  7536   001D48  2844               	incf	ADC_multiButton@adc_volt^0,w,c
  7537   001D4A  0E01               	movlw	1
  7538   001D4C  5845               	subwfb	(ADC_multiButton@adc_volt+1)^0,w,c
  7539   001D4E  A0D8               	btfss	status,0,c
  7540   001D50  EFAC  F00E         	goto	u2341
  7541   001D54  EFAE  F00E         	goto	u2340
  7542   001D58                     u2341:
  7543   001D58  EFB4  F00E         	goto	l3165
  7544   001D5C                     u2340:
  7545   001D5C                     
  7546                           ;../source/adc.c: 41:       return 3;
  7547   001D5C  0E00               	movlw	0
  7548   001D5E  6E42               	movwf	(?_ADC_multiButton+1)^0,c
  7549   001D60  0E03               	movlw	3
  7550   001D62  6E41               	movwf	?_ADC_multiButton^0,c
  7551   001D64  EFEF  F00E         	goto	l56
  7552   001D68                     l3165:
  7553   001D68  2844               	incf	ADC_multiButton@adc_volt^0,w,c
  7554   001D6A  0E01               	movlw	1
  7555   001D6C  5845               	subwfb	(ADC_multiButton@adc_volt+1)^0,w,c
  7556   001D6E  B0D8               	btfsc	status,0,c
  7557   001D70  EFBC  F00E         	goto	u2351
  7558   001D74  EFBE  F00E         	goto	u2350
  7559   001D78                     u2351:
  7560   001D78  EFCF  F00E         	goto	l3175
  7561   001D7C                     u2350:
  7562   001D7C  0E54               	movlw	84
  7563   001D7E  5C44               	subwf	ADC_multiButton@adc_volt^0,w,c
  7564   001D80  0E01               	movlw	1
  7565   001D82  5845               	subwfb	(ADC_multiButton@adc_volt+1)^0,w,c
  7566   001D84  A0D8               	btfss	status,0,c
  7567   001D86  EFC7  F00E         	goto	u2361
  7568   001D8A  EFC9  F00E         	goto	u2360
  7569   001D8E                     u2361:
  7570   001D8E  EFCF  F00E         	goto	l3175
  7571   001D92                     u2360:
  7572   001D92                     
  7573                           ;../source/adc.c: 43:       return 2;
  7574   001D92  0E00               	movlw	0
  7575   001D94  6E42               	movwf	(?_ADC_multiButton+1)^0,c
  7576   001D96  0E02               	movlw	2
  7577   001D98  6E41               	movwf	?_ADC_multiButton^0,c
  7578   001D9A  EFEF  F00E         	goto	l56
  7579   001D9E                     l3175:
  7580   001D9E  0E54               	movlw	84
  7581   001DA0  5C44               	subwf	ADC_multiButton@adc_volt^0,w,c
  7582   001DA2  0E01               	movlw	1
  7583   001DA4  5845               	subwfb	(ADC_multiButton@adc_volt+1)^0,w,c
  7584   001DA6  B0D8               	btfsc	status,0,c
  7585   001DA8  EFD8  F00E         	goto	u2371
  7586   001DAC  EFDA  F00E         	goto	u2370
  7587   001DB0                     u2371:
  7588   001DB0  EFEB  F00E         	goto	l3185
  7589   001DB4                     u2370:
  7590   001DB4  5045               	movf	(ADC_multiButton@adc_volt+1)^0,w,c
  7591   001DB6  E109               	bnz	u2380
  7592   001DB8  0EA9               	movlw	169
  7593   001DBA  5C44               	subwf	ADC_multiButton@adc_volt^0,w,c
  7594   001DBC  A0D8               	btfss	status,0,c
  7595   001DBE  EFE3  F00E         	goto	u2381
  7596   001DC2  EFE5  F00E         	goto	u2380
  7597   001DC6                     u2381:
  7598   001DC6  EFEB  F00E         	goto	l3185
  7599   001DCA                     u2380:
  7600   001DCA                     
  7601                           ;../source/adc.c: 45:       return 1;
  7602   001DCA  0E00               	movlw	0
  7603   001DCC  6E42               	movwf	(?_ADC_multiButton+1)^0,c
  7604   001DCE  0E01               	movlw	1
  7605   001DD0  6E41               	movwf	?_ADC_multiButton^0,c
  7606   001DD2  EFEF  F00E         	goto	l56
  7607   001DD6                     l3185:
  7608                           
  7609                           ;../source/adc.c: 47:             return 0;
  7610   001DD6  0E00               	movlw	0
  7611   001DD8  6E42               	movwf	(?_ADC_multiButton+1)^0,c
  7612   001DDA  0E00               	movlw	0
  7613   001DDC  6E41               	movwf	?_ADC_multiButton^0,c
  7614   001DDE                     l56:
  7615   001DDE  0012               	return		;funcret
  7616   001DE0                     __end_of_ADC_multiButton:
  7617                           	callstack 0
  7618                           
  7619 ;; *************** function _ADC_Readbits *****************
  7620 ;; Defined at:
  7621 ;;		line 70 in file "../source/adc.c"
  7622 ;; Parameters:    Size  Location     Type
  7623 ;;  channel         1    wreg     enum E36
  7624 ;; Auto vars:     Size  Location     Type
  7625 ;;  channel         1    6[COMRAM] enum E36
  7626 ;;  result          2    4[COMRAM] unsigned short 
  7627 ;; Return value:  Size  Location     Type
  7628 ;;                  2    0[COMRAM] unsigned short 
  7629 ;; Registers used:
  7630 ;;		wreg, status,2, status,0
  7631 ;; Tracked objects:
  7632 ;;		On entry : 0/0
  7633 ;;		On exit  : 0/0
  7634 ;;		Unchanged: 0/0
  7635 ;; Data sizes:     COMRAM   BANK0   BANK1   BANK2   BANK3   BANK4   BANK5   BANK6   BANK7
  7636 ;;      Params:         2       0       0       0       0       0       0       0       0
  7637 ;;      Locals:         3       0       0       0       0       0       0       0       0
  7638 ;;      Temps:          2       0       0       0       0       0       0       0       0
  7639 ;;      Totals:         7       0       0       0       0       0       0       0       0
  7640 ;;Total ram usage:        7 bytes
  7641 ;; Hardware stack levels used: 1
  7642 ;; Hardware stack levels required when called: 1
  7643 ;; This function calls:
  7644 ;;		Nothing
  7645 ;; This function is called by:
  7646 ;;		_ADC_multiButton
  7647 ;;		_APP_DeviceJoystickTasks
  7648 ;; This function uses a non-reentrant model
  7649 ;;
  7650                           
  7651                           	psect	text36
  7652   002782                     __ptext36:
  7653                           	callstack 0
  7654   002782                     _ADC_Readbits:
  7655                           	callstack 27
  7656                           
  7657                           ;incstack = 0
  7658                           ;ADC_Readbits@channel stored from wreg
  7659   002782  6E40               	movwf	ADC_Readbits@channel^0,c
  7660   002784                     
  7661                           ;../source/adc.c: 70: uint16_t ADC_Readbits(ADC_CHANNEL channel);../source/adc.c: 71: {;
      +                          ../source/adc.c: 72:     uint16_t result;;../source/adc.c: 74:     switch(channel)
  7662   002784  EFC8  F013         	goto	l3077
  7663   002788                     l77:
  7664                           
  7665                           ;../source/adc.c: 97:             return 0xFFFF;
  7666   002788  683A               	setf	?_ADC_Readbits^0,c
  7667   00278A  683B               	setf	(?_ADC_Readbits+1)^0,c
  7668   00278C  EF0E  F014         	goto	l78
  7669   002790                     l3077:
  7670   002790  5040               	movf	ADC_Readbits@channel^0,w,c
  7671   002792  6E3C               	movwf	??_ADC_Readbits^0,c
  7672   002794  6A3D               	clrf	(??_ADC_Readbits+1)^0,c
  7673                           
  7674                           ; Switch on 2 bytes has been partitioned into a top level switch of size 1, and 1 sub-sw
      +                          itches
  7675                           ; Switch size 1, requested type "simple"
  7676                           ; Number of cases is 1, Range of values is 0 to 0
  7677                           ; switch strategies available:
  7678                           ; Name         Instructions Cycles
  7679                           ; simple_byte            4     3 (average)
  7680                           ;	Chosen strategy is simple_byte
  7681   002796  503D               	movf	(??_ADC_Readbits+1)^0,w,c
  7682   002798  0A00               	xorlw	0	; case 0
  7683   00279A  B4D8               	btfsc	status,2,c
  7684   00279C  EFD2  F013         	goto	l3817
  7685   0027A0  EFC4  F013         	goto	l77
  7686   0027A4                     l3817:
  7687                           
  7688                           ; Switch size 1, requested type "simple"
  7689                           ; Number of cases is 7, Range of values is 0 to 6
  7690                           ; switch strategies available:
  7691                           ; Name         Instructions Cycles
  7692                           ; simple_byte           22    12 (average)
  7693                           ;	Chosen strategy is simple_byte
  7694   0027A4  503C               	movf	??_ADC_Readbits^0,w,c
  7695   0027A6  0A00               	xorlw	0	; case 0
  7696   0027A8  B4D8               	btfsc	status,2,c
  7697   0027AA  EFF1  F013         	goto	l3079
  7698   0027AE  0A01               	xorlw	1	; case 1
  7699   0027B0  B4D8               	btfsc	status,2,c
  7700   0027B2  EFF1  F013         	goto	l3079
  7701   0027B6  0A03               	xorlw	3	; case 2
  7702   0027B8  B4D8               	btfsc	status,2,c
  7703   0027BA  EFF1  F013         	goto	l3079
  7704   0027BE  0A01               	xorlw	1	; case 3
  7705   0027C0  B4D8               	btfsc	status,2,c
  7706   0027C2  EFF1  F013         	goto	l3079
  7707   0027C6  0A07               	xorlw	7	; case 4
  7708   0027C8  B4D8               	btfsc	status,2,c
  7709   0027CA  EFF1  F013         	goto	l3079
  7710   0027CE  0A01               	xorlw	1	; case 5
  7711   0027D0  B4D8               	btfsc	status,2,c
  7712   0027D2  EFF1  F013         	goto	l3079
  7713   0027D6  0A03               	xorlw	3	; case 6
  7714   0027D8  B4D8               	btfsc	status,2,c
  7715   0027DA  EFF1  F013         	goto	l3079
  7716   0027DE  EFC4  F013         	goto	l77
  7717   0027E2                     l3079:
  7718                           
  7719                           ;../source/adc.c: 100:     ADCON0bits.CHS = channel;
  7720   0027E2  C040  F03C         	movff	ADC_Readbits@channel,??_ADC_Readbits
  7721   0027E6  463C               	rlncf	??_ADC_Readbits^0,f,c
  7722   0027E8  463C               	rlncf	??_ADC_Readbits^0,f,c
  7723   0027EA  50C2               	movf	194,w,c	;volatile
  7724   0027EC  183C               	xorwf	??_ADC_Readbits^0,w,c
  7725   0027EE  0BC3               	andlw	-61
  7726   0027F0  183C               	xorwf	??_ADC_Readbits^0,w,c
  7727   0027F2  6EC2               	movwf	194,c	;volatile
  7728   0027F4                     
  7729                           ;../source/adc.c: 102:     ADCON0bits.GO = 1;
  7730   0027F4  82C2               	bsf	194,1,c	;volatile
  7731   0027F6                     l79:
  7732   0027F6  B2C2               	btfsc	194,1,c	;volatile
  7733   0027F8  EF00  F014         	goto	u2271
  7734   0027FC  EF02  F014         	goto	u2270
  7735   002800                     u2271:
  7736   002800  EFFB  F013         	goto	l79
  7737   002804                     u2270:
  7738   002804                     
  7739                           ;../source/adc.c: 105:     result = ADRESH;
  7740   002804  CFC4 F03E          	movff	4036,ADC_Readbits@result	;volatile
  7741   002808  6A3F               	clrf	(ADC_Readbits@result+1)^0,c
  7742   00280A                     
  7743                           ;../source/adc.c: 106:     result <<=8;
  7744   00280A  503E               	movf	ADC_Readbits@result^0,w,c
  7745   00280C  6E3F               	movwf	(ADC_Readbits@result+1)^0,c
  7746   00280E  6A3E               	clrf	ADC_Readbits@result^0,c
  7747   002810                     
  7748                           ;../source/adc.c: 107:     result |= ADRESL;
  7749   002810  50C3               	movf	195,w,c	;volatile
  7750   002812  123E               	iorwf	ADC_Readbits@result^0,f,c
  7751   002814                     
  7752                           ;../source/adc.c: 109:     return result;
  7753   002814  C03E  F03A         	movff	ADC_Readbits@result,?_ADC_Readbits
  7754   002818  C03F  F03B         	movff	ADC_Readbits@result+1,?_ADC_Readbits+1
  7755   00281C                     l78:
  7756   00281C  0012               	return		;funcret
  7757   00281E                     __end_of_ADC_Readbits:
  7758                           	callstack 0
  7759                           
  7760 ;; *************** function _SYS_InterruptHigh *****************
  7761 ;; Defined at:
  7762 ;;		line 96 in file "system.c"
  7763 ;; Parameters:    Size  Location     Type
  7764 ;;		None
  7765 ;; Auto vars:     Size  Location     Type
  7766 ;;		None
  7767 ;; Return value:  Size  Location     Type
  7768 ;;                  1    wreg      void 
  7769 ;; Registers used:
  7770 ;;		None
  7771 ;; Tracked objects:
  7772 ;;		On entry : 0/0
  7773 ;;		On exit  : 0/0
  7774 ;;		Unchanged: 0/0
  7775 ;; Data sizes:     COMRAM   BANK0   BANK1   BANK2   BANK3   BANK4   BANK5   BANK6   BANK7
  7776 ;;      Params:         0       0       0       0       0       0       0       0       0
  7777 ;;      Locals:         0       0       0       0       0       0       0       0       0
  7778 ;;      Temps:          0       0       0       0       0       0       0       0       0
  7779 ;;      Totals:         0       0       0       0       0       0       0       0       0
  7780 ;;Total ram usage:        0 bytes
  7781 ;; Hardware stack levels used: 1
  7782 ;; This function calls:
  7783 ;;		Nothing
  7784 ;; This function is called by:
  7785 ;;		Interrupt level 2
  7786 ;; This function uses a non-reentrant model
  7787 ;;
  7788                           
  7789                           	psect	intcode
  7790   000008                     __pintcode:
  7791                           	callstack 0
  7792   000008                     _SYS_InterruptHigh:
  7793                           	callstack 21
  7794                           
  7795                           ;incstack = 0
  7796   000008  825B               	bsf	int$flags,1,c	;set compiler interrupt flag (level 2)
  7797   00000A  ED70  F016         	call	int_func,f	;refresh shadow registers
  7798                           
  7799                           	psect	intcode_body
  7800   002CE0                     __pintcode_body:
  7801                           	callstack 21
  7802   002CE0                     int_func:
  7803                           	callstack 21
  7804   002CE0  0006               	pop		; remove dummy address from shadow register refresh
  7805   002CE2  925B               	bcf	int$flags,1,c	;clear compiler interrupt flag (level 2)
  7806   002CE4  0011               	retfie		f
  7807   002CE6                     __end_of_SYS_InterruptHigh:
  7808                           	callstack 0
  7809                           
  7810                           	psect	rparam
  7811   000000                     
  7812                           	psect	temp
  7813   00005B                     btemp:
  7814                           	callstack 0
  7815   00005B                     	ds	1
  7816   000000                     int$flags	set	btemp
  7817   000000                     wtemp8	set	btemp+1
  7818   000000                     ttemp5	set	btemp+1
  7819   000000                     ttemp6	set	btemp+4
  7820   000000                     ttemp7	set	btemp+8
  7821                           
  7822                           	psect	idloc
  7823                           
  7824                           ;Config register IDLOC0 @ 0x200000
  7825                           ;	unspecified, using default values
  7826   200000                     	org	2097152
  7827   200000  FF                 	db	255
  7828                           
  7829                           ;Config register IDLOC1 @ 0x200001
  7830                           ;	unspecified, using default values
  7831   200001                     	org	2097153
  7832   200001  FF                 	db	255
  7833                           
  7834                           ;Config register IDLOC2 @ 0x200002
  7835                           ;	unspecified, using default values
  7836   200002                     	org	2097154
  7837   200002  FF                 	db	255
  7838                           
  7839                           ;Config register IDLOC3 @ 0x200003
  7840                           ;	unspecified, using default values
  7841   200003                     	org	2097155
  7842   200003  FF                 	db	255
  7843                           
  7844                           ;Config register IDLOC4 @ 0x200004
  7845                           ;	unspecified, using default values
  7846   200004                     	org	2097156
  7847   200004  FF                 	db	255
  7848                           
  7849                           ;Config register IDLOC5 @ 0x200005
  7850                           ;	unspecified, using default values
  7851   200005                     	org	2097157
  7852   200005  FF                 	db	255
  7853                           
  7854                           ;Config register IDLOC6 @ 0x200006
  7855                           ;	unspecified, using default values
  7856   200006                     	org	2097158
  7857   200006  FF                 	db	255
  7858                           
  7859                           ;Config register IDLOC7 @ 0x200007
  7860                           ;	unspecified, using default values
  7861   200007                     	org	2097159
  7862   200007  FF                 	db	255
  7863                           
  7864                           	psect	config
  7865                           
  7866                           ;Config register CONFIG1L @ 0x300000
  7867                           ;	PLL Prescaler Selection bits
  7868                           ;	PLLDIV = 5, Divide by 5 (20 MHz oscillator input)
  7869                           ;	System Clock Postscaler Selection bits
  7870                           ;	CPUDIV = OSC1_PLL2, [Primary Oscillator Src: /1][96 MHz PLL Src: /2]
  7871                           ;	USB Clock Selection bit (used in Full-Speed USB mode only; UCFG:FSEN = 1)
  7872                           ;	USBDIV = 2, USB clock source comes from the 96 MHz PLL divided by 2
  7873   300000                     	org	3145728
  7874   300000  24                 	db	36
  7875                           
  7876                           ;Config register CONFIG1H @ 0x300001
  7877                           ;	Oscillator Selection bits
  7878                           ;	FOSC = HSPLL_HS, HS oscillator, PLL enabled (HSPLL)
  7879                           ;	Fail-Safe Clock Monitor Enable bit
  7880                           ;	FCMEN = OFF, Fail-Safe Clock Monitor disabled
  7881                           ;	Internal/External Oscillator Switchover bit
  7882                           ;	IESO = OFF, Oscillator Switchover mode disabled
  7883   300001                     	org	3145729
  7884   300001  0E                 	db	14
  7885                           
  7886                           ;Config register CONFIG2L @ 0x300002
  7887                           ;	Power-up Timer Enable bit
  7888                           ;	PWRT = OFF, PWRT disabled
  7889                           ;	Brown-out Reset Enable bits
  7890                           ;	BOR = ON, Brown-out Reset enabled in hardware only (SBOREN is disabled)
  7891                           ;	Brown-out Reset Voltage bits
  7892                           ;	BORV = 3, Minimum setting 2.05V
  7893                           ;	USB Voltage Regulator Enable bit
  7894                           ;	VREGEN = ON, USB voltage regulator enabled
  7895   300002                     	org	3145730
  7896   300002  3F                 	db	63
  7897                           
  7898                           ;Config register CONFIG2H @ 0x300003
  7899                           ;	Watchdog Timer Enable bit
  7900                           ;	WDT = OFF, WDT disabled (control is placed on the SWDTEN bit)
  7901                           ;	Watchdog Timer Postscale Select bits
  7902                           ;	WDTPS = 32768, 1:32768
  7903   300003                     	org	3145731
  7904   300003  1E                 	db	30
  7905                           
  7906                           ; Padding undefined space
  7907   300004                     	org	3145732
  7908   300004  FF                 	db	255
  7909                           
  7910                           ;Config register CONFIG3H @ 0x300005
  7911                           ;	CCP2 MUX bit
  7912                           ;	CCP2MX = 0x1, unprogrammed default
  7913                           ;	PORTB A/D Enable bit
  7914                           ;	PBADEN = OFF, PORTB<4:0> pins are configured as digital I/O on Reset
  7915                           ;	Low-Power Timer 1 Oscillator Enable bit
  7916                           ;	LPT1OSC = OFF, Timer1 configured for higher power operation
  7917                           ;	MCLR Pin Enable bit
  7918                           ;	MCLRE = ON, MCLR pin enabled; RE3 input pin disabled
  7919   300005                     	org	3145733
  7920   300005  81                 	db	129
  7921                           
  7922                           ;Config register CONFIG4L @ 0x300006
  7923                           ;	Stack Full/Underflow Reset Enable bit
  7924                           ;	STVREN = ON, Stack full/underflow will cause Reset
  7925                           ;	Single-Supply ICSP Enable bit
  7926                           ;	LVP = OFF, Single-Supply ICSP disabled
  7927                           ;	Dedicated In-Circuit Debug/Programming Port (ICPORT) Enable bit
  7928                           ;	ICPRT = 0x0, unprogrammed default
  7929                           ;	Extended Instruction Set Enable bit
  7930                           ;	XINST = OFF, Instruction set extension and Indexed Addressing mode disabled (Legacy mo
      +                          de)
  7931                           ;	Background Debugger Enable bit
  7932                           ;	DEBUG = 0x1, unprogrammed default
  7933   300006                     	org	3145734
  7934   300006  81                 	db	129
  7935                           
  7936                           ; Padding undefined space
  7937   300007                     	org	3145735
  7938   300007  FF                 	db	255
  7939                           
  7940                           ;Config register CONFIG5L @ 0x300008
  7941                           ;	Code Protection bit
  7942                           ;	CP0 = OFF, Block 0 (000800-001FFFh) is not code-protected
  7943                           ;	Code Protection bit
  7944                           ;	CP1 = OFF, Block 1 (002000-003FFFh) is not code-protected
  7945                           ;	Code Protection bit
  7946                           ;	CP2 = 0x1, unprogrammed default
  7947                           ;	Code Protection bit
  7948                           ;	CP3 = 0x1, unprogrammed default
  7949   300008                     	org	3145736
  7950   300008  0F                 	db	15
  7951                           
  7952                           ;Config register CONFIG5H @ 0x300009
  7953                           ;	Boot Block Code Protection bit
  7954                           ;	CPB = OFF, Boot block (000000-0007FFh) is not code-protected
  7955                           ;	Data EEPROM Code Protection bit
  7956                           ;	CPD = 0x1, unprogrammed default
  7957   300009                     	org	3145737
  7958   300009  C0                 	db	192
  7959                           
  7960                           ;Config register CONFIG6L @ 0x30000A
  7961                           ;	Write Protection bit
  7962                           ;	WRT0 = OFF, Block 0 (000800-001FFFh) is not write-protected
  7963                           ;	Write Protection bit
  7964                           ;	WRT1 = OFF, Block 1 (002000-003FFFh) is not write-protected
  7965                           ;	Write Protection bit
  7966                           ;	WRT2 = 0x1, unprogrammed default
  7967                           ;	Write Protection bit
  7968                           ;	WRT3 = 0x1, unprogrammed default
  7969   30000A                     	org	3145738
  7970   30000A  0F                 	db	15
  7971                           
  7972                           ;Config register CONFIG6H @ 0x30000B
  7973                           ;	Configuration Register Write Protection bit
  7974                           ;	WRTC = OFF, Configuration registers (300000-3000FFh) are not write-protected
  7975                           ;	Boot Block Write Protection bit
  7976                           ;	WRTB = OFF, Boot block (000000-0007FFh) is not write-protected
  7977                           ;	Data EEPROM Write Protection bit
  7978                           ;	WRTD = 0x1, unprogrammed default
  7979   30000B                     	org	3145739
  7980   30000B  E0                 	db	224
  7981                           
  7982                           ;Config register CONFIG7L @ 0x30000C
  7983                           ;	Table Read Protection bit
  7984                           ;	EBTR0 = OFF, Block 0 (000800-001FFFh) is not protected from table reads executed in ot
      +                          her blocks
  7985                           ;	Table Read Protection bit
  7986                           ;	EBTR1 = OFF, Block 1 (002000-003FFFh) is not protected from table reads executed in ot
      +                          her blocks
  7987                           ;	Table Read Protection bit
  7988                           ;	EBTR2 = 0x1, unprogrammed default
  7989                           ;	Table Read Protection bit
  7990                           ;	EBTR3 = 0x1, unprogrammed default
  7991   30000C                     	org	3145740
  7992   30000C  0F                 	db	15
  7993                           
  7994                           ;Config register CONFIG7H @ 0x30000D
  7995                           ;	Boot Block Table Read Protection bit
  7996                           ;	EBTRB = OFF, Boot block (000000-0007FFh) is not protected from table reads executed in
      +                           other blocks
  7997   30000D                     	org	3145741
  7998   30000D  40                 	db	64
  7999                           tosu	equ	0xFFF
  8000                           tosh	equ	0xFFE
  8001                           tosl	equ	0xFFD
  8002                           stkptr	equ	0xFFC
  8003                           pclatu	equ	0xFFB
  8004                           pclath	equ	0xFFA
  8005                           pcl	equ	0xFF9
  8006                           tblptru	equ	0xFF8
  8007                           tblptrh	equ	0xFF7
  8008                           tblptrl	equ	0xFF6
  8009                           tablat	equ	0xFF5
  8010                           prodh	equ	0xFF4
  8011                           prodl	equ	0xFF3
  8012                           indf0	equ	0xFEF
  8013                           postinc0	equ	0xFEE
  8014                           postdec0	equ	0xFED
  8015                           preinc0	equ	0xFEC
  8016                           plusw0	equ	0xFEB
  8017                           fsr0h	equ	0xFEA
  8018                           fsr0l	equ	0xFE9
  8019                           wreg	equ	0xFE8
  8020                           indf1	equ	0xFE7
  8021                           postinc1	equ	0xFE6
  8022                           postdec1	equ	0xFE5
  8023                           preinc1	equ	0xFE4
  8024                           plusw1	equ	0xFE3
  8025                           fsr1h	equ	0xFE2
  8026                           fsr1l	equ	0xFE1
  8027                           bsr	equ	0xFE0
  8028                           indf2	equ	0xFDF
  8029                           postinc2	equ	0xFDE
  8030                           postdec2	equ	0xFDD
  8031                           preinc2	equ	0xFDC
  8032                           plusw2	equ	0xFDB
  8033                           fsr2h	equ	0xFDA
  8034                           fsr2l	equ	0xFD9
  8035                           status	equ	0xFD8

Data Sizes:
    Strings     0
    Constant    163
    Data        0
    BSS         57
    Persistent  0
    Stack       0

Auto Spaces:
    Space          Size  Autos    Used
    COMRAM           94     33      90
    BANK0           160      0       0
    BANK1           256      0       0
    BANK2           256      0       0
    BANK3           256      0       0
    BANK4           208      0       0
    BANK5           250      0       0
    BANK6           256      0       0
    BANK7           256      0       0

Pointer List with Targets:

    USER_USB_CALLBACK_EVENT_HANDLER@pdata	PTR void  size(2) Largest target is 2047
		 -> RAM(DATA[2047]), USTATcopy(COMRAM[1]), USBActiveConfiguration(COMRAM[1]), NULL(NULL[0]), 
		 -> BDT(BIGRAMl[32]), 

    memset@dest	PTR void  size(2) Largest target is 32
		 -> USBAlternateInterface(COMRAM[1]), BDT(BIGRAMl[32]), UEP1(BITBIGSFRlhh[1]), 

    memset@s	PTR unsigned char  size(2) Largest target is 32
		 -> USBAlternateInterface(COMRAM[1]), BDT(BIGRAMl[32]), UEP1(BITBIGSFRlhh[1]), 

    memcpy@d1	PTR void  size(2) Largest target is 8
		 -> SetupPkt(BIGRAMhl[8]), 

    memcpy@d	PTR unsigned char  size(2) Largest target is 8
		 -> SetupPkt(BIGRAMhl[8]), 

    memcpy@s1	PTR const void  size(2) Largest target is 2047
		 -> CtrlTrfData(BIGRAMhl[8]), RAM(DATA[2047]), SetupPkt(BIGRAMhl[8]), 

    memcpy@s	PTR const unsigned char  size(2) Largest target is 2047
		 -> CtrlTrfData(BIGRAMhl[8]), RAM(DATA[2047]), SetupPkt(BIGRAMhl[8]), 

    lastTransmission	PTR void  size(2) Largest target is 2047
		 -> RAM(DATA[2047]), NULL(NULL[0]), BDT(BIGRAMl[32]), 

    USBStdFeatureReqHandler@pUEP	PTR unsigned char  size(2) Largest target is 1
		 -> UEP0(ABS[1]), 

    USBStdFeatureReqHandler@p	PTR struct __BDT size(2) Largest target is 2047
		 -> RAM(DATA[2047]), NULL(NULL[0]), BDT(BIGRAMl[32]), 

    sp__memcpy	PTR void  size(2) Largest target is 8
		 -> SetupPkt(BIGRAMhl[8]), 

    USBStdGetStatusHandler@p	PTR struct __BDT size(2) Largest target is 2047
		 -> RAM(DATA[2047]), NULL(NULL[0]), BDT(BIGRAMl[32]), 

    USB_SD_Ptr	const PTR const unsigned char [3] size(2) Largest target is 36
		 -> sd002(CODE[18]), sd001(CODE[36]), sd000(CODE[4]), 

    USB_CD_Ptr	const PTR const unsigned char [1] size(2) Largest target is 34
		 -> configDescriptor1(CODE[34]), 

    pDst	PTR unsigned char  size(2) Largest target is 8
		 -> CtrlTrfData(BIGRAMhl[8]), NULL(NULL[0]), 

    USBConfigureEndpoint@handle	PTR volatile struct __BDT size(2) Largest target is 32
		 -> BDT(BIGRAMl[32]), 

    pBDTEntryEP0OutCurrent	PTR volatile struct __BDT size(2) Largest target is 32
		 -> NULL(NULL[0]), BDT(BIGRAMl[32]), 

    pBDTEntryEP0OutNext	PTR volatile struct __BDT size(2) Largest target is 2047
		 -> RAM(DATA[2047]), NULL(NULL[0]), BDT(BIGRAMl[32]), 

    USBTransferOnePacket@data	PTR unsigned char  size(2) Largest target is 6
		 -> joystick_input(BIGRAMhl[6]), 

    sp__USBTransferOnePacket	PTR void  size(2) Largest target is 2047
		 -> RAM(DATA[2047]), NULL(NULL[0]), BDT(BIGRAMl[32]), 

    USBTransferOnePacket@handle	PTR volatile struct __BDT size(2) Largest target is 2047
		 -> RAM(DATA[2047]), NULL(NULL[0]), BDT(BIGRAMl[32]), 

    USBEnableEndpoint@p	PTR unsigned char  size(2) Largest target is 1
		 -> UEP0(ABS[1]), 

    pBDTEntryOut	PTR volatile struct __BDT[2] size(2) Largest target is 2047
		 -> RAM(DATA[2047]), NULL(NULL[0]), BDT(BIGRAMl[32]), 

    pBDTEntryIn	PTR volatile struct __BDT[2] size(2) Largest target is 2047
		 -> RAM(DATA[2047]), NULL(NULL[0]), BDT(BIGRAMl[32]), 

    S597$pFunc	PTR FTN()void  size(2) Largest target is 0

    outPipes.pFunc	PTR FTN()void  size(2) Largest target is 0

    S587$wRam	PTR unsigned short  size(2) Largest target is 0

    outPipes.pDst.wRam	PTR unsigned short  size(2) Largest target is 0

    S587$bRam	PTR unsigned char  size(2) Largest target is 0

    outPipes.pDst.bRam	PTR unsigned char  size(2) Largest target is 0

    S563$wRom	PTR const unsigned short  size(2) Largest target is 0

    inPipes.pSrc.wRom	PTR const unsigned short  size(2) Largest target is 0

    S563$wRam	PTR unsigned short  size(2) Largest target is 0

    inPipes.pSrc.wRam	PTR unsigned short  size(2) Largest target is 0

    S563$bRom	PTR const unsigned char  size(2) Largest target is 0

    inPipes.pSrc.bRom	PTR const unsigned char  size(2) Largest target is 0

    S563$bRam	PTR unsigned char  size(2) Largest target is 0

    inPipes.pSrc.bRam	PTR unsigned char  size(2) Largest target is 0

    sp__memset	PTR void  size(2) Largest target is 32
		 -> USBAlternateInterface(COMRAM[1]), BDT(BIGRAMl[32]), UEP1(BITBIGSFRlhh[1]), 


Critical Paths under _main in COMRAM

    _main->_USBDeviceTasks
    _USBDeviceTasks->_USBCtrlEPService
    _USBWakeFromSuspend->_USER_USB_CALLBACK_EVENT_HANDLER
    _USBSuspend->_USER_USB_CALLBACK_EVENT_HANDLER
    _USBDeviceInit->_memset
    _USBCtrlTrfSetupHandler->_USBCheckStdRequest
    _USBCtrlEPAllowDataStage->_USBCtrlTrfTxService
    _USBCheckStdRequest->_USBStdFeatureReqHandler
    _USBStdSetCfgHandler->_USER_USB_CALLBACK_EVENT_HANDLER
    _USBStdFeatureReqHandler->_USER_USB_CALLBACK_EVENT_HANDLER
    _SYSTEM_Initialize->_ADC_Enable
    _SYSTEM_Initialize->_BUTTON_Enable
    _APP_DeviceJoystickInitialize->_USBEnableEndpoint
    _USBEnableEndpoint->_USBConfigureEndpoint
    _USBCtrlTrfOutHandler->_USBCtrlTrfRxService
    _USBCtrlTrfInHandler->_USBCtrlTrfTxService
    _APP_DeviceJoystickTasks->_ADC_multiButton
    _ADC_multiButton->_ADC_Readbits

Critical Paths under _SYS_InterruptHigh in COMRAM

    None.

Critical Paths under _main in BANK0

    None.

Critical Paths under _SYS_InterruptHigh in BANK0

    None.

Critical Paths under _main in BANK1

    None.

Critical Paths under _SYS_InterruptHigh in BANK1

    None.

Critical Paths under _main in BANK2

    None.

Critical Paths under _SYS_InterruptHigh in BANK2

    None.

Critical Paths under _main in BANK3

    None.

Critical Paths under _SYS_InterruptHigh in BANK3

    None.

Critical Paths under _main in BANK4

    None.

Critical Paths under _SYS_InterruptHigh in BANK4

    None.

Critical Paths under _main in BANK5

    None.

Critical Paths under _SYS_InterruptHigh in BANK5

    None.

Critical Paths under _main in BANK6

    None.

Critical Paths under _SYS_InterruptHigh in BANK6

    None.

Critical Paths under _main in BANK7

    None.

Critical Paths under _SYS_InterruptHigh in BANK7

    None.

Call Graph Tables:

 ---------------------------------------------------------------------------------
 (Depth) Function   	        Calls       Base Space   Used Autos Params    Refs
 ---------------------------------------------------------------------------------
 (0) _main                                                 0     0      0   31893
            _APP_DeviceJoystickTasks
                  _SYSTEM_Initialize
                      _USBDeviceInit
                     _USBDeviceTasks
 ---------------------------------------------------------------------------------
 (1) _USBDeviceTasks                                       1     1      0   28805
                                             32 COMRAM     1     1      0
          _USBCtrlEPAllowStatusStage
                   _USBCtrlEPService
                      _USBDeviceInit
      _USBIncrement1msInternalTimers
                    _USBStallHandler
                         _USBSuspend
                 _USBWakeFromSuspend
    _USER_USB_CALLBACK_EVENT_HANDLER
 ---------------------------------------------------------------------------------
 (2) _USBWakeFromSuspend                                   0     0      0    3396
    _USER_USB_CALLBACK_EVENT_HANDLER
 ---------------------------------------------------------------------------------
 (2) _USBSuspend                                           0     0      0    3396
    _USER_USB_CALLBACK_EVENT_HANDLER
 ---------------------------------------------------------------------------------
 (2) _USBStallHandler                                      1     1      0       0
                                              0 COMRAM     1     1      0
 ---------------------------------------------------------------------------------
 (2) _USBIncrement1msInternalTimers                        0     0      0       0
 ---------------------------------------------------------------------------------
 (2) _USBDeviceInit                                        1     1      0    1989
                                             12 COMRAM     1     1      0
                             _memset
 ---------------------------------------------------------------------------------
 (2) _USBCtrlEPService                                     1     1      0   16582
                                             31 COMRAM     1     1      0
                _USBCtrlTrfInHandler
               _USBCtrlTrfOutHandler
             _USBCtrlTrfSetupHandler
                             _memcpy
 ---------------------------------------------------------------------------------
 (3) _memcpy                                              11     5      6     410
                                              0 COMRAM    11     5      6
 ---------------------------------------------------------------------------------
 (3) _USBCtrlTrfSetupHandler                               0     0      0   16022
                 _USBCheckStdRequest
           _USBCtrlEPServiceComplete
    _USER_USB_CALLBACK_EVENT_HANDLER
 ---------------------------------------------------------------------------------
 (4) _USBCtrlEPServiceComplete                             0     0      0      60
            _USBCtrlEPAllowDataStage
          _USBCtrlEPAllowStatusStage
 ---------------------------------------------------------------------------------
 (5) _USBCtrlEPAllowDataStage                              0     0      0      60
                _USBCtrlTrfTxService
 ---------------------------------------------------------------------------------
 (4) _USBCheckStdRequest                                   2     2      0   12566
                                             29 COMRAM     2     2      0
            _USBStdFeatureReqHandler
                _USBStdGetDscHandler
             _USBStdGetStatusHandler
                _USBStdSetCfgHandler
    _USER_USB_CALLBACK_EVENT_HANDLER
 ---------------------------------------------------------------------------------
 (5) _USBStdSetCfgHandler                                  1     1      0    5273
                                             22 COMRAM     1     1      0
    _USER_USB_CALLBACK_EVENT_HANDLER
                             _memset
 ---------------------------------------------------------------------------------
 (3) _memset                                              12     6      6    1787
                                              0 COMRAM    12     6      6
 ---------------------------------------------------------------------------------
 (5) _USBStdGetStatusHandler                               4     4      0      30
                                              0 COMRAM     4     4      0
 ---------------------------------------------------------------------------------
 (5) _USBStdGetDscHandler                                  2     2      0       0
                                              0 COMRAM     2     2      0
 ---------------------------------------------------------------------------------
 (5) _USBStdFeatureReqHandler                              7     7      0    3867
                                             22 COMRAM     7     7      0
    _USER_USB_CALLBACK_EVENT_HANDLER
 ---------------------------------------------------------------------------------
 (2) _USER_USB_CALLBACK_EVENT_HANDLER                      8     2      6    3396
                                             14 COMRAM     8     2      6
       _APP_DeviceJoystickInitialize
                  _SYSTEM_Initialize
                 _USBCheckHIDRequest
 ---------------------------------------------------------------------------------
 (3) _USBCheckHIDRequest                                   2     2      0       0
                                              0 COMRAM     2     2      0
 ---------------------------------------------------------------------------------
 (3) _SYSTEM_Initialize                                    3     3      0      60
                                              3 COMRAM     3     3      0
                         _ADC_Enable
               _ADC_SetConfiguration
                      _BUTTON_Enable
 ---------------------------------------------------------------------------------
 (4) _BUTTON_Enable                                        3     3      0      15
                                              0 COMRAM     3     3      0
 ---------------------------------------------------------------------------------
 (4) _ADC_SetConfiguration                                 1     1      0      15
                                              0 COMRAM     1     1      0
 ---------------------------------------------------------------------------------
 (4) _ADC_Enable                                           3     3      0      15
                                              0 COMRAM     3     3      0
 ---------------------------------------------------------------------------------
 (3) _APP_DeviceJoystickInitialize                         0     0      0     644
                  _USBEnableEndpoint
 ---------------------------------------------------------------------------------
 (4) _USBEnableEndpoint                                    4     3      1     644
                                             10 COMRAM     4     3      1
               _USBConfigureEndpoint
 ---------------------------------------------------------------------------------
 (5) _USBConfigureEndpoint                                10     9      1     400
                                              0 COMRAM    10     9      1
 ---------------------------------------------------------------------------------
 (3) _USBCtrlTrfOutHandler                                 0     0      0      75
                _USBCtrlTrfRxService
 ---------------------------------------------------------------------------------
 (4) _USBCtrlTrfRxService                                  2     2      0      75
                                              0 COMRAM     2     2      0
          _USBCtrlEPAllowStatusStage
 ---------------------------------------------------------------------------------
 (5) _USBCtrlEPAllowStatusStage                            0     0      0       0
 ---------------------------------------------------------------------------------
 (3) _USBCtrlTrfInHandler                                  1     1      0      75
                                              1 COMRAM     1     1      0
                _USBCtrlTrfTxService
 ---------------------------------------------------------------------------------
 (6) _USBCtrlTrfTxService                                  1     1      0      60
                                              0 COMRAM     1     1      0
 ---------------------------------------------------------------------------------
 (1) _APP_DeviceJoystickTasks                              1     1      0    1039
                                             12 COMRAM     1     1      0
                       _ADC_Readbits
                    _ADC_multiButton
                   _BUTTON_IsPressed
               _USBTransferOnePacket
 ---------------------------------------------------------------------------------
 (2) _USBTransferOnePacket                                11     7      4     643
                                              0 COMRAM    11     7      4
 ---------------------------------------------------------------------------------
 (2) _BUTTON_IsPressed                                     3     3      0      15
                                              0 COMRAM     3     3      0
 ---------------------------------------------------------------------------------
 (2) _ADC_multiButton                                      5     3      2     312
                                              7 COMRAM     5     3      2
                       _ADC_Readbits
 ---------------------------------------------------------------------------------
 (3) _ADC_Readbits                                         7     5      2      69
                                              0 COMRAM     7     5      2
 ---------------------------------------------------------------------------------
 Estimated maximum stack depth 6
 ---------------------------------------------------------------------------------
 (Depth) Function   	        Calls       Base Space   Used Autos Params    Refs
 ---------------------------------------------------------------------------------
 (10) _SYS_InterruptHigh                                   0     0      0       0
 ---------------------------------------------------------------------------------
 Estimated maximum stack depth 10
 ---------------------------------------------------------------------------------

 Call Graph Graphs:

 _main (ROOT)
   _APP_DeviceJoystickTasks
     _ADC_Readbits
     _ADC_multiButton
       _ADC_Readbits
     _BUTTON_IsPressed
     _USBTransferOnePacket
   _SYSTEM_Initialize
     _ADC_Enable
     _ADC_SetConfiguration
     _BUTTON_Enable
   _USBDeviceInit
     _memset
   _USBDeviceTasks
     _USBCtrlEPAllowStatusStage
     _USBCtrlEPService
       _USBCtrlTrfInHandler
         _USBCtrlTrfTxService
       _USBCtrlTrfOutHandler
         _USBCtrlTrfRxService
           _USBCtrlEPAllowStatusStage
       _USBCtrlTrfSetupHandler
         _USBCheckStdRequest
           _USBStdFeatureReqHandler
             _USER_USB_CALLBACK_EVENT_HANDLER
               _APP_DeviceJoystickInitialize
                 _USBEnableEndpoint
                   _USBConfigureEndpoint
               _SYSTEM_Initialize
               _USBCheckHIDRequest
           _USBStdGetDscHandler
           _USBStdGetStatusHandler
           _USBStdSetCfgHandler
             _USER_USB_CALLBACK_EVENT_HANDLER
             _memset
           _USER_USB_CALLBACK_EVENT_HANDLER
         _USBCtrlEPServiceComplete
           _USBCtrlEPAllowDataStage
             _USBCtrlTrfTxService
           _USBCtrlEPAllowStatusStage
         _USER_USB_CALLBACK_EVENT_HANDLER
       _memcpy
     _USBDeviceInit
     _USBIncrement1msInternalTimers
     _USBStallHandler
     _USBSuspend
       _USER_USB_CALLBACK_EVENT_HANDLER
     _USBWakeFromSuspend
       _USER_USB_CALLBACK_EVENT_HANDLER
     _USER_USB_CALLBACK_EVENT_HANDLER

 _SYS_InterruptHigh (ROOT)

 Address spaces:
Name               Size   Autos  Total    Cost      Usage
BIGRAMl            3FF      0       0      30        0.0%
BIGRAMhh           2FA      0       0      28        0.0%
EEDATA             100      0       0       0        0.0%
BITBANK7           100      0       0      19        0.0%
BANK7              100      0       0      20        0.0%
BITBANK6           100      0       0      17        0.0%
BANK6              100      0       0      18        0.0%
BITBANK3           100      0       0      11        0.0%
BANK3              100      0       0      12        0.0%
BITBANK2           100      0       0       9        0.0%
BANK2              100      0       0      10        0.0%
BITBANK1           100      0       0       7        0.0%
BANK1              100      0       0       8        0.0%
BITBANK5            FA      0       0      15        0.0%
BANK5               FA      0       0      16        0.0%
BIGRAMhl            D0      0       0      29        0.0%
BITBANK4            D0      0       0      13        0.0%
BANK4               D0      0       0      14        0.0%
BITBANK0            A0      0       0       5        0.0%
BANK0               A0      0       0       6        0.0%
BITCOMRAM           5E      0       0       0        0.0%
COMRAM              5E     21      5A       1       95.7%
BITBIGSFRhhhh       3B      0       0      21        0.0%
BITBIGSFRhhlh       1E      0       0      22        0.0%
BITBIGSFRlhh        10      0       0      26        0.0%
BITBIGSFRhll         E      0       0      25        0.0%
BITBIGSFRhhll        9      0       0      23        0.0%
BITBIGSFRlll         8      0       0      27        0.0%
BITBIGSFRhlh         1      0       0      24        0.0%
BIGSFR               0      0       0     200        0.0%
BITSFR               0      0       0     200        0.0%
SFR                  0      0       0     200        0.0%
STACK                0      0       0       2        0.0%
NULL                 0      0       0       0        0.0%
ABS                  0      0      5A       3        0.0%
DATA                 0      0      5A       4        0.0%
CODE                 0      0       0       0        0.0%


Microchip Technology PIC18 Macro Assembler V2.40 build 20220703182018 
Symbol Table                                                                                   Thu Mar 16 03:43:19 2023

                             _USB_SD_Ptr 0801                                       l12 23F4  
                                     l13 24D0                                       l14 240A  
                                     l30 29E6                                       l15 2420  
                                     l16 2436                                       l32 2A3E  
                                     l24 29C8                                       l17 244C  
                                     l18 2462                                       l26 29CE  
                                     l27 29D4                                       l28 29DA  
                                     l29 29E0                                       l56 1DDE  
                                     l81 2804                                       l90 295C  
                                     l91 2962                                       l92 2968  
                                     l77 2788                                       l85 2944  
                                     l78 281C                                       l86 29C0  
                                     l79 27F6                                       l87 294A  
                                     l88 2950                                       l89 2956  
                                     l98 2CB0                                       u20 2C9E  
                                     u21 2C9A                                       u50 1514  
                                     u51 1510                                       u60 1528  
                                     u61 1524                                       u70 153E  
                                     u71 153A                                       u80 1552  
                                     u81 154E                                       u90 15C6  
                                     u91 15C2                            _USBDeviceInit 17AE  
                     _USBCheckHIDRequest 14FE     USER_USB_CALLBACK_EVENT_HANDLER@event 0048  
   USER_USB_CALLBACK_EVENT_HANDLER@pdata 004A                                      l303 26E4  
                                    l311 1AD0                                      l232 1812  
                                    l321 1B74                                      l241 1386  
                                    l410 293C                                      l243 1150  
                                    l308 2638                                      l260 12F2  
                                    l244 114E                                      l237 18F2  
                                    l430 2210              __end_of_USBStdGetDscHandler 17AE  
                                    l431 2216                                      l423 2202  
                                    l407 2588                                      l336 2112  
                                    l272 2BAE                                      l417 2AB2  
                                    l249 11C6                                      l370 17AC  
                                    l258 12E0                                      l347 1A1E  
                                    l435 2008                                      l259 1384  
                                    l620 08BA                                      l452 0E20  
                                    l356 23EC                                      l621 0DD8  
                                    l293 2306                                      l349 1A34  
                                    l517 165C                                      l437 1F12  
                                    l278 1CB2                                      l374 1DEE  
                                    l446 1F60                                      l390 2B12  
                                    l471 108A                                      l463 0FDC  
                                    l480 2C5E                                      l297 2306  
                                    l617 2CDE                                      l385 1EF4  
                                    l377 1ED8                                      l393 2C8A  
                                    l378 1E06                                      l555 2780  
                                    l475 1124                                      l379 1E0C  
                                    l388 2B10                                      l573 2BD2  
                                    l591 28AE                                      l399 2C2C  
                                    _BDT 000400                                      u200 20CA  
                                    u201 20C6                                      u210 20F6  
                                    u220 2112                                      u221 210E  
                                    u150 2024                                      u230 2228  
                                    u310 1672                         ?_ADC_multiButton 0041  
                                    u151 2020                                      u231 2224  
                                    u311 166E                                      u160 2038  
                                    u240 223C                                      u320 169E  
                                    u400 1E86                                      u217 20EC  
                                    u161 2034                                      u241 2238  
                                    u321 169A                                      u401 1E82  
                                    u170 2050                                      u250 2252  
                                    u330 16E6                                      u410 1E9C  
                                    u171 204C                                      u251 224E  
                                    u411 1E98                                      u180 2082  
                                    u260 228E                                      u340 1714  
                                    u420 1EE6                                      u181 207E  
                                    u261 228A                                      u421 1EE2  
                                    u190 20AE                                      u350 1732  
                                    u270 2654                                      u351 172E  
                                    u271 2650                                      u360 176E  
                                    u280 26AC                                      u337 16DC  
                                    u281 26A8                                      u370 1E00  
                                    u610 1A46                                      u347 170A  
                                    u371 1DFC                                      u611 1A42  
                                    u700 1970                                      u380 1E22  
                                    u620 1A54                                      u197 20A4  
                                    u701 196C                                      u381 1E1E  
                                    u621 1A50                                      u710 19AA  
                                    u390 1E30                                      u630 1A68  
                                    u711 19A6                                      u367 1764  
                                    u391 1E2C                                      u631 1A64  
                                    u800 2174                                      u720 1A30  
                                    u640 1AE0                                      u801 2170  
                                    u721 1A2C                                      u641 1ADC  
                                    u810 219E                                      u650 1AF4  
                                    u811 219A                                      u651 1AF0  
                                    u900 2446                                      u820 21CA  
                                    u660 1B10                                      u901 2440  
                                    u821 21C6                                      u661 1B0C  
                                    u910 2448                                      u830 2210  
                                    u670 1B70                                      u831 220C  
                                    u671 1B6C                                      u920 245C  
                                    u840 2404                                      u680 191A  
                                    u760 2A52                                      u921 2456  
                                    u841 23FE                                      u681 1916  
                                    u761 2A4E                                      u930 245E  
                                    u850 2406                                      u690 195E  
                                    u770 2A6E                                      u691 195A  
                                    u771 2A6A                                      _UIE 000F69  
                                    u940 2472                                      u860 241A  
                                    u780 2140                                      u941 246C  
                                    u861 2414                                      u781 213C  
                                    u950 2474                                      u870 241C  
                                    u790 2158                                      u791 2154  
                                    u880 2430                                      u881 242A  
                                    u890 2432                                      _UIR 000F68  
                             _USBSuspend 2C60                     USBStdSetCfgHandler@i 0050  
                                    prod 000FF3                                      wreg 000FE8  
                         _USBDeviceTasks 1126                      ?_USBCheckHIDRequest 003A  
                         _USBDeviceState 0034                            _BUTTON_Enable 29C2  
                  ??_USBCtrlTrfRxService 003A                 USBEnableEndpoint@options 0044  
                                   l2041 2A6E                                     l3001 1024  
                                   l1305 2B62                                     l2051 2124  
                                   l2043 2A92                                     l2035 2A40  
                                   l1411 15CA                                     l3011 1074  
                                   l3003 1030                                     l2061 2160  
                                   l2053 212E                                     l2045 2A9E  
                                   l2037 2A52                                     l1333 29C4  
                                   l1421 15EE                                     l1413 15D2  
                                   l1405 157E                                     l3013 109A  
                                   l3021 10F6                                     l3005 1050  
                                   l1309 14FC                                     l3101 2B38  
                                   l2071 219E                                     l2055 2140  
                                   l2063 2164                                     l2047 2AAE  
                                   l2039 2A5A                                     l1343 2940  
                                   l1423 15F6                                     l1415 15DA  
                                   l1407 15B0                                     l3023 1102  
                                   l3015 10B4                                     l3007 105C  
                                   l3031 1F14                                     l3111 28D4  
                                   l3103 2B44                                     l2081 21E6  
                                   l2073 21AA                                     l2065 2174  
                                   l2057 2148                                     l2049 2114  
                                   l1601 22A2                                     l1361 2CAE  
                                   l1353 2C8E                                     l1337 29EC  
                                   l1425 15FE                                     l1417 15E2  
                                   l1433 1612                                     l3025 1118  
                                   l3017 10CA                                     l3009 1066  
                                   l3041 1F36                                     l3033 1F1C  
                                   l3121 2904                                     l3113 28DE  
                                   l3105 2B48                                     l3201 17E4  
                                   l2091 2478                                     l2083 21F2  
                                   l2075 21BA                                     l2067 2188  
                                   l2059 2158                                     l1611 22E2  
                                   l1603 22B6                                     l1347 296E  
                                   l1355 2C9E                                     l1451 2820  
                                   l1427 1606                                     l1419 15E6  
                                   l3019 10D6                                     l3043 1F3A  
                                   l3035 1F24                                     l3027 1EF6  
                                   l3131 2938                                     l3123 290C  
                                   l3115 28EA                                     l3107 28B0  
                                   l3211 1802                                     l3133 1CB6  
                                   l1541 2024                                     l2077 21CA  
                                   l2069 218C                                     l1613 22F6  
                                   l1605 22C2                                     l1357 2CA2  
                                   l1461 285A                                     l1453 2824  
                                   l1429 160A                                     l1381 1518  
                                   l3045 1F40                                     l3037 1F2C  
                                   l1621 2678                                     l3125 2910  
                                   l3117 28F4                                     l3109 28C8  
                                   l3301 251A                                     l3221 181E  
                                   l3213 1814                                     l3071 2784  
                                   l3135 1CC4                                     l1543 2028  
                                   l1551 2054                                     l2087 2212  
                                   l2079 21D6                                     l1607 22CE  
                                   l1359 2CAA                                     l1463 2860  
                                   l1455 2848                                     l1391 1552  
                                   l3047 1F48                                     l3039 1F34  
                                   l3063 1F96                                     l1631 26B8  
                                   l1623 2684                                     l1615 263A  
                                   l3127 2918                                     l3119 2900  
                                   l3311 2584                                     l3303 2538  
                                   l3223 1822                                     l3215 1818  
                                   l3207 17E8                                     l2271 2C4C  
                                   l3081 27F4                                     l3137 1CD8  
                                   l3145 1CFA                                     l2097 247E  
                                   l2089 23F0                                     l3321 1BCE  
                                   l3313 1B78                                     l1561 2086  
                                   l1553 205C                                     l1545 2038  
                                   l1537 200A                                     l1609 22D2  
                                   l1465 2866                                     l1457 284E  
                                   l1473 287C                                     l1393 155A  
                                   l1385 152C                                     l1377 14FE  
                                   l1705 177A                                     l1721 1E0E  
                                   l1713 1DE0                                     l3057 1F62  
                                   l3049 1F50                                     l1633 26CC  
                                   l1625 2694                                     l1617 2642  
                                   l3129 291C                                     l3305 2560  
                                   l3241 18A4                                     l3225 1826  
                                   l3217 181A                                     l3209 1800  
                                   l2273 2C5C                                     l2265 2C2E  
                                   l2281 2AF6                                     l3401 1246  
                                   l3083 280A                                     l3147 1D10  
                                   l3155 1D32                                     l3139 1CEE  
                                   l3331 1C16                                     l3315 1B88  
                                   l1571 20CE                                     l1563 20B0  
                                   l1555 206C                                     l1547 2040  
                                   l1539 200E                                     l1467 286C  
                                   l1459 2854                                     l1395 1562  
                                   l1731 1E86                                     l1723 1E22  
                                   l3059 1F76                                     l1635 26D8  
                                   l1627 26AC                                     l1619 2654  
                                   l3307 2568                                     l3251 18CC  
                                   l3243 18A6                                     l3235 1854  
                                   l3227 182E                                     l3219 181C  
                                   l2267 2C3A                                     l2283 2B02  
                                   l2275 2AB4                                     l3403 124A  
                                   l3411 1270               USBConfigureEndpoint@handle 0042  
                                   l3085 2810                                     l3077 2790  
                                   l3157 1D48                                     l3165 1D68  
                                   l3149 1D26                                     l3333 1C22  
                                   l3325 1BDA                                     l3317 1BA4  
                                   l1573 20F8                                     l1565 20B4  
                                   l1557 2074                                     l1549 2050  
                                   l1581 2218                                     l1901 194C  
                                   l1469 2872                                     l1397 156A  
                                   l1389 1542                                     l1741 1EEE  
                                   l1733 1E9C                                     l1725 1E30  
                                   l1717 1DF0                                     l1629 26B4  
                                   l3309 2570                                     l3261 18EA  
                                   l3253 18D0                                     l3245 18B6  
                                   l3237 1884                                     l3229 183C  
                                   l2269 2C4A                                     l2285 2B0E  
                                   l2277 2AC2                                     l3421 12AC  
                                   l3413 127E                                     l3405 125A  
                                   l3087 2814                                     l3079 27E2  
                                   l3167 1D7C                                     l3175 1D9E  
                                   l3159 1D5C                                     l3335 1C32  
                                   l3327 1BFE                                     l3319 1BBC  
                                   l1575 20FC                                     l1567 20B8  
                                   l1591 2262                                     l1583 2228  
                                   l1911 19B6                                     l1903 195E  
                                   l1399 1572                                     l1743 1EF0  
                                   l1727 1E52                                     l1719 1E00  
                                   l3095 2B14                                     l3263 18EE  
                                   l3255 18D4                                     l3247 18BE  
                                   l3239 1894                                     l3191 17B0  
                                   l2279 2ADC                                     l3271 2C12  
                                   l3423 12C6                                     l3415 128C  
                                   l3407 125C                                     l3351 1126  
                                   l3343 1126                                     l3177 1DB4  
                                   l3185 1DD6                                     l3169 1D92  
                                   l3337 1C70                                     l3329 1C0A  
                                   l1577 2100                                     l1569 20BA  
                                   l1593 226E                                     l1585 223C  
                                   l1921 1A12                                     l1913 19C6  
                                   l1905 1970                                     l1681 1682  
                                   l1729 1E70                                     l1737 1EA4  
                                   l1841 1A68                                     l3097 2B28  
                                   l3257 18D6                                     l3249 18C2  
                                   l3193 17BC                                     l3281 2C62  
                                   l3273 2C18                                     l3265 2BF0  
                                   l3441 1310                                     l3425 12CA  
                                   l3417 1290                                     l3409 126C  
                                   l3361 1180                                     l3353 1136  
                                   l3179 1DCA                                     l3339 1CAA  
                                   l1579 2102                                     l1595 227E  
                                   l1587 2240                                     l1915 19D2  
                                   l1907 1994                                     l1691 171A  
                                   l1683 168E                                     l1675 165E  
                                   l1739 1EE6                                     l1851 1AA8  
                                   l1843 1A6C                                     l1835 1A36  
                                   l3099 2B34                                     l3291 24D2  
                                   l3259 18DA                                     l3195 17D8  
                                   l3283 2C64                                     l3275 2C1A  
                                   l3267 2BF4                                     l3451 1356  
                                   l3443 131E                                     l3435 1300  
                                   l3427 12DA                                     l3419 129E  
                                   l3371 11AC                                     l3363 1188  
                                   l3355 115E                                     l1597 228E  
                                   l1589 2252                                     l1925 1A20  
                                   l1909 19AA                                     l1917 19E2  
                                   l2821 2594                                     l1693 1722  
                                   l1685 169E                                     l1677 1672  
                                   l1861 1AFC                                     l1853 1AC0  
                                   l1845 1A70                                     l1837 1A46  
                                   l3293 24D6                                     l3197 17DC  
                                   l3189 17AE                                     l3285 2C66  
                                   l3277 2C28                                     l3269 2C10  
                                   l3453 1372                                     l3445 1330  
                                   l3437 1304                                     l3429 12EE  
                                   l3381 11E2                                     l3373 11AE  
                                   l3365 118A                                     l3357 1162  
                                   l3463 08CC                                     l1599 2292  
                                   l1927 1A30                                     l1919 1A06  
                                   l2831 2620                                     l2823 25D2  
                                   l1695 1732                                     l1687 16BA  
                                   l1679 167A                                     l2911 2344  
                                   l1871 1B2C                                     l1863 1B00  
                                   l1855 1AE0                                     l1839 1A54  
                                   l1847 1A78                                     l3295 24EC  
                                   l3199 17E0                                     l3287 2C6A  
                                   l3279 2C60                                     l3455 1374  
                                   l3447 133E                                     l3439 130E  
                                   l3391 1208                                     l3383 11E6  
                                   l3375 11B2                                     l3359 1172  
                                   l3367 1190                                     l3471 2BB0  
                                   l3465 08DE                                     l3457 08A6  
                                   l2833 262A                                     l2825 25DC  
                                   l2841 2B8C                                     l3801 272C  
                                   l1697 174E                                     l1689 16E8  
                                   l2921 236A                                     l2905 2308  
                                   l1881 1B60                                     l1873 1B40  
                                   l1865 1B10                                     l1857 1AF4  
                                   l1849 1A9C                                     l3297 2508  
                                   l3289 2C6E                                     l3449 134E  
                                   l3393 120C                                     l3385 11EA  
                                   l3377 11C0                                     l3369 119E  
                                   l3473 2BB6                                     l3467 08F4  
                                   l1891 191E                                     l2827 25EC  
                                   l2819 258C                                     l2843 2B96  
                                   l2835 2B66                                     l3811 2A00  
                                   l3803 2772                                     l2851 1388  
                                   l2931 23A8                                     l2923 237A  
                                   l2907 230A                                     l1875 1B4C  
                                   l1859 1AF8                                     l1867 1B18  
                                   l3299 2510                                     l3395 121A  
                                   l3379 11D4                                     l3387 11EC  
                                   l3483 2BE4                                     l3475 2BBA  
                                   l3469 0DBA                                     l1893 1926  
                                   l1885 18F4                                     l2829 2608  
                                   l2845 2BA2                                     l2837 2B74  
                                   l3813 2982                                     l3805 1592  
                                   l2861 13E8                                     l2941 23E8  
                                   l2933 23B0                                     l2925 2396  
                                   l2917 2348                                     l2909 2342  
                                   l1877 1B58                                     l1869 1B1C  
                                   l3397 1228                                     l3389 11FA  
                                   l3477 2BBE                                     l3815 2492  
                                   l1895 192E                                     l1887 1904  
                                   l2839 2B7E                                     l2847 2CCC  
                                   l3807 1626                                     l2951 0E14  
                                   l2943 0DDA                                     l2863 1440  
                                   l2855 13A6                                     l2935 23B4  
                                   l2927 2398                                     l2919 2368  
                                   l1879 1B5C                                     l3399 1244  
                                   l3817 27A4                                     l1897 1946  
                                   l1889 191A                                     l2849 2CD4  
                                   l3809 2890                                     l2961 0E6E  
                                   l2953 0E1C                                     l2945 0DEC  
                                   l2881 14EA                                     l2873 14A0  
                                   l2857 13B2                                     l2937 23C4  
                                   l2929 23A0                                     l1899 194A  
                                   l2891 2706                                     l2883 26E6  
                                   l2971 0EE8                                     l2963 0E80  
                                   l2955 0E30                                     l2947 0E00  
                                   l2875 14D4                                     l2867 145A  
                                   l2939 23CC                                     l2885 26EA  
                                   l2981 0F36                                     l2973 0F00  
                                   l2965 0E90                                     l2957 0E44  
                                   l2949 0E02                                     l2877 14E0  
                                   l2869 1486                                     l2887 26F4  
                                   l2895 270E                                     l2991 0FAC  
                                   l2983 0F58                                     l2975 0F0E  
                                   l2967 0EAE                                     l2959 0E58  
                                   l2879 14E6                                     l2889 26FE  
                                   l2993 0FC6                                     l2985 0F76  
                                   l2977 0F1E                                     l2969 0ECA  
                                   l2987 0F88                                     l2995 0FF8  
                                   l2979 0F28                                     l3795 1FAA  
                                   l2997 1002                                     l2989 0F9E  
                                   l3797 1EBA                                     l2999 1018  
                                   l3799 178E                                     u1100 2C4A  
                                   u1101 2C46                                     u1110 2C5C  
                                   u1111 2C58                                     u2000 2B8C  
                                   u1120 2AC2                                     u2001 2B88  
                                   u1121 2ABE                                     u2010 13A2  
                                   u1130 2ADC                                     u2011 139E  
                                   u1131 2AD8                                     u2100 0E14  
                                   u2020 13E4                                     u1140 2AF6  
                                   u2101 0E10                                     u2021 13E0  
                                   u1141 2AF2                                     u2110 0E30  
                                   u2030 1456                                     u2111 0E2C  
                                   u2031 1452                                     u3000 0B12  
                                   u2200 0F9E                                     u2120 0E44  
                                   u2040 149C                                     u3001 0B0A  
                                   u2201 0F9A                                     u2121 0E40  
                                   u2041 1498                                     u2210 0FAC  
                                   u2130 0E58                                     u2050 14FC  
                                   u2211 0FA8                                     u2131 0E54  
                                   u2051 14F8                                     u2300 1CEE  
                                   u3100 0C02                                     u3020 0B44  
                                   u2220 1018                                     u2140 0E6E  
                                   u2060 237A                                     u2301 1CEA  
                                   u3101 0BFA                                     u3021 0B3C  
                                   u2221 1014                                     u2141 0E6A  
                                   u2061 2376                                     u2310 1D10  
                                   u2230 1074                                     u2150 0E80  
                                   u2070 23C4                                     u2311 1D0C  
                                   u2231 1070                                     u2151 0E7C  
                                   u2071 23C0                                     u2320 1D26  
                                   u3200 0CEA                                     u3120 0C2C  
                                   u3040 0B70                                     u2240 108A  
                                   u2160 0E90                                     u2080 0DEC  
                                   u2400 183C                                     u2321 1D22  
                                   u3201 0CE2                                     u3121 0C24  
                                   u3041 0B68                                     u2241 1086  
                                   u2161 0E8C                                     u2081 0DE8  
                                   u2401 1838                                     u2330 1D48  
                                   u3018 0B14                                     u2250 109A  
                                   u2170 0F0E                                     u2090 0E00  
                                   u2410 18B6                                     u2331 1D44  
                                   u2251 1096                                     u2171 0F0A  
                                   u2091 0DFC                                     u2411 18B2  
                                   u2340 1D5C                                     u3140 0C5A  
                                   u3060 0BA0                                     u2180 0F36  
                                   u2260 1F0E                                     u2420 2C28  
                                   u2500 115E                                     u3220 2BCE  
                                   u2341 1D58                                     u3141 0C52  
                                   u3061 0B98                                     u2181 0F32  
                                   u2261 1F0A                                     u2421 2C24  
                                   u2501 115A                                     u3221 2BCA  
                                   u2270 2804                                     u2350 1D7C  
                                   u3118 0C04                                     u3038 0B46  
                                   u2190 0F88                                     u2430 24EC  
                                   u2510 1172                                     u3230 2BE0  
                                   u2271 2800                                     u2351 1D78  
                                   u2191 0F84                                     u2431 24E8  
                                   u2511 116E                                     u3231 2BDC  
                                   u2360 1D92                                     u3160 0C8A  
                                   u3080 0BD2                                     u2280 2B62  
                                   u2440 2538                                     u2600 121A  
                                   u2520 1180                                     u2361 1D8E  
                                   u3161 0C82                                     u3081 0BCA  
                                   u2281 2B5E                                     u2441 2534  
                                   u2601 1216                                     u2521 117C  
                                   u2370 1DB4                                     u2290 1CD8  
                                   u3218 0CEC                                     u3138 0C2E  
                                   u3058 0B72                                     u2450 2584  
                                   u2610 1228                                     u2530 119E  
                                   u2371 1DB0                                     u2291 1CD4  
                                   u2451 2580                                     u2611 1224  
                                   u2531 119A                                     u2380 1DCA  
                                   u2460 1B88                                     u3180 0CBC  
                                   u2700 1300                                     u2620 125A  
                                   u2540 11AC                                     u2381 1DC6  
                                   u2461 1B84                                     u3181 0CB4  
                                   u2701 12FC                                     u2621 1256  
                                   u2541 11A8                                     u2470 1BCE  
                                   u3158 0C5C                                     u3078 0BA2  
                                   u2390 1812                                     u2710 131E  
                                   u2630 126C                                     u2550 11C0  
                                   u2471 1BCA                                     u2391 180E  
                                   u2711 131A                                     u2631 1268  
                                   u2551 11BC                                     u2480 1C32  
                                   u2800 093C                                     u2720 134E  
                                   u2640 127E                                     u2560 11D4  
                                   u2481 1C2E                                     u2801 0934  
                                   u2721 134A                                     u2641 127A  
                                   u2561 11D0                                     u3178 0C8C  
                                   u3098 0BD4                                     u2730 1384  
                                   u2650 128C                                     u2570 11E2  
                                   u2490 1136                                     u2731 1380  
                                   u2651 1288                                     u2571 11DE  
                                   u2491 1132                                     u2900 0A28  
                                   u2820 096A                                     u2740 08B6  
                                   u2660 129E                                     u2580 11FA  
                                   u2901 0A20                                     u2821 0962  
                                   u2741 08B2                                     u2661 129A  
                                   u2581 11F6                                     u3198 0CBE  
                                   u2750 08C8                                     u2670 12AC  
                                   u2590 1208                                     u2751 08C4  
                                   u2671 12A8                                     u2591 1204  
                                   u2920 0A5A                                     u2840 099A  
                                   u2760 08DE                                     u2680 12DA  
                                   u2921 0A52                                     u2841 0992  
                                   u2761 08DA                                     u2681 12D6  
                                   u2818 093E                                     u2770 08F4  
                                   u2690 12EE                                     u2771 08F0  
                                   u2691 12EA                                     u2940 0A8A  
                                   u2860 09CA                                     u2780 0910  
                                   u1980 25EC                                     u2941 0A82  
                                   u2861 09C2                                     u2781 0908  
                                   u1981 25E8                                     u2918 0A2A  
                                   u2838 096C                                     u1990 2B74  
                                   u1991 2B70                                     u2960 0AB4  
                                   u2880 09F8                                     u2961 0AAC  
                                   u2881 09F0                                     u2938 0A5C  
                                   u2858 099C                                     u2980 0AE2  
                                   u2981 0ADA                                     u2958 0A8C  
                                   u2878 09CC                                     u2798 0912  
                                   u2978 0AB6                                     u2898 09FA  
                                   u2998 0AE4                    ??_USBCtrlTrfTxService 003A  
                                   _UCFG 000F6F                                     _UEP0 000F70  
                                   _UEP1 000F71                                     _UEIE 000F6B  
                                   _UEIR 000F6A                                     _UCON 000F6D  
 USBStdFeatureReqHandler@current_ep_data 0054                                     _pDst 0021  
                                   _main 2BB0                                     fsr1h 000FE2  
                                   fsr2h 000FDA                                     indf1 000FE7  
                                   indf2 000FDF                                     fsr1l 000FE1  
                                   fsr2l 000FD9                                     btemp 005B  
                                   prodh 000FF4                                     prodl 000FF3  
                                   start 000E          __end_of_APP_DeviceJoystickTasks 0DDA  
                   ??_USBCheckHIDRequest 003A               __end_of_USBCheckStdRequest 200A  
                 ??_USBCtrlTrfOutHandler 003C                             ___param_bank 000000  
              ??_USBStdFeatureReqHandler 0050                 ??_USBStdGetStatusHandler 003A  
                         ?_USBDeviceInit 003A                                    ?_main 003A  
                 __end_of_USBDeviceTasks 1388                ?_USBCtrlEPServiceComplete 003A  
                                  i2l596 2CE2                                    _UADDR 000F6E  
                                  _USTAT 000F6C                           ?_BUTTON_Enable 003A  
        __end_of_USBCtrlEPAllowDataStage 26E6                                    _sd000 08A0  
                                  _sd001 0836                                    _sd002 087C  
         ?_USBIncrement1msInternalTimers 003A                                    tablat 000FF5  
                ADC_multiButton@adc_volt 0044                                    plusw2 000FDB  
                                  ttemp5 005C                                    ttemp6 005F  
                                  ttemp7 0063                                    status 000FD8  
                                  wtemp8 005C                          __initialization 2CB2  
                           __end_of_main 2BF0                             _ADC_Readbits 2782  
                                 ??_main 005B                            __activetblptr 000002  
                        ?_USBDeviceTasks 003A                              ?_USBSuspend 003A  
                                 _ADCON0 000FC2                                   _ADCON2 000FC0  
                                 _ADRESH 000FC4                                   _ADRESL 000FC3  
                 SYSTEM_Initialize@state 003F                             ??_ADC_Enable 003A  
                      _shortPacketStatus 0033                          USBDeviceTasks@i 005A  
            USBStdFeatureReqHandler@pUEP 0052                 USBTransferOnePacket@data 003B  
             USBCtrlTrfInHandler@lastDTS 003B                          ??_USBDeviceInit 0046  
                      _USBEnableEndpoint 2B64                                   _memcpy 2B14  
                                 _memset 1388                                   clear_0 2CB8  
                                 isa$std 000001                       ?_USBEnableEndpoint 0044  
                     __end_of_ADC_Enable 29C2                          ??_BUTTON_Enable 003A  
                           __mediumconst 0000                                   tblptrh 000FF7  
                                 tblptrl 000FF6                                   tblptru 000FF8  
                    ??_USBEnableEndpoint 0045                              _CtrlTrfData 000428  
                   _controlTransferState 0032                        _SYSTEM_Initialize 281E  
                             __accesstop 0060                  __end_of__initialization 2CBE  
                     ?_SYSTEM_Initialize 003A                            ___rparam_used 000001  
                         __pcstackCOMRAM 003A                __end_of_USBEnableEndpoint 2BB0  
                          __end_of_sd000 08A4                            __end_of_sd001 085A  
                          __end_of_sd002 088E                      ??_SYSTEM_Initialize 003D  
                        _active_protocol 0035              __end_of_USBCtrlTrfInHandler 2218  
               ??_USBCtrlTrfSetupHandler 0059                  _USBTicksSinceSuspendEnd 0027  
              __end_of_SYSTEM_Initialize 28B0                         _BUTTON_IsPressed 23EE  
                 _USBStdGetStatusHandler 1DE0                              _pBDTEntryIn 0013  
       __end_of_USBCtrlEPServiceComplete 1B76                     USBCtrlTrfRxService@i 003A  
                                ?_memcpy 003A                                  ?_memset 003A  
                             _device_dsc 088E                         _USBCtrlEPService 24D2  
                             _ep_data_in 001F              __end_of_USBCtrlTrfRxService 1A36  
                     _USBCheckStdRequest 1EF6                        _configDescriptor1 085A  
                     ADC_Readbits@result 003E              __end_of_USBCtrlTrfTxService 2114  
                    _USBStdSetCfgHandler 2308                      ?_USBCheckStdRequest 003A  
                                _UIEbits 000F69                                  _UIRbits 000F68  
                                __Hparam 0000          ??_USBIncrement1msInternalTimers 003A  
                   ?_USBStdSetCfgHandler 003A                                  __Lparam 0000  
                      __end_of_hid_rpt01 0836        ADC_SetConfiguration@configuration 003A  
                   ??_USBCheckStdRequest 0057                         ??_USBDeviceTasks 005A  
                      ??_USBStallHandler 003A                             __psmallconst 0800  
                                __pcinit 2CB2                __end_of_configDescriptor1 087C  
                                __ramtop 0800                                  __ptext0 2BB0  
                                __ptext1 1126                                  __ptext2 2BF0  
                                __ptext3 2C60                                  __ptext4 2AB4  
                                __ptext5 2C2E                                  __ptext6 17AE  
                                __ptext7 24D2                                  __ptext8 2B14  
                                __ptext9 28B0                                  _inPipes 0009  
            _USBDeferOUTDataStagePackets 0028                             ??_USBSuspend 0050  
                _APP_DeviceJoystickTasks 08A6                       __end_of_USB_CD_Ptr 0809  
                         __pintcode_body 2CE0                     end_of_initialization 2CBE  
                     __end_of_USB_SD_Ptr 0807                                  memcpy@d 0040  
                                memcpy@n 003E                                  memcpy@s 0042  
                    _pBDTEntryEP0OutNext 0023                                  memset@c 003C  
                                memset@k 0042                                  memset@n 003E  
                                memset@s 0044                            __Lmediumconst 0000  
                                int_func 2CE0                          _USB1msTickCount 000F  
               ?_USBStdFeatureReqHandler 003A                    ??_USBStdSetCfgHandler 0050  
                     __end_of_USBSuspend 2C8C                  _USBCtrlEPAllowDataStage 263A  
                                postdec2 000FDD                                  postinc0 000FEE  
                                postinc2 000FDE                 _USBCtrlEPServiceComplete 1A36  
             _USBStatusStageEnabledFlag1 002B               _USBStatusStageEnabledFlag2 002A  
                     USBEnableEndpoint@p 0045                                _PORTCbits 000F82  
                              _PORTDbits 000F83                                _TRISAbits 000F92  
                              _TRISCbits 000F94                                _TRISDbits 000F95  
                              _TRISEbits 000F96                           _joystick_input 000500  
                     _BothEP0OutUOWNsSet 002E                USBConfigureEndpoint@EPNum 0041  
             ?_USBCtrlEPAllowStatusStage 003A      USER_USB_CALLBACK_EVENT_HANDLER@size 004C  
                              _USTATcopy 0037             __end_of_USBTransferOnePacket 1CB4  
                      ??_ADC_multiButton 0043                   _USBCtrlTrfSetupHandler 28B0  
               __end_of_BUTTON_IsPressed 24D2                    __end_of_USBDeviceInit 18F4  
  __end_of_USBIncrement1msInternalTimers 2C60            _USBIncrement1msInternalTimers 2C2E  
              ??_APP_DeviceJoystickTasks 0046                           __end_of_memcpy 2B64  
                         __end_of_memset 14FE                        _USBBusIsSuspended 0030  
                 ADC_multiButton@channel 0043                      start_initialization 2CB2  
                ?_USBStdGetStatusHandler 003A                    __end_of_BUTTON_Enable 2A40  
          USBCtrlTrfRxService@byteToRead 003B             __end_of_USBConfigureEndpoint 263A  
        __end_of_USBStdFeatureReqHandler 1126        __end_of_USBCtrlEPAllowStatusStage 2308  
               __end_of_USBCtrlEPService 258A                ??_USBCtrlEPAllowDataStage 003B  
                         USBDeviceInit@i 0046                   _pBDTEntryEP0OutCurrent 0025  
                USBTransferOnePacket@dir 003A                  USBTransferOnePacket@len 003D  
           __end_of_ADC_SetConfiguration 2CB2     __end_of_APP_DeviceJoystickInitialize 2CE0  
           _APP_DeviceJoystickInitialize 2CCC                      _USBStdGetDscHandler 165E  
                               ??_memcpy 0040                                 ??_memset 0040  
                             memset@dest 003A                   BUTTON_IsPressed@button 003C  
                 _USBActiveConfiguration 0039           __end_of_USBStdGetStatusHandler 1EF6  
                            __pbssCOMRAM 0001                     ?_USBStdGetDscHandler 003A  
             __end_of_USBWakeFromSuspend 2C2E                          _USBStallHandler 2AB4  
                       _lastTransmission 001B                             _pBDTEntryOut 0017  
                              __pintcode 0008                            ?_ADC_Readbits 003A  
                              _hid_rpt01 0809            ?_APP_DeviceJoystickInitialize 003A  
                              _idle_rate 0036                     _USBTransferOnePacket 1B76  
                            __smallconst 0800             __end_of_USBCtrlTrfOutHandler 2AB4  
                  ??_USBStdGetDscHandler 003A                              _ep_data_out 001D  
                    ADC_Readbits@channel 0040            USBConfigureEndpoint@direction 003A  
             __end_of_USBCheckHIDRequest 165E               ??_USBCtrlEPServiceComplete 003B  
                               _PIE2bits 000FA0                                 _PIR2bits 000FA1  
                         ??_ADC_Readbits 003C                                 _UEP0bits 000F70  
             _USBDeferINDataStagePackets 0029                                 _UCONbits 000F6D  
                   _USBConfigureEndpoint 258A                               _ADCON0bits 000FC2  
                             _ADCON1bits 000FC1                               _ADCON2bits 000FC0  
                  ?_USBTransferOnePacket 003A                        _SYS_InterruptHigh 0008  
                           _RemoteWakeup 0031                       ?_SYS_InterruptHigh 003A  
                        _ADC_multiButton 1CB4                  __end_of_USBStallHandler 2B14  
                   _ADC_SetConfiguration 2C8C              ??_USBCtrlEPAllowStatusStage 003A  
            __end_of_USBStdSetCfgHandler 23EE                               _ADC_Enable 293E  
                    ??_SYS_InterruptHigh 003A                       __end_of_device_dsc 08A0  
                ?_USBCtrlTrfSetupHandler 003A                  USBStdGetStatusHandler@p 003C  
                               __Hrparam 0000                                memcpy@tmp 0044  
                               __Lrparam 0000                   USBTransferOnePacket@ep 0042  
                               _SetupPkt 000420                    ?_USBConfigureEndpoint 003A  
                      ?_BUTTON_IsPressed 003A                __end_of_SYS_InterruptHigh 2CE6  
                     ??_BUTTON_IsPressed 003A           ??_APP_DeviceJoystickInitialize 0048  
                               __ptext10 1A36                                 __ptext11 263A  
                               __ptext20 281E                                 __ptext12 1EF6  
                               __ptext21 29C2                                 __ptext13 2308  
                               __ptext30 2114                                 __ptext22 2C8C  
                               __ptext14 1388                                 __ptext31 200A  
                               __ptext23 293E                                 __ptext15 1DE0  
                               __ptext32 08A6                                 __ptext24 2CCC  
                               __ptext16 165E                                 __ptext33 1B76  
                               __ptext25 2B64                                 __ptext17 0DDA  
                               __ptext34 23EE                                 __ptext26 258A  
                               __ptext18 26E6                                 __ptext35 1CB4  
                               __ptext27 2A40                                 __ptext19 14FE  
                               __ptext36 2782                                 __ptext28 18F4  
                               __ptext29 2218                    ?_ADC_SetConfiguration 003A  
         __end_of_USBCtrlTrfSetupHandler 293E                        ?_USBCtrlEPService 003A  
                     ??_USBCtrlEPService 0059                      _USBCtrlTrfInHandler 2114  
                               isa$xinst 000000                      BUTTON_Enable@button 003C  
                               _outPipes 0001                     _USBCtrlTrfOutHandler 2A40  
                               int$flags 005B                _USBCtrlEPAllowStatusStage 2218  
                 ??_USBTransferOnePacket 003E                  __end_of_ADC_multiButton 1DE0  
              _USBDeferStatusStagePacket 002C                     ?_USBCtrlTrfInHandler 003A  
                               memcpy@d1 003A                                 memcpy@s1 003C  
          USBCtrlTrfTxService@byteToSend 003A                     __end_of_ADC_Readbits 281E  
                       ?_USBStallHandler 003A                 USBStdFeatureReqHandler@p 0055  
                               intlevel2 0000                              ?_ADC_Enable 003A  
__end_of_USER_USB_CALLBACK_EVENT_HANDLER 2782        ??_USER_USB_CALLBACK_EVENT_HANDLER 004E  
       ?_USER_USB_CALLBACK_EVENT_HANDLER 0048          _USER_USB_CALLBACK_EVENT_HANDLER 26E6  
                 ??_USBConfigureEndpoint 003B                    ?_USBCtrlTrfOutHandler 003A  
               ?_APP_DeviceJoystickTasks 003A                      _USBCtrlTrfRxService 18F4  
                     _USBWakeFromSuspend 2BF0                  _USBStdFeatureReqHandler 0DDA  
                    _USBCtrlTrfTxService 200A                        ADC_Enable@channel 003C  
                    ?_USBWakeFromSuspend 003A                    ??_USBCtrlTrfInHandler 003B  
                  _USBAlternateInterface 0038                   ??_ADC_SetConfiguration 003A  
                    USBEnableEndpoint@ep 0047                          _endpoint_number 002F  
                   ?_USBCtrlTrfRxService 003A                 ?_USBCtrlEPAllowDataStage 003A  
                   ?_USBCtrlTrfTxService 003A             _USBStatusStageTimeoutCounter 002D  
                   ??_USBWakeFromSuspend 0050               USBTransferOnePacket@handle 0043  
                             _USB_CD_Ptr 0807  
