

Microchip MPLAB XC8 Assembler V2.40 build 20220703182018 
                                                                                               Thu Mar 16 22:35:49 2023

Microchip MPLAB XC8 C Compiler v2.40 (Free license) build 20220703182018 Og1 
     1                           	processor	18F4550
     2                           	fnconf	rparam,??,?,0
     3                           	pagewidth 120
     4                           	opt	flic
     5                           	psect	smallconst,global,reloc=2,class=SMALLCONST,delta=1,noexec
     6                           	psect	cinit,global,reloc=2,class=CODE,delta=1
     7                           	psect	bssCOMRAM,global,class=COMRAM,space=1,delta=1,lowdata,noexec
     8                           	psect	cstackCOMRAM,global,class=COMRAM,space=1,delta=1,lowdata,noexec
     9                           	psect	text0,global,reloc=2,class=CODE,delta=1
    10                           	psect	text1,global,reloc=2,class=CODE,delta=1
    11                           	psect	text2,global,reloc=2,class=CODE,delta=1
    12                           	psect	text3,global,reloc=2,class=CODE,delta=1
    13                           	psect	text4,global,reloc=2,class=CODE,delta=1
    14                           	psect	text5,global,reloc=2,class=CODE,delta=1
    15                           	psect	text6,global,reloc=2,class=CODE,delta=1
    16                           	psect	text7,global,reloc=2,class=CODE,delta=1
    17                           	psect	text8,global,reloc=2,class=CODE,delta=1,group=2
    18                           	psect	text9,global,reloc=2,class=CODE,delta=1
    19                           	psect	text10,global,reloc=2,class=CODE,delta=1
    20                           	psect	text11,global,reloc=2,class=CODE,delta=1
    21                           	psect	text12,global,reloc=2,class=CODE,delta=1
    22                           	psect	text13,global,reloc=2,class=CODE,delta=1
    23                           	psect	text14,global,reloc=2,class=CODE,delta=1,group=2
    24                           	psect	text15,global,reloc=2,class=CODE,delta=1
    25                           	psect	text16,global,reloc=2,class=CODE,delta=1
    26                           	psect	text17,global,reloc=2,class=CODE,delta=1
    27                           	psect	text18,global,reloc=2,class=CODE,delta=1
    28                           	psect	text19,global,reloc=2,class=CODE,delta=1
    29                           	psect	text20,global,reloc=2,class=CODE,delta=1
    30                           	psect	text21,global,reloc=2,class=CODE,delta=1
    31                           	psect	text22,global,reloc=2,class=CODE,delta=1
    32                           	psect	text23,global,reloc=2,class=CODE,delta=1
    33                           	psect	text24,global,reloc=2,class=CODE,delta=1
    34                           	psect	text25,global,reloc=2,class=CODE,delta=1
    35                           	psect	text26,global,reloc=2,class=CODE,delta=1
    36                           	psect	text27,global,reloc=2,class=CODE,delta=1
    37                           	psect	text28,global,reloc=2,class=CODE,delta=1
    38                           	psect	text29,global,reloc=2,class=CODE,delta=1
    39                           	psect	text30,global,reloc=2,class=CODE,delta=1
    40                           	psect	text31,global,reloc=2,class=CODE,delta=1
    41                           	psect	text32,global,reloc=2,class=CODE,delta=1
    42                           	psect	text33,global,reloc=2,class=CODE,delta=1
    43                           	psect	intcode,global,reloc=2,class=CODE,delta=1
    44                           	psect	intcode_body,global,reloc=2,class=CODE,delta=1
    45                           	psect	intsave_regs,global,class=BIGRAM,space=1,delta=1,noexec
    46                           	psect	rparam,global,class=COMRAM,space=1,delta=1,noexec
    47                           	psect	temp,global,ovrld,common,class=COMRAM,space=1,delta=1
    48                           	psect	idloc,global,abs,ovrld,class=IDLOC,space=5,delta=1,noexec
    49                           	psect	config,global,abs,ovrld,class=CONFIG,space=4,delta=1,noexec
    50                           	dabs	1,0x400,32,_BDT
    51                           	dabs	1,0x428,8,_CtrlTrfData
    52                           	dabs	1,0x420,8,_SetupPkt
    53                           	dabs	1,0x500,3,_joystick_input
    54   000000                     
    55                           ; Version 2.40
    56                           ; Generated 17/11/2021 GMT
    57                           ; 
    58                           ; Copyright © 2021, Microchip Technology Inc. and its subsidiaries ("Microchip")
    59                           ; All rights reserved.
    60                           ; 
    61                           ; This software is developed by Microchip Technology Inc. and its subsidiaries ("Microch
      +                          ip").
    62                           ; 
    63                           ; Redistribution and use in source and binary forms, with or without modification, are
    64                           ; permitted provided that the following conditions are met:
    65                           ; 
    66                           ;     1. Redistributions of source code must retain the above copyright notice, this lis
      +                          t of
    67                           ;        conditions and the following disclaimer.
    68                           ; 
    69                           ;     2. Redistributions in binary form must reproduce the above copyright notice, this 
      +                          list
    70                           ;        of conditions and the following disclaimer in the documentation and/or other
    71                           ;        materials provided with the distribution. Publication is not required when
    72                           ;        this file is used in an embedded application.
    73                           ; 
    74                           ;     3. Microchip's name may not be used to endorse or promote products derived from th
      +                          is
    75                           ;        software without specific prior written permission.
    76                           ; 
    77                           ; THIS SOFTWARE IS PROVIDED BY MICROCHIP "AS IS" AND ANY EXPRESS OR IMPLIED WARRANTIES,
    78                           ; INCLUDING, BUT NOT LIMITED TO, THE IMPLIED WARRANTIES OF MERCHANTABILITY AND FITNESS F
      +                          OR
    79                           ; PURPOSE ARE DISCLAIMED.  IN NO EVENT SHALL MICROCHIP BE LIABLE FOR ANY DIRECT, INDIREC
      +                          T,
    80                           ; INCIDENTAL, SPECIAL, EXEMPLARY, OR CONSEQUENTIAL DAMAGES (INCLUDING BUT NOT LIMITED TO
    81                           ; PROCUREMENT OF SUBSTITUTE GOODS OR SERVICES; LOSS OF USE, DATA OR PROFITS; OR BUSINESS
    82                           ; INTERRUPTION) HOWSOEVER CAUSED AND ON ANY THEORY OF LIABILITY, WHETHER IN CONTRACT, ST
      +                          RICT
    83                           ; LIABILITY, OR TORT (INCLUDING NEGLIGENCE OR OTHERWISE) ARISING IN ANY WAY OUT OF THE U
      +                          SE OF
    84                           ; THIS SOFTWARE, EVEN IF ADVISED OF THE POSSIBILITY OF SUCH DAMAGE.
    85                           ; 
    86                           ; 
    87                           ; Code-generator required, PIC18F4550 Definitions
    88                           ; 
    89                           ; SFR Addresses
    90   000000                     
    91                           	psect	smallconst
    92   000800                     __psmallconst:
    93                           	callstack 0
    94   000800  00                 	db	0
    95   000801                     _USB_SD_Ptr:
    96                           	callstack 0
    97   000801  A2                 	db	low _sd000
    98   000802  08                 	db	high _sd000
    99   000803  31                 	db	low _sd001
   100   000804  08                 	db	high _sd001
   101   000805  09                 	db	low _sd002
   102   000806  08                 	db	high _sd002
   103   000807                     __end_of_USB_SD_Ptr:
   104                           	callstack 0
   105   000807                     _USB_CD_Ptr:
   106                           	callstack 0
   107   000807  55                 	db	low _configDescriptor1
   108   000808  08                 	db	high _configDescriptor1
   109   000809                     __end_of_USB_CD_Ptr:
   110                           	callstack 0
   111   000809                     _sd002:
   112                           	callstack 0
   113   000809  28                 	db	40
   114   00080A  03                 	db	3
   115   00080B  0052               	dw	82
   116   00080D  0075               	dw	117
   117   00080F  0064               	dw	100
   118   000811  0064               	dw	100
   119   000813  0065               	dw	101
   120   000815  0072               	dw	114
   121   000817  0020               	dw	32
   122   000819  0050               	dw	80
   123   00081B  0065               	dw	101
   124   00081D  0064               	dw	100
   125   00081F  0061               	dw	97
   126   000821  006C               	dw	108
   127   000823  0020               	dw	32
   128   000825  0053               	dw	83
   129   000827  0079               	dw	121
   130   000829  0073               	dw	115
   131   00082B  0074               	dw	116
   132   00082D  0065               	dw	101
   133   00082F  006D               	dw	109
   134   000831                     __end_of_sd002:
   135                           	callstack 0
   136   000831                     _sd001:
   137                           	callstack 0
   138   000831  24                 	db	36
   139   000832  03                 	db	3
   140   000833  0052               	dw	82
   141   000835  0075               	dw	117
   142   000837  0062               	dw	98
   143   000839  0062               	dw	98
   144   00083B  0065               	dw	101
   145   00083D  0072               	dw	114
   146   00083F  0020               	dw	32
   147   000841  0048               	dw	72
   148   000843  0065               	dw	101
   149   000845  006C               	dw	108
   150   000847  0069               	dw	105
   151   000849  0078               	dw	120
   152   00084B  0020               	dw	32
   153   00084D  004C               	dw	76
   154   00084F  0061               	dw	97
   155   000851  0062               	dw	98
   156   000853  0073               	dw	115
   157   000855                     __end_of_sd001:
   158                           	callstack 0
   159   000855                     _configDescriptor1:
   160                           	callstack 0
   161   000855  09                 	db	9
   162   000856  02                 	db	2
   163   000857  22                 	db	34
   164   000858  00                 	db	0
   165   000859  01                 	db	1
   166   00085A  01                 	db	1
   167   00085B  00                 	db	0
   168   00085C  C0                 	db	192
   169   00085D  32                 	db	50
   170   00085E  09                 	db	9
   171   00085F  04                 	db	4
   172   000860  00                 	db	0
   173   000861  00                 	db	0
   174   000862  01                 	db	1
   175   000863  03                 	db	3
   176   000864  00                 	db	0
   177   000865  00                 	db	0
   178   000866  00                 	db	0
   179   000867  09                 	db	9
   180   000868  21                 	db	33
   181   000869  11                 	db	17
   182   00086A  01                 	db	1
   183   00086B  00                 	db	0
   184   00086C  01                 	db	1
   185   00086D  22                 	db	34
   186   00086E  19                 	db	25
   187   00086F  00                 	db	0
   188   000870  07                 	db	7
   189   000871  05                 	db	5
   190   000872  81                 	db	129
   191   000873  03                 	db	3
   192   000874  40                 	db	64
   193   000875  00                 	db	0
   194   000876  01                 	db	1
   195   000877                     __end_of_configDescriptor1:
   196                           	callstack 0
   197   000877                     _hid_rpt01:
   198                           	callstack 0
   199   000877  05                 	db	5
   200   000878  01                 	db	1
   201   000879  09                 	db	9
   202   00087A  05                 	db	5
   203   00087B  A1                 	db	161
   204   00087C  01                 	db	1
   205   00087D  26                 	db	38
   206   00087E  FF                 	db	255
   207   00087F  00                 	db	0
   208   000880  46                 	db	70
   209   000881  FF                 	db	255
   210   000882  00                 	db	0
   211   000883  09                 	db	9
   212   000884  32                 	db	50
   213   000885  09                 	db	9
   214   000886  33                 	db	51
   215   000887  09                 	db	9
   216   000888  35                 	db	53
   217   000889  75                 	db	117
   218   00088A  08                 	db	8
   219   00088B  95                 	db	149
   220   00088C  03                 	db	3
   221   00088D  81                 	db	129
   222   00088E  02                 	db	2
   223   00088F  C0                 	db	192
   224   000890                     __end_of_hid_rpt01:
   225                           	callstack 0
   226   000890                     _device_dsc:
   227                           	callstack 0
   228   000890  12                 	db	18
   229   000891  01                 	db	1
   230   000892  0200               	dw	512
   231   000894  00                 	db	0
   232   000895  00                 	db	0
   233   000896  00                 	db	0
   234   000897  08                 	db	8
   235   000898  04D8               	dw	1240
   236   00089A  0167               	dw	359
   237   00089C  0001               	dw	1
   238   00089E  01                 	db	1
   239   00089F  02                 	db	2
   240   0008A0  00                 	db	0
   241   0008A1  01                 	db	1
   242   0008A2                     __end_of_device_dsc:
   243                           	callstack 0
   244   0008A2                     _sd000:
   245                           	callstack 0
   246   0008A2  04                 	db	4
   247   0008A3  03                 	db	3
   248   0008A4  0409               	dw	1033
   249   0008A6                     __end_of_sd000:
   250                           	callstack 0
   251   000000                     _USTAT	set	3948
   252   000000                     _UADDR	set	3950
   253   000000                     _UCONbits	set	3949
   254   000000                     _UIE	set	3945
   255   000000                     _UEIE	set	3947
   256   000000                     _UCFG	set	3951
   257   000000                     _ADRESL	set	4035
   258   000000                     _ADRESH	set	4036
   259   000000                     _UEP0	set	3952
   260   000000                     _UEP0bits	set	3952
   261   000000                     _UIEbits	set	3945
   262   000000                     _UCON	set	3949
   263   000000                     _UIRbits	set	3944
   264   000000                     _ADCON2bits	set	4032
   265   000000                     _ADCON0	set	4034
   266   000000                     _UIR	set	3944
   267   000000                     _UEIR	set	3946
   268   000000                     _PORTBbits	set	3969
   269   000000                     _TRISAbits	set	3986
   270   000000                     _TRISBbits	set	3987
   271   000000                     _TRISEbits	set	3990
   272   000000                     _ADCON0bits	set	4034
   273   000000                     _PIE2bits	set	4000
   274   000000                     _ADCON2	set	4032
   275   000000                     _ADCON1bits	set	4033
   276   000000                     _PIR2bits	set	4001
   277   000000                     _UEP1	set	3953
   278   0008A6  00                 	db	0	; dummy byte at the end
   279   000000                     
   280                           ; #config settings
   281                           
   282                           	psect	cinit
   283   0025AE                     __pcinit:
   284                           	callstack 0
   285   0025AE                     start_initialization:
   286                           	callstack 0
   287   0025AE                     __initialization:
   288                           	callstack 0
   289                           
   290                           ; Clear objects allocated to COMRAM (57 bytes)
   291   0025AE  EE00  F001         	lfsr	0,__pbssCOMRAM
   292   0025B2  0E39               	movlw	57
   293   0025B4                     clear_0:
   294   0025B4  6AEE               	clrf	postinc0,c
   295   0025B6  06E8               	decf	wreg,f,c
   296   0025B8  E1FD               	bnz	clear_0
   297   0025BA                     end_of_initialization:
   298                           	callstack 0
   299   0025BA                     __end_of__initialization:
   300                           	callstack 0
   301   0025BA  905B               	bcf	int$flags,0,c	;clear compiler interrupt flag (level 1)
   302   0025BC  925B               	bcf	int$flags,1,c	;clear compiler interrupt flag (level 2)
   303   0025BE  0E00               	movlw	low (__Lmediumconst shr (0+16))
   304   0025C0  6EF8               	movwf	tblptru,c
   305   0025C2  0100               	movlb	0
   306   0025C4  EF56  F012         	goto	_main	;jump to C main() function
   307                           
   308                           	psect	bssCOMRAM
   309   000001                     __pbssCOMRAM:
   310                           	callstack 0
   311   000001                     _outPipes:
   312                           	callstack 0
   313   000001                     	ds	8
   314   000009                     _inPipes:
   315                           	callstack 0
   316   000009                     	ds	6
   317   00000F                     _USB1msTickCount:
   318                           	callstack 0
   319   00000F                     	ds	4
   320   000013                     _pBDTEntryIn:
   321                           	callstack 0
   322   000013                     	ds	4
   323   000017                     _pBDTEntryOut:
   324                           	callstack 0
   325   000017                     	ds	4
   326   00001B                     _lastTransmission:
   327                           	callstack 0
   328   00001B                     	ds	2
   329   00001D                     _ep_data_out:
   330                           	callstack 0
   331   00001D                     	ds	2
   332   00001F                     _ep_data_in:
   333                           	callstack 0
   334   00001F                     	ds	2
   335   000021                     _pDst:
   336                           	callstack 0
   337   000021                     	ds	2
   338   000023                     _pBDTEntryEP0OutNext:
   339                           	callstack 0
   340   000023                     	ds	2
   341   000025                     _pBDTEntryEP0OutCurrent:
   342                           	callstack 0
   343   000025                     	ds	2
   344   000027                     _USBTicksSinceSuspendEnd:
   345                           	callstack 0
   346   000027                     	ds	1
   347   000028                     _USBDeferOUTDataStagePackets:
   348                           	callstack 0
   349   000028                     	ds	1
   350   000029                     _USBDeferINDataStagePackets:
   351                           	callstack 0
   352   000029                     	ds	1
   353   00002A                     _USBStatusStageEnabledFlag2:
   354                           	callstack 0
   355   00002A                     	ds	1
   356   00002B                     _USBStatusStageEnabledFlag1:
   357                           	callstack 0
   358   00002B                     	ds	1
   359   00002C                     _USBDeferStatusStagePacket:
   360                           	callstack 0
   361   00002C                     	ds	1
   362   00002D                     _USBStatusStageTimeoutCounter:
   363                           	callstack 0
   364   00002D                     	ds	1
   365   00002E                     _BothEP0OutUOWNsSet:
   366                           	callstack 0
   367   00002E                     	ds	1
   368   00002F                     _endpoint_number:
   369                           	callstack 0
   370   00002F                     	ds	1
   371   000030                     _USBBusIsSuspended:
   372                           	callstack 0
   373   000030                     	ds	1
   374   000031                     _RemoteWakeup:
   375                           	callstack 0
   376   000031                     	ds	1
   377   000032                     _controlTransferState:
   378                           	callstack 0
   379   000032                     	ds	1
   380   000033                     _shortPacketStatus:
   381                           	callstack 0
   382   000033                     	ds	1
   383   000034                     _USBDeviceState:
   384                           	callstack 0
   385   000034                     	ds	1
   386   000035                     _active_protocol:
   387                           	callstack 0
   388   000035                     	ds	1
   389   000036                     _idle_rate:
   390                           	callstack 0
   391   000036                     	ds	1
   392   000037                     _USTATcopy:
   393                           	callstack 0
   394   000037                     	ds	1
   395   000038                     _USBAlternateInterface:
   396                           	callstack 0
   397   000038                     	ds	1
   398   000039                     _USBActiveConfiguration:
   399                           	callstack 0
   400   000039                     	ds	1
   401                           
   402                           	psect	cstackCOMRAM
   403   00003A                     __pcstackCOMRAM:
   404                           	callstack 0
   405   00003A                     ??_ADC_Enable:
   406   00003A                     ??_USBStdGetDscHandler:
   407   00003A                     ??_USBStdGetStatusHandler:
   408   00003A                     ??_USBCheckHIDRequest:
   409   00003A                     ?_ADC_Readbits:
   410                           	callstack 0
   411   00003A                     ?_USBTransferOnePacket:
   412                           	callstack 0
   413   00003A                     ADC_SetConfiguration@configuration:
   414                           	callstack 0
   415   00003A                     USBTransferOnePacket@dir:
   416                           	callstack 0
   417   00003A                     USBConfigureEndpoint@direction:
   418                           	callstack 0
   419   00003A                     USBCtrlTrfTxService@byteToSend:
   420                           	callstack 0
   421   00003A                     USBCtrlTrfRxService@i:
   422                           	callstack 0
   423   00003A                     memcpy@d1:
   424                           	callstack 0
   425   00003A                     memset@dest:
   426                           	callstack 0
   427                           
   428                           ; 2 bytes @ 0x0
   429   00003A                     	ds	1
   430   00003B                     ??_USBConfigureEndpoint:
   431   00003B                     USBCtrlTrfRxService@byteToRead:
   432                           	callstack 0
   433   00003B                     USBCtrlTrfInHandler@lastDTS:
   434                           	callstack 0
   435   00003B                     USBTransferOnePacket@data:
   436                           	callstack 0
   437                           
   438                           ; 2 bytes @ 0x1
   439   00003B                     	ds	1
   440   00003C                     ??_ADC_Readbits:
   441   00003C                     ADC_Enable@channel:
   442                           	callstack 0
   443   00003C                     USBStdGetStatusHandler@p:
   444                           	callstack 0
   445   00003C                     memcpy@s1:
   446                           	callstack 0
   447   00003C                     memset@c:
   448                           	callstack 0
   449                           
   450                           ; 2 bytes @ 0x2
   451   00003C                     	ds	1
   452   00003D                     ??_SYSTEM_Initialize:
   453   00003D                     USBTransferOnePacket@len:
   454                           	callstack 0
   455                           
   456                           ; 1 bytes @ 0x3
   457   00003D                     	ds	1
   458   00003E                     ??_USBTransferOnePacket:
   459   00003E                     ADC_Readbits@result:
   460                           	callstack 0
   461   00003E                     memcpy@n:
   462                           	callstack 0
   463   00003E                     memset@n:
   464                           	callstack 0
   465                           
   466                           ; 2 bytes @ 0x4
   467   00003E                     	ds	1
   468   00003F                     SYSTEM_Initialize@state:
   469                           	callstack 0
   470                           
   471                           ; 1 bytes @ 0x5
   472   00003F                     	ds	1
   473   000040                     ??_memset:
   474   000040                     ADC_Readbits@channel:
   475                           	callstack 0
   476   000040                     memcpy@d:
   477                           	callstack 0
   478                           
   479                           ; 2 bytes @ 0x6
   480   000040                     	ds	1
   481   000041                     USBConfigureEndpoint@EPNum:
   482                           	callstack 0
   483                           
   484                           ; 1 bytes @ 0x7
   485   000041                     	ds	1
   486   000042                     USBTransferOnePacket@ep:
   487                           	callstack 0
   488   000042                     USBConfigureEndpoint@handle:
   489                           	callstack 0
   490   000042                     memcpy@s:
   491                           	callstack 0
   492   000042                     memset@k:
   493                           	callstack 0
   494                           
   495                           ; 2 bytes @ 0x8
   496   000042                     	ds	1
   497   000043                     USBTransferOnePacket@handle:
   498                           	callstack 0
   499                           
   500                           ; 2 bytes @ 0x9
   501   000043                     	ds	1
   502   000044                     USBEnableEndpoint@options:
   503                           	callstack 0
   504   000044                     memcpy@tmp:
   505                           	callstack 0
   506   000044                     memset@s:
   507                           	callstack 0
   508                           
   509                           ; 2 bytes @ 0xA
   510   000044                     	ds	1
   511   000045                     USBEnableEndpoint@p:
   512                           	callstack 0
   513                           
   514                           ; 2 bytes @ 0xB
   515   000045                     	ds	1
   516   000046                     USBDeviceInit@i:
   517                           	callstack 0
   518                           
   519                           ; 1 bytes @ 0xC
   520   000046                     	ds	1
   521   000047                     USBEnableEndpoint@ep:
   522                           	callstack 0
   523                           
   524                           ; 1 bytes @ 0xD
   525   000047                     	ds	1
   526   000048                     USER_USB_CALLBACK_EVENT_HANDLER@event:
   527                           	callstack 0
   528                           
   529                           ; 2 bytes @ 0xE
   530   000048                     	ds	2
   531   00004A                     USER_USB_CALLBACK_EVENT_HANDLER@pdata:
   532                           	callstack 0
   533                           
   534                           ; 2 bytes @ 0x10
   535   00004A                     	ds	2
   536   00004C                     USER_USB_CALLBACK_EVENT_HANDLER@size:
   537                           	callstack 0
   538                           
   539                           ; 2 bytes @ 0x12
   540   00004C                     	ds	2
   541   00004E                     ??_USER_USB_CALLBACK_EVENT_HANDLER:
   542                           
   543                           ; 1 bytes @ 0x14
   544   00004E                     	ds	2
   545   000050                     ??_USBStdFeatureReqHandler:
   546   000050                     USBStdSetCfgHandler@i:
   547                           	callstack 0
   548                           
   549                           ; 1 bytes @ 0x16
   550   000050                     	ds	2
   551   000052                     USBStdFeatureReqHandler@pUEP:
   552                           	callstack 0
   553                           
   554                           ; 2 bytes @ 0x18
   555   000052                     	ds	2
   556   000054                     USBStdFeatureReqHandler@current_ep_data:
   557                           	callstack 0
   558                           
   559                           ; 1 bytes @ 0x1A
   560   000054                     	ds	1
   561   000055                     USBStdFeatureReqHandler@p:
   562                           	callstack 0
   563                           
   564                           ; 2 bytes @ 0x1B
   565   000055                     	ds	2
   566   000057                     ??_USBCheckStdRequest:
   567                           
   568                           ; 1 bytes @ 0x1D
   569   000057                     	ds	2
   570   000059                     ??_USBCtrlEPService:
   571   000059                     
   572                           ; 1 bytes @ 0x1F
   573   000059                     	ds	1
   574   00005A                     USBDeviceTasks@i:
   575                           	callstack 0
   576                           
   577                           ; 1 bytes @ 0x20
   578   00005A                     	ds	1
   579   00005B                     
   580                           ; 1 bytes @ 0x21
   581 ;;
   582 ;;Main: autosize = 0, tempsize = 0, incstack = 0, save=0
   583 ;;
   584 ;; *************** function _main *****************
   585 ;; Defined at:
   586 ;;		line 10 in file "../source/main.c"
   587 ;; Parameters:    Size  Location     Type
   588 ;;		None
   589 ;; Auto vars:     Size  Location     Type
   590 ;;		None
   591 ;; Return value:  Size  Location     Type
   592 ;;                  1    wreg      void 
   593 ;; Registers used:
   594 ;;		wreg, fsr1l, fsr1h, fsr2l, fsr2h, status,2, status,0, tblptrl, tblptrh, tblptru, prodl, prodh, cstack
   595 ;; Tracked objects:
   596 ;;		On entry : 0/0
   597 ;;		On exit  : 0/0
   598 ;;		Unchanged: 0/0
   599 ;; Data sizes:     COMRAM   BANK0   BANK1   BANK2   BANK3   BANK4   BANK5   BANK6   BANK7
   600 ;;      Params:         0       0       0       0       0       0       0       0       0
   601 ;;      Locals:         0       0       0       0       0       0       0       0       0
   602 ;;      Temps:          0       0       0       0       0       0       0       0       0
   603 ;;      Totals:         0       0       0       0       0       0       0       0       0
   604 ;;Total ram usage:        0 bytes
   605 ;; Hardware stack levels required when called: 10
   606 ;; This function calls:
   607 ;;		_APP_DeviceJoystickTasks
   608 ;;		_SYSTEM_Initialize
   609 ;;		_USBDeviceInit
   610 ;;		_USBDeviceTasks
   611 ;; This function is called by:
   612 ;;		Startup code after reset
   613 ;; This function uses a non-reentrant model
   614 ;;
   615                           
   616                           	psect	text0
   617   0024AC                     __ptext0:
   618                           	callstack 0
   619   0024AC                     _main:
   620                           	callstack 21
   621   0024AC                     
   622                           ;../source/main.c: 12:     SYSTEM_Initialize(SYSTEM_STATE_USB_START);
   623   0024AC  0E00               	movlw	0
   624   0024AE  ECDD  F011         	call	_SYSTEM_Initialize
   625   0024B2                     
   626                           ;../source/main.c: 14:     USBDeviceInit();
   627   0024B2  EC3E  F009         	call	_USBDeviceInit	;wreg free
   628   0024B6                     l3353:
   629                           
   630                           ;../source/main.c: 18:     {;../source/main.c: 36:             USBDeviceTasks();
   631   0024B6  ECFA  F005         	call	_USBDeviceTasks	;wreg free
   632   0024BA                     
   633                           ;../source/main.c: 42:         if( USBDeviceState < CONFIGURED_STATE )
   634   0024BA  0E20               	movlw	32
   635   0024BC  6034               	cpfslt	_USBDeviceState^0,c
   636   0024BE  EF63  F012         	goto	u2141
   637   0024C2  EF65  F012         	goto	u2140
   638   0024C6                     u2141:
   639   0024C6  EF67  F012         	goto	l567
   640   0024CA                     u2140:
   641   0024CA  EF5B  F012         	goto	l3353
   642   0024CE                     l567:
   643                           
   644                           ;../source/main.c: 52:         if( UCONbits.SUSPND == 1 )
   645   0024CE  A26D               	btfss	109,1,c	;volatile
   646   0024D0  EF6C  F012         	goto	u2151
   647   0024D4  EF6E  F012         	goto	u2150
   648   0024D8                     u2151:
   649   0024D8  EF70  F012         	goto	l3361
   650   0024DC                     u2150:
   651   0024DC  EF5B  F012         	goto	l3353
   652   0024E0                     l3361:
   653                           
   654                           ;../source/main.c: 59:         APP_DeviceJoystickTasks();
   655   0024E0  EC24  F00F         	call	_APP_DeviceJoystickTasks	;wreg free
   656   0024E4  EF5B  F012         	goto	l3353
   657   0024E8  EF07  F000         	goto	start
   658   0024EC                     __end_of_main:
   659                           	callstack 0
   660                           
   661 ;; *************** function _USBDeviceTasks *****************
   662 ;; Defined at:
   663 ;;		line 437 in file "../source/usb/usb_device.c"
   664 ;; Parameters:    Size  Location     Type
   665 ;;		None
   666 ;; Auto vars:     Size  Location     Type
   667 ;;  i               1   32[COMRAM] unsigned char 
   668 ;; Return value:  Size  Location     Type
   669 ;;                  1    wreg      void 
   670 ;; Registers used:
   671 ;;		wreg, fsr1l, fsr1h, fsr2l, fsr2h, status,2, status,0, tblptrl, tblptrh, tblptru, prodl, prodh, cstack
   672 ;; Tracked objects:
   673 ;;		On entry : 0/0
   674 ;;		On exit  : 0/0
   675 ;;		Unchanged: 0/0
   676 ;; Data sizes:     COMRAM   BANK0   BANK1   BANK2   BANK3   BANK4   BANK5   BANK6   BANK7
   677 ;;      Params:         0       0       0       0       0       0       0       0       0
   678 ;;      Locals:         1       0       0       0       0       0       0       0       0
   679 ;;      Temps:          0       0       0       0       0       0       0       0       0
   680 ;;      Totals:         1       0       0       0       0       0       0       0       0
   681 ;;Total ram usage:        1 bytes
   682 ;; Hardware stack levels used: 1
   683 ;; Hardware stack levels required when called: 9
   684 ;; This function calls:
   685 ;;		_USBCtrlEPAllowStatusStage
   686 ;;		_USBCtrlEPService
   687 ;;		_USBDeviceInit
   688 ;;		_USBIncrement1msInternalTimers
   689 ;;		_USBStallHandler
   690 ;;		_USBSuspend
   691 ;;		_USBWakeFromSuspend
   692 ;;		_USER_USB_CALLBACK_EVENT_HANDLER
   693 ;; This function is called by:
   694 ;;		_main
   695 ;; This function uses a non-reentrant model
   696 ;;
   697                           
   698                           	psect	text1
   699   000BF4                     __ptext1:
   700                           	callstack 0
   701   000BF4                     _USBDeviceTasks:
   702                           	callstack 21
   703   000BF4                     
   704                           ;../source/usb/usb_device.c: 526:     if(USBDeviceState == DETACHED_STATE)
   705   000BF4  5034               	movf	_USBDeviceState^0,w,c
   706   000BF6  A4D8               	btfss	status,2,c
   707   000BF8  EF00  F006         	goto	u1791
   708   000BFC  EF02  F006         	goto	u1790
   709   000C00                     u1791:
   710   000C00  EF18  F006         	goto	l3203
   711   000C04                     u1790:
   712   000C04                     
   713                           ;../source/usb/usb_device.c: 527:     {;../source/usb/usb_device.c: 529:         UCON = 
      +                          0;
   714   000C04  0E00               	movlw	0
   715   000C06  6E6D               	movwf	109,c	;volatile
   716                           
   717                           ;../source/usb/usb_device.c: 532:         UIE = 0;
   718   000C08  0E00               	movlw	0
   719   000C0A  6E69               	movwf	105,c	;volatile
   720                           
   721                           ;../source/usb/usb_device.c: 536:         { UCFG = 0x10 | 0x00 | 0x04 | 0x02; UEIE = 0x9
      +                          F; UIE = 0x39 | 0x40 | 0x02; };
   722   000C0C  0E16               	movlw	22
   723   000C0E  6E6F               	movwf	111,c	;volatile
   724   000C10  0E9F               	movlw	159
   725   000C12  6E6B               	movwf	107,c	;volatile
   726   000C14  0E7B               	movlw	123
   727   000C16  6E69               	movwf	105,c	;volatile
   728                           
   729                           ;../source/usb/usb_device.c: 539:         while(!UCONbits.USBEN){UCONbits.USBEN = 1;}
   730   000C18  EF0F  F006         	goto	l237
   731   000C1C                     l238:
   732   000C1C  866D               	bsf	109,3,c	;volatile
   733   000C1E                     l237:
   734   000C1E  A66D               	btfss	109,3,c	;volatile
   735   000C20  EF14  F006         	goto	u1801
   736   000C24  EF16  F006         	goto	u1800
   737   000C28                     u1801:
   738   000C28  EF0E  F006         	goto	l238
   739   000C2C                     u1800:
   740   000C2C                     
   741                           ;../source/usb/usb_device.c: 542:         USBDeviceState = ATTACHED_STATE;
   742   000C2C  0E01               	movlw	1
   743   000C2E  6E34               	movwf	_USBDeviceState^0,c
   744   000C30                     l3203:
   745                           
   746                           ;../source/usb/usb_device.c: 550:     if(USBDeviceState == ATTACHED_STATE)
   747   000C30  0434               	decf	_USBDeviceState^0,w,c
   748   000C32  A4D8               	btfss	status,2,c
   749   000C34  EF1E  F006         	goto	u1811
   750   000C38  EF20  F006         	goto	u1810
   751   000C3C                     u1811:
   752   000C3C  EF2F  F006         	goto	l3213
   753   000C40                     u1810:
   754   000C40                     
   755                           ;../source/usb/usb_device.c: 551:     {;../source/usb/usb_device.c: 561:         if(!UCO
      +                          Nbits.SE0)
   756   000C40  BA6D               	btfsc	109,5,c	;volatile
   757   000C42  EF25  F006         	goto	u1821
   758   000C46  EF27  F006         	goto	u1820
   759   000C4A                     u1821:
   760   000C4A  EF2F  F006         	goto	l3213
   761   000C4E                     u1820:
   762   000C4E                     
   763                           ;../source/usb/usb_device.c: 562:         {;../source/usb/usb_device.c: 568:            
      +                               {UIR = 0;};
   764   000C4E  0E00               	movlw	0
   765   000C50  6E68               	movwf	104,c	;volatile
   766                           
   767                           ;../source/usb/usb_device.c: 572:                 UIE=0;
   768   000C52  0E00               	movlw	0
   769   000C54  6E69               	movwf	105,c	;volatile
   770   000C56                     
   771                           ;../source/usb/usb_device.c: 574:             UIEbits.URSTIE = 1;
   772   000C56  8069               	bsf	105,0,c	;volatile
   773   000C58                     
   774                           ;../source/usb/usb_device.c: 575:             UIEbits.IDLEIE = 1;
   775   000C58  8869               	bsf	105,4,c	;volatile
   776                           
   777                           ;../source/usb/usb_device.c: 576:             USBDeviceState = POWERED_STATE;
   778   000C5A  0E02               	movlw	2
   779   000C5C  6E34               	movwf	_USBDeviceState^0,c
   780   000C5E                     l3213:
   781                           
   782                           ;../source/usb/usb_device.c: 594:     if(UIRbits.ACTVIF && UIEbits.ACTVIE)
   783   000C5E  A468               	btfss	104,2,c	;volatile
   784   000C60  EF34  F006         	goto	u1831
   785   000C64  EF36  F006         	goto	u1830
   786   000C68                     u1831:
   787   000C68  EF40  F006         	goto	l3221
   788   000C6C                     u1830:
   789   000C6C  A469               	btfss	105,2,c	;volatile
   790   000C6E  EF3B  F006         	goto	u1841
   791   000C72  EF3D  F006         	goto	u1840
   792   000C76                     u1841:
   793   000C76  EF40  F006         	goto	l3221
   794   000C7A                     u1840:
   795   000C7A                     
   796                           ;../source/usb/usb_device.c: 595:     {;../source/usb/usb_device.c: 596:         (UIR &=
      +                           0xFB);
   797   000C7A  9468               	bcf	104,2,c	;volatile
   798   000C7C                     
   799                           ;../source/usb/usb_device.c: 600:             USBWakeFromSuspend();
   800   000C7C  EC76  F012         	call	_USBWakeFromSuspend	;wreg free
   801   000C80                     l3221:
   802                           
   803                           ;../source/usb/usb_device.c: 607:     if(UCONbits.SUSPND==1)
   804   000C80  A26D               	btfss	109,1,c	;volatile
   805   000C82  EF45  F006         	goto	u1851
   806   000C86  EF47  F006         	goto	u1850
   807   000C8A                     u1851:
   808   000C8A  EF4A  F006         	goto	l243
   809   000C8E                     u1850:
   810   000C8E                     
   811                           ;../source/usb/usb_device.c: 608:     {;../source/usb/usb_device.c: 609:         {PIR2bi
      +                          ts.USBIF = 0;};
   812   000C8E  9AA1               	bcf	161,5,c	;volatile
   813                           
   814                           ;../source/usb/usb_device.c: 610:         return;
   815   000C90  EF2A  F007         	goto	l235
   816   000C94                     l243:
   817                           
   818                           ;../source/usb/usb_device.c: 623:     if(UIRbits.URSTIF && UIEbits.URSTIE)
   819   000C94  A068               	btfss	104,0,c	;volatile
   820   000C96  EF4F  F006         	goto	u1861
   821   000C9A  EF51  F006         	goto	u1860
   822   000C9E                     u1861:
   823   000C9E  EF5D  F006         	goto	l3233
   824   000CA2                     u1860:
   825   000CA2  A069               	btfss	105,0,c	;volatile
   826   000CA4  EF56  F006         	goto	u1871
   827   000CA8  EF58  F006         	goto	u1870
   828   000CAC                     u1871:
   829   000CAC  EF5D  F006         	goto	l3233
   830   000CB0                     u1870:
   831   000CB0                     
   832                           ;../source/usb/usb_device.c: 624:     {;../source/usb/usb_device.c: 625:         USBDevi
      +                          ceInit();
   833   000CB0  EC3E  F009         	call	_USBDeviceInit	;wreg free
   834   000CB4                     
   835                           ;../source/usb/usb_device.c: 631:         USBDeviceState = DEFAULT_STATE;
   836   000CB4  0E04               	movlw	4
   837   000CB6  6E34               	movwf	_USBDeviceState^0,c
   838   000CB8                     
   839                           ;../source/usb/usb_device.c: 641:         (UIR &= 0xFE);
   840   000CB8  9068               	bcf	104,0,c	;volatile
   841   000CBA                     l3233:
   842                           
   843                           ;../source/usb/usb_device.c: 647:     if(UIRbits.IDLEIF && UIEbits.IDLEIE)
   844   000CBA  A868               	btfss	104,4,c	;volatile
   845   000CBC  EF62  F006         	goto	u1881
   846   000CC0  EF64  F006         	goto	u1880
   847   000CC4                     u1881:
   848   000CC4  EF6D  F006         	goto	l3239
   849   000CC8                     u1880:
   850   000CC8  A869               	btfss	105,4,c	;volatile
   851   000CCA  EF69  F006         	goto	u1891
   852   000CCE  EF6B  F006         	goto	u1890
   853   000CD2                     u1891:
   854   000CD2  EF6D  F006         	goto	l3239
   855   000CD6                     u1890:
   856   000CD6                     
   857                           ;../source/usb/usb_device.c: 648:     {;../source/usb/usb_device.c: 654:             USB
      +                          Suspend();
   858   000CD6  ECAE  F012         	call	_USBSuspend	;wreg free
   859   000CDA                     l3239:
   860                           
   861                           ;../source/usb/usb_device.c: 668:     if(UIRbits.SOFIF)
   862   000CDA  AC68               	btfss	104,6,c	;volatile
   863   000CDC  EF72  F006         	goto	u1901
   864   000CE0  EF74  F006         	goto	u1900
   865   000CE4                     u1901:
   866   000CE4  EF9F  F006         	goto	l3257
   867   000CE8                     u1900:
   868   000CE8                     
   869                           ;../source/usb/usb_device.c: 669:     {;../source/usb/usb_device.c: 671:         if(UIEb
      +                          its.SOFIE)
   870   000CE8  AC69               	btfss	105,6,c	;volatile
   871   000CEA  EF79  F006         	goto	u1911
   872   000CEE  EF7B  F006         	goto	u1910
   873   000CF2                     u1911:
   874   000CF2  EF89  F006         	goto	l3245
   875   000CF6                     u1910:
   876   000CF6                     
   877                           ;../source/usb/usb_device.c: 672:         {;../source/usb/usb_device.c: 673:            
      +                           USER_USB_CALLBACK_EVENT_HANDLER((USB_EVENT)EVENT_SOF,0,1);
   878   000CF6  0E00               	movlw	0
   879   000CF8  6E49               	movwf	(USER_USB_CALLBACK_EVENT_HANDLER@event+1)^0,c
   880   000CFA  0E73               	movlw	115
   881   000CFC  6E48               	movwf	USER_USB_CALLBACK_EVENT_HANDLER@event^0,c
   882   000CFE  0E00               	movlw	0
   883   000D00  6E4A               	movwf	USER_USB_CALLBACK_EVENT_HANDLER@pdata^0,c
   884   000D02  0E00               	movlw	0
   885   000D04  6E4B               	movwf	(USER_USB_CALLBACK_EVENT_HANDLER@pdata+1)^0,c
   886   000D06  0E00               	movlw	0
   887   000D08  6E4D               	movwf	(USER_USB_CALLBACK_EVENT_HANDLER@size+1)^0,c
   888   000D0A  0E01               	movlw	1
   889   000D0C  6E4C               	movwf	USER_USB_CALLBACK_EVENT_HANDLER@size^0,c
   890   000D0E  ECDE  F010         	call	_USER_USB_CALLBACK_EVENT_HANDLER	;wreg free
   891   000D12                     l3245:
   892                           
   893                           ;../source/usb/usb_device.c: 675:         (UIR &= 0xBF);
   894   000D12  9C68               	bcf	104,6,c	;volatile
   895   000D14                     
   896                           ;../source/usb/usb_device.c: 678:             USBIncrement1msInternalTimers();
   897   000D14  EC95  F012         	call	_USBIncrement1msInternalTimers	;wreg free
   898   000D18                     
   899                           ;../source/usb/usb_device.c: 695:             if(USBStatusStageTimeoutCounter != 0u)
   900   000D18  502D               	movf	_USBStatusStageTimeoutCounter^0,w,c
   901   000D1A  B4D8               	btfsc	status,2,c
   902   000D1C  EF92  F006         	goto	u1921
   903   000D20  EF94  F006         	goto	u1920
   904   000D24                     u1921:
   905   000D24  EF95  F006         	goto	l3253
   906   000D28                     u1920:
   907   000D28                     
   908                           ;../source/usb/usb_device.c: 696:             {;../source/usb/usb_device.c: 697:        
      +                                   USBStatusStageTimeoutCounter--;
   909   000D28  062D               	decf	_USBStatusStageTimeoutCounter^0,f,c
   910   000D2A                     l3253:
   911                           
   912                           ;../source/usb/usb_device.c: 704:             if(USBStatusStageTimeoutCounter == 0)
   913   000D2A  502D               	movf	_USBStatusStageTimeoutCounter^0,w,c
   914   000D2C  A4D8               	btfss	status,2,c
   915   000D2E  EF9B  F006         	goto	u1931
   916   000D32  EF9D  F006         	goto	u1930
   917   000D36                     u1931:
   918   000D36  EF9F  F006         	goto	l3257
   919   000D3A                     u1930:
   920   000D3A                     
   921                           ;../source/usb/usb_device.c: 705:             {;../source/usb/usb_device.c: 706:        
      +                                   USBCtrlEPAllowStatusStage();
   922   000D3A  ECDD  F00D         	call	_USBCtrlEPAllowStatusStage	;wreg free
   923   000D3E                     l3257:
   924                           
   925                           ;../source/usb/usb_device.c: 711:     if(UIRbits.STALLIF && UIEbits.STALLIE)
   926   000D3E  AA68               	btfss	104,5,c	;volatile
   927   000D40  EFA4  F006         	goto	u1941
   928   000D44  EFA6  F006         	goto	u1940
   929   000D48                     u1941:
   930   000D48  EFAF  F006         	goto	l3263
   931   000D4C                     u1940:
   932   000D4C  AA69               	btfss	105,5,c	;volatile
   933   000D4E  EFAB  F006         	goto	u1951
   934   000D52  EFAD  F006         	goto	u1950
   935   000D56                     u1951:
   936   000D56  EFAF  F006         	goto	l3263
   937   000D5A                     u1950:
   938   000D5A                     
   939                           ;../source/usb/usb_device.c: 712:     {;../source/usb/usb_device.c: 713:         USBStal
      +                          lHandler();
   940   000D5A  ECAD  F011         	call	_USBStallHandler	;wreg free
   941   000D5E                     l3263:
   942                           
   943                           ;../source/usb/usb_device.c: 716:     if(UIRbits.UERRIF && UIEbits.UERRIE)
   944   000D5E  A268               	btfss	104,1,c	;volatile
   945   000D60  EFB4  F006         	goto	u1961
   946   000D64  EFB6  F006         	goto	u1960
   947   000D68                     u1961:
   948   000D68  EFCC  F006         	goto	l3271
   949   000D6C                     u1960:
   950   000D6C  A269               	btfss	105,1,c	;volatile
   951   000D6E  EFBB  F006         	goto	u1971
   952   000D72  EFBD  F006         	goto	u1970
   953   000D76                     u1971:
   954   000D76  EFCC  F006         	goto	l3271
   955   000D7A                     u1970:
   956   000D7A                     
   957                           ;../source/usb/usb_device.c: 717:     {;../source/usb/usb_device.c: 718:         USER_US
      +                          B_CALLBACK_EVENT_HANDLER((USB_EVENT)EVENT_BUS_ERROR,0,1);
   958   000D7A  0E7F               	movlw	127
   959   000D7C  6E49               	movwf	(USER_USB_CALLBACK_EVENT_HANDLER@event+1)^0,c
   960   000D7E  6848               	setf	USER_USB_CALLBACK_EVENT_HANDLER@event^0,c
   961   000D80  0E00               	movlw	0
   962   000D82  6E4A               	movwf	USER_USB_CALLBACK_EVENT_HANDLER@pdata^0,c
   963   000D84  0E00               	movlw	0
   964   000D86  6E4B               	movwf	(USER_USB_CALLBACK_EVENT_HANDLER@pdata+1)^0,c
   965   000D88  0E00               	movlw	0
   966   000D8A  6E4D               	movwf	(USER_USB_CALLBACK_EVENT_HANDLER@size+1)^0,c
   967   000D8C  0E01               	movlw	1
   968   000D8E  6E4C               	movwf	USER_USB_CALLBACK_EVENT_HANDLER@size^0,c
   969   000D90  ECDE  F010         	call	_USER_USB_CALLBACK_EVENT_HANDLER	;wreg free
   970   000D94                     
   971                           ;../source/usb/usb_device.c: 719:         {UEIR = 0;};
   972   000D94  0E00               	movlw	0
   973   000D96  6E6A               	movwf	106,c	;volatile
   974   000D98                     l3271:
   975                           
   976                           ;../source/usb/usb_device.c: 734:     if(USBDeviceState < DEFAULT_STATE)
   977   000D98  0E04               	movlw	4
   978   000D9A  6034               	cpfslt	_USBDeviceState^0,c
   979   000D9C  EFD2  F006         	goto	u1981
   980   000DA0  EFD4  F006         	goto	u1980
   981   000DA4                     u1981:
   982   000DA4  EFD7  F006         	goto	l252
   983   000DA8                     u1980:
   984   000DA8                     
   985                           ;../source/usb/usb_device.c: 735:     {;../source/usb/usb_device.c: 736:         {PIR2bi
      +                          ts.USBIF = 0;};
   986   000DA8  9AA1               	bcf	161,5,c	;volatile
   987                           
   988                           ;../source/usb/usb_device.c: 737:         return;
   989   000DAA  EF2A  F007         	goto	l235
   990   000DAE                     l252:
   991                           
   992                           ;../source/usb/usb_device.c: 743:     if(UIEbits.TRNIE)
   993   000DAE  A669               	btfss	105,3,c	;volatile
   994   000DB0  EFDC  F006         	goto	u1991
   995   000DB4  EFDE  F006         	goto	u1990
   996   000DB8                     u1991:
   997   000DB8  EF29  F007         	goto	l253
   998   000DBC                     u1990:
   999   000DBC                     
  1000                           ;../source/usb/usb_device.c: 744:     {;../source/usb/usb_device.c: 745:         for(i =
      +                           0; i < 4u; i++)
  1001   000DBC  0E00               	movlw	0
  1002   000DBE  6E5A               	movwf	USBDeviceTasks@i^0,c
  1003   000DC0                     l254:
  1004                           
  1005                           ;../source/usb/usb_device.c: 746:         {;../source/usb/usb_device.c: 747:            
      +                           if(UIRbits.TRNIF)
  1006   000DC0  A668               	btfss	104,3,c	;volatile
  1007   000DC2  EFE5  F006         	goto	u2001
  1008   000DC6  EFE7  F006         	goto	u2000
  1009   000DCA                     u2001:
  1010   000DCA  EF29  F007         	goto	l253
  1011   000DCE                     u2000:
  1012   000DCE                     
  1013                           ;../source/usb/usb_device.c: 748:             {;../source/usb/usb_device.c: 750:        
      +                                   USTATcopy.Val = USTAT;
  1014   000DCE  CF6C F037          	movff	3948,_USTATcopy	;volatile
  1015   000DD2                     
  1016                           ;../source/usb/usb_device.c: 751:                 endpoint_number = USTATcopy.endpoint_n
      +                          umber;
  1017   000DD2  3037               	rrcf	_USTATcopy^0,w,c
  1018   000DD4  32E8               	rrcf	wreg,f,c
  1019   000DD6  32E8               	rrcf	wreg,f,c
  1020   000DD8  0B0F               	andlw	15
  1021   000DDA  6E2F               	movwf	_endpoint_number^0,c
  1022   000DDC                     
  1023                           ;../source/usb/usb_device.c: 753:                 (UIR &= 0xF7);
  1024   000DDC  9668               	bcf	104,3,c	;volatile
  1025   000DDE                     
  1026                           ;../source/usb/usb_device.c: 758:                 if(USTATcopy.direction == 0)
  1027   000DDE  B437               	btfsc	_USTATcopy^0,2,c
  1028   000DE0  EFF4  F006         	goto	u2011
  1029   000DE4  EFF6  F006         	goto	u2010
  1030   000DE8                     u2011:
  1031   000DE8  EFFF  F006         	goto	l3291
  1032   000DEC                     u2010:
  1033   000DEC                     
  1034                           ;../source/usb/usb_device.c: 759:                 {;../source/usb/usb_device.c: 760:    
      +                                           ep_data_out[endpoint_number].bits.ping_pong_state ^= 1;
  1035   000DEC  0E1D               	movlw	low _ep_data_out
  1036   000DEE  242F               	addwf	_endpoint_number^0,w,c
  1037   000DF0  6ED9               	movwf	fsr2l,c
  1038   000DF2  6ADA               	clrf	fsr2h,c
  1039   000DF4  0E00               	movlw	high _ep_data_out
  1040   000DF6  22DA               	addwfc	fsr2h,f,c
  1041   000DF8  70DF               	btg	indf2,0,c
  1042                           
  1043                           ;../source/usb/usb_device.c: 761:                 }
  1044   000DFA  EF06  F007         	goto	l3293
  1045   000DFE                     l3291:
  1046                           
  1047                           ;../source/usb/usb_device.c: 763:                 {;../source/usb/usb_device.c: 764:    
      +                                           ep_data_in[endpoint_number].bits.ping_pong_state ^= 1;
  1048   000DFE  0E1F               	movlw	low _ep_data_in
  1049   000E00  242F               	addwf	_endpoint_number^0,w,c
  1050   000E02  6ED9               	movwf	fsr2l,c
  1051   000E04  6ADA               	clrf	fsr2h,c
  1052   000E06  0E00               	movlw	high _ep_data_in
  1053   000E08  22DA               	addwfc	fsr2h,f,c
  1054   000E0A  70DF               	btg	indf2,0,c
  1055   000E0C                     l3293:
  1056                           
  1057                           ;../source/usb/usb_device.c: 770:                 if(endpoint_number == 0)
  1058   000E0C  502F               	movf	_endpoint_number^0,w,c
  1059   000E0E  A4D8               	btfss	status,2,c
  1060   000E10  EF0C  F007         	goto	u2021
  1061   000E14  EF0E  F007         	goto	u2020
  1062   000E18                     u2021:
  1063   000E18  EF12  F007         	goto	l3297
  1064   000E1C                     u2020:
  1065   000E1C                     
  1066                           ;../source/usb/usb_device.c: 771:                 {;../source/usb/usb_device.c: 772:    
      +                                           USBCtrlEPService();
  1067   000E1C  ECC8  F00E         	call	_USBCtrlEPService	;wreg free
  1068                           
  1069                           ;../source/usb/usb_device.c: 773:                 }
  1070   000E20  EF20  F007         	goto	l3299
  1071   000E24                     l3297:
  1072                           
  1073                           ;../source/usb/usb_device.c: 775:                 {;../source/usb/usb_device.c: 776:    
      +                                           USER_USB_CALLBACK_EVENT_HANDLER((USB_EVENT)EVENT_TRANSFER,(uint8_t*)&US
      +                          TATcopy.Val,0);
  1074   000E24  0E00               	movlw	0
  1075   000E26  6E49               	movwf	(USER_USB_CALLBACK_EVENT_HANDLER@event+1)^0,c
  1076   000E28  0E72               	movlw	114
  1077   000E2A  6E48               	movwf	USER_USB_CALLBACK_EVENT_HANDLER@event^0,c
  1078   000E2C  0E37               	movlw	low _USTATcopy
  1079   000E2E  6E4A               	movwf	USER_USB_CALLBACK_EVENT_HANDLER@pdata^0,c
  1080   000E30  0E00               	movlw	high _USTATcopy
  1081   000E32  6E4B               	movwf	(USER_USB_CALLBACK_EVENT_HANDLER@pdata+1)^0,c
  1082   000E34  0E00               	movlw	0
  1083   000E36  6E4D               	movwf	(USER_USB_CALLBACK_EVENT_HANDLER@size+1)^0,c
  1084   000E38  0E00               	movlw	0
  1085   000E3A  6E4C               	movwf	USER_USB_CALLBACK_EVENT_HANDLER@size^0,c
  1086   000E3C  ECDE  F010         	call	_USER_USB_CALLBACK_EVENT_HANDLER	;wreg free
  1087   000E40                     l3299:
  1088                           
  1089                           ;../source/usb/usb_device.c: 783:         }
  1090   000E40  2A5A               	incf	USBDeviceTasks@i^0,f,c
  1091   000E42  0E03               	movlw	3
  1092   000E44  645A               	cpfsgt	USBDeviceTasks@i^0,c
  1093   000E46  EF27  F007         	goto	u2031
  1094   000E4A  EF29  F007         	goto	u2030
  1095   000E4E                     u2031:
  1096   000E4E  EFE0  F006         	goto	l254
  1097   000E52                     u2030:
  1098   000E52                     l253:
  1099                           
  1100                           ;../source/usb/usb_device.c: 786:     {PIR2bits.USBIF = 0;};
  1101   000E52  9AA1               	bcf	161,5,c	;volatile
  1102   000E54                     l235:
  1103   000E54  0012               	return		;funcret
  1104   000E56                     __end_of_USBDeviceTasks:
  1105                           	callstack 0
  1106                           
  1107 ;; *************** function _USBWakeFromSuspend *****************
  1108 ;; Defined at:
  1109 ;;		line 2266 in file "../source/usb/usb_device.c"
  1110 ;; Parameters:    Size  Location     Type
  1111 ;;		None
  1112 ;; Auto vars:     Size  Location     Type
  1113 ;;		None
  1114 ;; Return value:  Size  Location     Type
  1115 ;;                  1    wreg      void 
  1116 ;; Registers used:
  1117 ;;		wreg, fsr2l, fsr2h, status,2, status,0, prodl, prodh, cstack
  1118 ;; Tracked objects:
  1119 ;;		On entry : 0/0
  1120 ;;		On exit  : 0/0
  1121 ;;		Unchanged: 0/0
  1122 ;; Data sizes:     COMRAM   BANK0   BANK1   BANK2   BANK3   BANK4   BANK5   BANK6   BANK7
  1123 ;;      Params:         0       0       0       0       0       0       0       0       0
  1124 ;;      Locals:         0       0       0       0       0       0       0       0       0
  1125 ;;      Temps:          0       0       0       0       0       0       0       0       0
  1126 ;;      Totals:         0       0       0       0       0       0       0       0       0
  1127 ;;Total ram usage:        0 bytes
  1128 ;; Hardware stack levels used: 1
  1129 ;; Hardware stack levels required when called: 5
  1130 ;; This function calls:
  1131 ;;		_USER_USB_CALLBACK_EVENT_HANDLER
  1132 ;; This function is called by:
  1133 ;;		_USBDeviceTasks
  1134 ;; This function uses a non-reentrant model
  1135 ;;
  1136                           
  1137                           	psect	text2
  1138   0024EC                     __ptext2:
  1139                           	callstack 0
  1140   0024EC                     _USBWakeFromSuspend:
  1141                           	callstack 24
  1142   0024EC                     
  1143                           ;../source/usb/usb_device.c: 2268:     USBBusIsSuspended = 0;
  1144   0024EC  0E00               	movlw	0
  1145   0024EE  6E30               	movwf	_USBBusIsSuspended^0,c
  1146   0024F0                     
  1147                           ;../source/usb/usb_device.c: 2274:     USER_USB_CALLBACK_EVENT_HANDLER((USB_EVENT)EVENT_
      +                          RESUME,0,0);
  1148   0024F0  0E00               	movlw	0
  1149   0024F2  6E49               	movwf	(USER_USB_CALLBACK_EVENT_HANDLER@event+1)^0,c
  1150   0024F4  0E74               	movlw	116
  1151   0024F6  6E48               	movwf	USER_USB_CALLBACK_EVENT_HANDLER@event^0,c
  1152   0024F8  0E00               	movlw	0
  1153   0024FA  6E4A               	movwf	USER_USB_CALLBACK_EVENT_HANDLER@pdata^0,c
  1154   0024FC  0E00               	movlw	0
  1155   0024FE  6E4B               	movwf	(USER_USB_CALLBACK_EVENT_HANDLER@pdata+1)^0,c
  1156   002500  0E00               	movlw	0
  1157   002502  6E4D               	movwf	(USER_USB_CALLBACK_EVENT_HANDLER@size+1)^0,c
  1158   002504  0E00               	movlw	0
  1159   002506  6E4C               	movwf	USER_USB_CALLBACK_EVENT_HANDLER@size^0,c
  1160   002508  ECDE  F010         	call	_USER_USB_CALLBACK_EVENT_HANDLER	;wreg free
  1161   00250C                     
  1162                           ;../source/usb/usb_device.c: 2281:         UCONbits.SUSPND = 0;
  1163   00250C  926D               	bcf	109,1,c	;volatile
  1164   00250E                     
  1165                           ;../source/usb/usb_device.c: 2286:     UIEbits.ACTVIE = 0;
  1166   00250E  9469               	bcf	105,2,c	;volatile
  1167                           
  1168                           ;../source/usb/usb_device.c: 2304:     while(UIRbits.ACTVIF)
  1169   002510  EF8B  F012         	goto	l3121
  1170   002514                     l3119:
  1171                           
  1172                           ;../source/usb/usb_device.c: 2306:     {;../source/usb/usb_device.c: 2307:         (UIR 
      +                          &= 0xFB);
  1173   002514  9468               	bcf	104,2,c	;volatile
  1174   002516                     l3121:
  1175                           
  1176                           ;../source/usb/usb_device.c: 2304:     while(UIRbits.ACTVIF)
  1177   002516  B468               	btfsc	104,2,c	;volatile
  1178   002518  EF90  F012         	goto	u1721
  1179   00251C  EF92  F012         	goto	u1720
  1180   002520                     u1721:
  1181   002520  EF8A  F012         	goto	l3119
  1182   002524                     u1720:
  1183   002524                     
  1184                           ;../source/usb/usb_device.c: 2310:     USBTicksSinceSuspendEnd = 0;
  1185   002524  0E00               	movlw	0
  1186   002526  6E27               	movwf	_USBTicksSinceSuspendEnd^0,c
  1187   002528  0012               	return		;funcret
  1188   00252A                     __end_of_USBWakeFromSuspend:
  1189                           	callstack 0
  1190                           
  1191 ;; *************** function _USBSuspend *****************
  1192 ;; Defined at:
  1193 ;;		line 2208 in file "../source/usb/usb_device.c"
  1194 ;; Parameters:    Size  Location     Type
  1195 ;;		None
  1196 ;; Auto vars:     Size  Location     Type
  1197 ;;		None
  1198 ;; Return value:  Size  Location     Type
  1199 ;;                  1    wreg      void 
  1200 ;; Registers used:
  1201 ;;		wreg, fsr2l, fsr2h, status,2, status,0, prodl, prodh, cstack
  1202 ;; Tracked objects:
  1203 ;;		On entry : 0/0
  1204 ;;		On exit  : 0/0
  1205 ;;		Unchanged: 0/0
  1206 ;; Data sizes:     COMRAM   BANK0   BANK1   BANK2   BANK3   BANK4   BANK5   BANK6   BANK7
  1207 ;;      Params:         0       0       0       0       0       0       0       0       0
  1208 ;;      Locals:         0       0       0       0       0       0       0       0       0
  1209 ;;      Temps:          0       0       0       0       0       0       0       0       0
  1210 ;;      Totals:         0       0       0       0       0       0       0       0       0
  1211 ;;Total ram usage:        0 bytes
  1212 ;; Hardware stack levels used: 1
  1213 ;; Hardware stack levels required when called: 5
  1214 ;; This function calls:
  1215 ;;		_USER_USB_CALLBACK_EVENT_HANDLER
  1216 ;; This function is called by:
  1217 ;;		_USBDeviceTasks
  1218 ;; This function uses a non-reentrant model
  1219 ;;
  1220                           
  1221                           	psect	text3
  1222   00255C                     __ptext3:
  1223                           	callstack 0
  1224   00255C                     _USBSuspend:
  1225                           	callstack 24
  1226   00255C                     
  1227                           ;../source/usb/usb_device.c: 2233:     UIEbits.ACTVIE = 1;
  1228   00255C  8469               	bsf	105,2,c	;volatile
  1229   00255E                     
  1230                           ;../source/usb/usb_device.c: 2234:     (UIR &= 0xEF);
  1231   00255E  9868               	bcf	104,4,c	;volatile
  1232   002560                     
  1233                           ;../source/usb/usb_device.c: 2237:         UCONbits.SUSPND = 1;
  1234   002560  826D               	bsf	109,1,c	;volatile
  1235   002562                     
  1236                           ;../source/usb/usb_device.c: 2240:     USBBusIsSuspended = 1;
  1237   002562  0E01               	movlw	1
  1238   002564  6E30               	movwf	_USBBusIsSuspended^0,c
  1239   002566                     
  1240                           ;../source/usb/usb_device.c: 2241:     USBTicksSinceSuspendEnd = 0;
  1241   002566  0E00               	movlw	0
  1242   002568  6E27               	movwf	_USBTicksSinceSuspendEnd^0,c
  1243   00256A                     
  1244                           ;../source/usb/usb_device.c: 2248:     USER_USB_CALLBACK_EVENT_HANDLER((USB_EVENT)EVENT_
      +                          SUSPEND,0,0);
  1245   00256A  0E00               	movlw	0
  1246   00256C  6E49               	movwf	(USER_USB_CALLBACK_EVENT_HANDLER@event+1)^0,c
  1247   00256E  0E75               	movlw	117
  1248   002570  6E48               	movwf	USER_USB_CALLBACK_EVENT_HANDLER@event^0,c
  1249   002572  0E00               	movlw	0
  1250   002574  6E4A               	movwf	USER_USB_CALLBACK_EVENT_HANDLER@pdata^0,c
  1251   002576  0E00               	movlw	0
  1252   002578  6E4B               	movwf	(USER_USB_CALLBACK_EVENT_HANDLER@pdata+1)^0,c
  1253   00257A  0E00               	movlw	0
  1254   00257C  6E4D               	movwf	(USER_USB_CALLBACK_EVENT_HANDLER@size+1)^0,c
  1255   00257E  0E00               	movlw	0
  1256   002580  6E4C               	movwf	USER_USB_CALLBACK_EVENT_HANDLER@size^0,c
  1257   002582  ECDE  F010         	call	_USER_USB_CALLBACK_EVENT_HANDLER	;wreg free
  1258   002586  0012               	return		;funcret
  1259   002588                     __end_of_USBSuspend:
  1260                           	callstack 0
  1261                           
  1262 ;; *************** function _USBStallHandler *****************
  1263 ;; Defined at:
  1264 ;;		line 2165 in file "../source/usb/usb_device.c"
  1265 ;; Parameters:    Size  Location     Type
  1266 ;;		None
  1267 ;; Auto vars:     Size  Location     Type
  1268 ;;		None
  1269 ;; Return value:  Size  Location     Type
  1270 ;;                  1    wreg      void 
  1271 ;; Registers used:
  1272 ;;		wreg, fsr2l, fsr2h, status,2, status,0
  1273 ;; Tracked objects:
  1274 ;;		On entry : 0/0
  1275 ;;		On exit  : 0/0
  1276 ;;		Unchanged: 0/0
  1277 ;; Data sizes:     COMRAM   BANK0   BANK1   BANK2   BANK3   BANK4   BANK5   BANK6   BANK7
  1278 ;;      Params:         0       0       0       0       0       0       0       0       0
  1279 ;;      Locals:         0       0       0       0       0       0       0       0       0
  1280 ;;      Temps:          1       0       0       0       0       0       0       0       0
  1281 ;;      Totals:         1       0       0       0       0       0       0       0       0
  1282 ;;Total ram usage:        1 bytes
  1283 ;; Hardware stack levels used: 1
  1284 ;; Hardware stack levels required when called: 1
  1285 ;; This function calls:
  1286 ;;		Nothing
  1287 ;; This function is called by:
  1288 ;;		_USBDeviceTasks
  1289 ;; This function uses a non-reentrant model
  1290 ;;
  1291                           
  1292                           	psect	text4
  1293   00235A                     __ptext4:
  1294                           	callstack 0
  1295   00235A                     _USBStallHandler:
  1296                           	callstack 28
  1297   00235A                     
  1298                           ;../source/usb/usb_device.c: 2177:     if(UEP0bits.EPSTALL == 1)
  1299   00235A  A070               	btfss	112,0,c	;volatile
  1300   00235C  EFB2  F011         	goto	u901
  1301   002360  EFB4  F011         	goto	u900
  1302   002364                     u901:
  1303   002364  EFDB  F011         	goto	l382
  1304   002368                     u900:
  1305   002368                     
  1306                           ;../source/usb/usb_device.c: 2178:     {;../source/usb/usb_device.c: 2180:         if((p
      +                          BDTEntryEP0OutCurrent->STAT.Val == 0x80) && (pBDTEntryIn[0]->STAT.Val == (0x80|0x04)))
  1307   002368  C025  FFD9         	movff	_pBDTEntryEP0OutCurrent,fsr2l
  1308   00236C  C026  FFDA         	movff	_pBDTEntryEP0OutCurrent+1,fsr2h
  1309   002370  0E80               	movlw	128
  1310   002372  18DE               	xorwf	postinc2,w,c
  1311   002374  A4D8               	btfss	status,2,c
  1312   002376  EFBF  F011         	goto	u911
  1313   00237A  EFC1  F011         	goto	u910
  1314   00237E                     u911:
  1315   00237E  EFDA  F011         	goto	l2177
  1316   002382                     u910:
  1317   002382  C013  FFD9         	movff	_pBDTEntryIn,fsr2l
  1318   002386  C014  FFDA         	movff	_pBDTEntryIn+1,fsr2h
  1319   00238A  0E84               	movlw	132
  1320   00238C  18DE               	xorwf	postinc2,w,c
  1321   00238E  A4D8               	btfss	status,2,c
  1322   002390  EFCC  F011         	goto	u921
  1323   002394  EFCE  F011         	goto	u920
  1324   002398                     u921:
  1325   002398  EFDA  F011         	goto	l2177
  1326   00239C                     u920:
  1327   00239C                     
  1328                           ;../source/usb/usb_device.c: 2181:         {;../source/usb/usb_device.c: 2183:          
      +                             pBDTEntryEP0OutCurrent->STAT.Val = 0x00|(0x08 & 0x08)|0x04;
  1329   00239C  C025  FFD9         	movff	_pBDTEntryEP0OutCurrent,fsr2l
  1330   0023A0  C026  FFDA         	movff	_pBDTEntryEP0OutCurrent+1,fsr2h
  1331   0023A4  0E0C               	movlw	12
  1332   0023A6  6EDF               	movwf	indf2,c
  1333   0023A8                     
  1334                           ;../source/usb/usb_device.c: 2184:             pBDTEntryEP0OutCurrent->STAT.Val |= 0x80;
  1335   0023A8  C025  FFD9         	movff	_pBDTEntryEP0OutCurrent,fsr2l
  1336   0023AC  C026  FFDA         	movff	_pBDTEntryEP0OutCurrent+1,fsr2h
  1337   0023B0  0E00               	movlw	0
  1338   0023B2  8EDB               	bsf	plusw2,7,c
  1339   0023B4                     l2177:
  1340                           
  1341                           ;../source/usb/usb_device.c: 2186:         UEP0bits.EPSTALL = 0;
  1342   0023B4  9070               	bcf	112,0,c	;volatile
  1343   0023B6                     l382:
  1344                           
  1345                           ;../source/usb/usb_device.c: 2189:     (UIR &= 0xDF);
  1346   0023B6  9A68               	bcf	104,5,c	;volatile
  1347   0023B8  0012               	return		;funcret
  1348   0023BA                     __end_of_USBStallHandler:
  1349                           	callstack 0
  1350                           
  1351 ;; *************** function _USBIncrement1msInternalTimers *****************
  1352 ;; Defined at:
  1353 ;;		line 2954 in file "../source/usb/usb_device.c"
  1354 ;; Parameters:    Size  Location     Type
  1355 ;;		None
  1356 ;; Auto vars:     Size  Location     Type
  1357 ;;		None
  1358 ;; Return value:  Size  Location     Type
  1359 ;;                  1    wreg      void 
  1360 ;; Registers used:
  1361 ;;		wreg, status,2, status,0
  1362 ;; Tracked objects:
  1363 ;;		On entry : 0/0
  1364 ;;		On exit  : 0/0
  1365 ;;		Unchanged: 0/0
  1366 ;; Data sizes:     COMRAM   BANK0   BANK1   BANK2   BANK3   BANK4   BANK5   BANK6   BANK7
  1367 ;;      Params:         0       0       0       0       0       0       0       0       0
  1368 ;;      Locals:         0       0       0       0       0       0       0       0       0
  1369 ;;      Temps:          0       0       0       0       0       0       0       0       0
  1370 ;;      Totals:         0       0       0       0       0       0       0       0       0
  1371 ;;Total ram usage:        0 bytes
  1372 ;; Hardware stack levels used: 1
  1373 ;; Hardware stack levels required when called: 1
  1374 ;; This function calls:
  1375 ;;		Nothing
  1376 ;; This function is called by:
  1377 ;;		_USBDeviceTasks
  1378 ;; This function uses a non-reentrant model
  1379 ;;
  1380                           
  1381                           	psect	text5
  1382   00252A                     __ptext5:
  1383                           	callstack 0
  1384   00252A                     _USBIncrement1msInternalTimers:
  1385                           	callstack 28
  1386   00252A                     
  1387                           ;../source/usb/usb_device.c: 2962:     USB1msTickCount++;
  1388   00252A  0E01               	movlw	1
  1389   00252C  260F               	addwf	_USB1msTickCount^0,f,c
  1390   00252E  0E00               	movlw	0
  1391   002530  2210               	addwfc	(_USB1msTickCount+1)^0,f,c
  1392   002532  2211               	addwfc	(_USB1msTickCount+2)^0,f,c
  1393   002534  2212               	addwfc	(_USB1msTickCount+3)^0,f,c
  1394   002536                     
  1395                           ;../source/usb/usb_device.c: 2963:     if(USBBusIsSuspended == 0)
  1396   002536  5030               	movf	_USBBusIsSuspended^0,w,c
  1397   002538  A4D8               	btfss	status,2,c
  1398   00253A  EFA1  F012         	goto	u881
  1399   00253E  EFA3  F012         	goto	u880
  1400   002542                     u881:
  1401   002542  EFAD  F012         	goto	l474
  1402   002546                     u880:
  1403   002546                     
  1404                           ;../source/usb/usb_device.c: 2964:     {;../source/usb/usb_device.c: 2965:         USBTi
      +                          cksSinceSuspendEnd++;
  1405   002546  2A27               	incf	_USBTicksSinceSuspendEnd^0,f,c
  1406   002548                     
  1407                           ;../source/usb/usb_device.c: 2967:         if(USBTicksSinceSuspendEnd == 0)
  1408   002548  5027               	movf	_USBTicksSinceSuspendEnd^0,w,c
  1409   00254A  A4D8               	btfss	status,2,c
  1410   00254C  EFAA  F012         	goto	u891
  1411   002550  EFAC  F012         	goto	u890
  1412   002554                     u891:
  1413   002554  EFAD  F012         	goto	l474
  1414   002558                     u890:
  1415   002558                     
  1416                           ;../source/usb/usb_device.c: 2968:         {;../source/usb/usb_device.c: 2969:          
      +                             USBTicksSinceSuspendEnd = 255;
  1417   002558  6827               	setf	_USBTicksSinceSuspendEnd^0,c
  1418   00255A                     l474:
  1419   00255A  0012               	return		;funcret
  1420   00255C                     __end_of_USBIncrement1msInternalTimers:
  1421                           	callstack 0
  1422                           
  1423 ;; *************** function _USBDeviceInit *****************
  1424 ;; Defined at:
  1425 ;;		line 237 in file "../source/usb/usb_device.c"
  1426 ;; Parameters:    Size  Location     Type
  1427 ;;		None
  1428 ;; Auto vars:     Size  Location     Type
  1429 ;;  i               1   12[COMRAM] unsigned char 
  1430 ;; Return value:  Size  Location     Type
  1431 ;;                  1    wreg      void 
  1432 ;; Registers used:
  1433 ;;		wreg, fsr2l, fsr2h, status,2, status,0, prodl, prodh, cstack
  1434 ;; Tracked objects:
  1435 ;;		On entry : 0/0
  1436 ;;		On exit  : 0/0
  1437 ;;		Unchanged: 0/0
  1438 ;; Data sizes:     COMRAM   BANK0   BANK1   BANK2   BANK3   BANK4   BANK5   BANK6   BANK7
  1439 ;;      Params:         0       0       0       0       0       0       0       0       0
  1440 ;;      Locals:         1       0       0       0       0       0       0       0       0
  1441 ;;      Temps:          0       0       0       0       0       0       0       0       0
  1442 ;;      Totals:         1       0       0       0       0       0       0       0       0
  1443 ;;Total ram usage:        1 bytes
  1444 ;; Hardware stack levels used: 1
  1445 ;; Hardware stack levels required when called: 2
  1446 ;; This function calls:
  1447 ;;		_memset
  1448 ;; This function is called by:
  1449 ;;		_USBDeviceTasks
  1450 ;;		_main
  1451 ;; This function uses a non-reentrant model
  1452 ;;
  1453                           
  1454                           	psect	text6
  1455   00127C                     __ptext6:
  1456                           	callstack 0
  1457   00127C                     _USBDeviceInit:
  1458                           	callstack 27
  1459   00127C                     
  1460                           ;../source/usb/usb_device.c: 239:     uint8_t i;;../source/usb/usb_device.c: 241:     {P
      +                          IE2bits.USBIE = 0;};
  1461   00127C  9AA0               	bcf	160,5,c	;volatile
  1462   00127E                     
  1463                           ;../source/usb/usb_device.c: 248:     {UEIR = 0;};
  1464   00127E  0E00               	movlw	0
  1465   001280  6E6A               	movwf	106,c	;volatile
  1466                           
  1467                           ;../source/usb/usb_device.c: 251:     {UIR = 0;};
  1468   001282  0E00               	movlw	0
  1469   001284  6E68               	movwf	104,c	;volatile
  1470                           
  1471                           ;../source/usb/usb_device.c: 254:     UEP0 = 0;
  1472   001286  0E00               	movlw	0
  1473   001288  6E70               	movwf	112,c	;volatile
  1474   00128A                     
  1475                           ;../source/usb/usb_device.c: 256:     memset((void*)&UEP1,0x00,(1));;
  1476   00128A  0E71               	movlw	113
  1477   00128C  6E3A               	movwf	memset@dest^0,c
  1478   00128E  0E0F               	movlw	15
  1479   001290  6E3B               	movwf	(memset@dest+1)^0,c
  1480   001292  0E00               	movlw	0
  1481   001294  6E3D               	movwf	(memset@c+1)^0,c
  1482   001296  0E00               	movlw	0
  1483   001298  6E3C               	movwf	memset@c^0,c
  1484   00129A  0E00               	movlw	0
  1485   00129C  6E3F               	movwf	(memset@n+1)^0,c
  1486   00129E  0E01               	movlw	1
  1487   0012A0  6E3E               	movwf	memset@n^0,c
  1488   0012A2  EC2B  F007         	call	_memset	;wreg free
  1489   0012A6                     
  1490                           ;../source/usb/usb_device.c: 258:     { UCFG = 0x10 | 0x00 | 0x04 | 0x02; UEIE = 0x9F; U
      +                          IE = 0x39 | 0x40 | 0x02; };
  1491   0012A6  0E16               	movlw	22
  1492   0012A8  6E6F               	movwf	111,c	;volatile
  1493   0012AA  0E9F               	movlw	159
  1494   0012AC  6E6B               	movwf	107,c	;volatile
  1495   0012AE  0E7B               	movlw	123
  1496   0012B0  6E69               	movwf	105,c	;volatile
  1497   0012B2                     
  1498                           ;../source/usb/usb_device.c: 267:     for(i = 0; i < (sizeof(BDT)/sizeof(BDT_ENTRY)); i+
      +                          +)
  1499   0012B2  0E00               	movlw	0
  1500   0012B4  6E46               	movwf	USBDeviceInit@i^0,c
  1501   0012B6                     l3053:
  1502                           
  1503                           ;../source/usb/usb_device.c: 268:     {;../source/usb/usb_device.c: 269:         BDT[i].
      +                          Val = 0x00;
  1504   0012B6  5046               	movf	USBDeviceInit@i^0,w,c
  1505   0012B8  0D04               	mullw	4
  1506   0012BA  0E00               	movlw	0
  1507   0012BC  24F3               	addwf	243,w,c
  1508   0012BE  6ED9               	movwf	fsr2l,c
  1509   0012C0  0E04               	movlw	4
  1510   0012C2  20F4               	addwfc	prodh,w,c
  1511   0012C4  6EDA               	movwf	fsr2h,c
  1512   0012C6  6ADE               	clrf	postinc2,c
  1513   0012C8  6ADE               	clrf	postinc2,c
  1514   0012CA  6ADE               	clrf	postinc2,c
  1515   0012CC  6ADD               	clrf	postdec2,c
  1516   0012CE                     
  1517                           ;../source/usb/usb_device.c: 270:     }
  1518   0012CE  2A46               	incf	USBDeviceInit@i^0,f,c
  1519   0012D0  0E07               	movlw	7
  1520   0012D2  6446               	cpfsgt	USBDeviceInit@i^0,c
  1521   0012D4  EF6E  F009         	goto	u1691
  1522   0012D8  EF70  F009         	goto	u1690
  1523   0012DC                     u1691:
  1524   0012DC  EF5B  F009         	goto	l3053
  1525   0012E0                     u1690:
  1526   0012E0                     
  1527                           ;../source/usb/usb_device.c: 273:     UCONbits.PPBRST = 1;
  1528   0012E0  8C6D               	bsf	109,6,c	;volatile
  1529   0012E2                     
  1530                           ;../source/usb/usb_device.c: 276:     UADDR = 0x00;
  1531   0012E2  0E00               	movlw	0
  1532   0012E4  6E6E               	movwf	110,c	;volatile
  1533   0012E6                     
  1534                           ;../source/usb/usb_device.c: 279:     UCONbits.PKTDIS = 0;
  1535   0012E6  986D               	bcf	109,4,c	;volatile
  1536   0012E8                     
  1537                           ;../source/usb/usb_device.c: 282:     UCONbits.PPBRST = 0;
  1538   0012E8  9C6D               	bcf	109,6,c	;volatile
  1539   0012EA                     l3065:
  1540                           
  1541                           ;../source/usb/usb_device.c: 286:     {;../source/usb/usb_device.c: 287:         (UIR &=
      +                           0xF7);
  1542   0012EA  9668               	bcf	104,3,c	;volatile
  1543   0012EC                     
  1544                           ;../source/usb/usb_device.c: 289:         inPipes[0].info.Val = 0;
  1545   0012EC  0E00               	movlw	0
  1546   0012EE  6E0C               	movwf	(_inPipes+3)^0,c
  1547   0012F0                     
  1548                           ;../source/usb/usb_device.c: 290:         outPipes[0].info.Val = 0;
  1549   0012F0  0E00               	movlw	0
  1550   0012F2  6E04               	movwf	(_outPipes+3)^0,c
  1551   0012F4                     
  1552                           ;../source/usb/usb_device.c: 291:         outPipes[0].wCount.Val = 0;
  1553   0012F4  0E00               	movlw	0
  1554   0012F6  6E06               	movwf	(_outPipes+5)^0,c
  1555   0012F8  0E00               	movlw	0
  1556   0012FA  6E05               	movwf	(_outPipes+4)^0,c
  1557   0012FC                     
  1558                           ;../source/usb/usb_device.c: 292:     }while(UIRbits.TRNIF == 1);
  1559   0012FC  B668               	btfsc	104,3,c	;volatile
  1560   0012FE  EF83  F009         	goto	u1701
  1561   001302  EF85  F009         	goto	u1700
  1562   001306                     u1701:
  1563   001306  EF75  F009         	goto	l3065
  1564   00130A                     u1700:
  1565   00130A                     
  1566                           ;../source/usb/usb_device.c: 296:     USBStatusStageEnabledFlag1 = 1;
  1567   00130A  0E01               	movlw	1
  1568   00130C  6E2B               	movwf	_USBStatusStageEnabledFlag1^0,c	;volatile
  1569                           
  1570                           ;../source/usb/usb_device.c: 297:     USBStatusStageEnabledFlag2 = 1;
  1571   00130E  0E01               	movlw	1
  1572   001310  6E2A               	movwf	_USBStatusStageEnabledFlag2^0,c	;volatile
  1573                           
  1574                           ;../source/usb/usb_device.c: 299:     USBDeferINDataStagePackets = 0;
  1575   001312  0E00               	movlw	0
  1576   001314  6E29               	movwf	_USBDeferINDataStagePackets^0,c	;volatile
  1577                           
  1578                           ;../source/usb/usb_device.c: 300:     USBDeferOUTDataStagePackets = 0;
  1579   001316  0E00               	movlw	0
  1580   001318  6E28               	movwf	_USBDeferOUTDataStagePackets^0,c	;volatile
  1581                           
  1582                           ;../source/usb/usb_device.c: 301:     USBBusIsSuspended = 0;
  1583   00131A  0E00               	movlw	0
  1584   00131C  6E30               	movwf	_USBBusIsSuspended^0,c
  1585                           
  1586                           ;../source/usb/usb_device.c: 305:     for(i = 0; i < (uint8_t)(1 +1u); i++)
  1587   00131E  0E00               	movlw	0
  1588   001320  6E46               	movwf	USBDeviceInit@i^0,c
  1589   001322                     l3081:
  1590                           
  1591                           ;../source/usb/usb_device.c: 306:     {;../source/usb/usb_device.c: 307:         pBDTEnt
      +                          ryIn[i] = 0u;
  1592   001322  5046               	movf	USBDeviceInit@i^0,w,c
  1593   001324  0D02               	mullw	2
  1594   001326  0E13               	movlw	low _pBDTEntryIn
  1595   001328  24F3               	addwf	243,w,c
  1596   00132A  6ED9               	movwf	fsr2l,c
  1597   00132C  0E00               	movlw	high _pBDTEntryIn
  1598   00132E  20F4               	addwfc	prodh,w,c
  1599   001330  6EDA               	movwf	fsr2h,c
  1600   001332  0E00               	movlw	0
  1601   001334  6EDE               	movwf	postinc2,c
  1602   001336  0E00               	movlw	0
  1603   001338  6EDD               	movwf	postdec2,c
  1604                           
  1605                           ;../source/usb/usb_device.c: 308:         pBDTEntryOut[i] = 0u;
  1606   00133A  5046               	movf	USBDeviceInit@i^0,w,c
  1607   00133C  0D02               	mullw	2
  1608   00133E  0E17               	movlw	low _pBDTEntryOut
  1609   001340  24F3               	addwf	243,w,c
  1610   001342  6ED9               	movwf	fsr2l,c
  1611   001344  0E00               	movlw	high _pBDTEntryOut
  1612   001346  20F4               	addwfc	prodh,w,c
  1613   001348  6EDA               	movwf	fsr2h,c
  1614   00134A  0E00               	movlw	0
  1615   00134C  6EDE               	movwf	postinc2,c
  1616   00134E  0E00               	movlw	0
  1617   001350  6EDD               	movwf	postdec2,c
  1618   001352                     
  1619                           ;../source/usb/usb_device.c: 309:         ep_data_in[i].Val = 0u;
  1620   001352  0E1F               	movlw	low _ep_data_in
  1621   001354  2446               	addwf	USBDeviceInit@i^0,w,c
  1622   001356  6ED9               	movwf	fsr2l,c
  1623   001358  6ADA               	clrf	fsr2h,c
  1624   00135A  0E00               	movlw	high _ep_data_in
  1625   00135C  22DA               	addwfc	fsr2h,f,c
  1626   00135E  0E00               	movlw	0
  1627   001360  6EDF               	movwf	indf2,c
  1628   001362                     
  1629                           ;../source/usb/usb_device.c: 310:         ep_data_out[i].Val = 0u;
  1630   001362  0E1D               	movlw	low _ep_data_out
  1631   001364  2446               	addwf	USBDeviceInit@i^0,w,c
  1632   001366  6ED9               	movwf	fsr2l,c
  1633   001368  6ADA               	clrf	fsr2h,c
  1634   00136A  0E00               	movlw	high _ep_data_out
  1635   00136C  22DA               	addwfc	fsr2h,f,c
  1636   00136E  0E00               	movlw	0
  1637   001370  6EDF               	movwf	indf2,c
  1638   001372                     
  1639                           ;../source/usb/usb_device.c: 311:     }
  1640   001372  2A46               	incf	USBDeviceInit@i^0,f,c
  1641   001374  0E01               	movlw	1
  1642   001376  6446               	cpfsgt	USBDeviceInit@i^0,c
  1643   001378  EFC0  F009         	goto	u1711
  1644   00137C  EFC2  F009         	goto	u1710
  1645   001380                     u1711:
  1646   001380  EF91  F009         	goto	l3081
  1647   001384                     u1710:
  1648   001384                     
  1649                           ;../source/usb/usb_device.c: 314:     pBDTEntryIn[0] = (volatile BDT_ENTRY*)&BDT[2];
  1650   001384  0E08               	movlw	8
  1651   001386  6E13               	movwf	_pBDTEntryIn^0,c
  1652   001388  0E04               	movlw	4
  1653   00138A  6E14               	movwf	(_pBDTEntryIn+1)^0,c
  1654   00138C                     
  1655                           ;../source/usb/usb_device.c: 316:     UEP0 = 0x06|0x10;
  1656   00138C  0E16               	movlw	22
  1657   00138E  6E70               	movwf	112,c	;volatile
  1658   001390                     
  1659                           ;../source/usb/usb_device.c: 318:     BDT[0].ADR = ((uint16_t)(&SetupPkt));
  1660   001390  0E04               	movlw	4
  1661   001392  0104               	movlb	4	; () banked
  1662   001394  6F03               	movwf	3,b	;volatile
  1663   001396  0E20               	movlw	32
  1664   001398  6F02               	movwf	2,b	;volatile
  1665   00139A                     
  1666                           ; BSR set to: 4
  1667                           ;../source/usb/usb_device.c: 319:     BDT[0].CNT = 8;
  1668   00139A  0E08               	movlw	8
  1669   00139C  6F01               	movwf	1,b	;volatile
  1670   00139E                     
  1671                           ; BSR set to: 4
  1672                           ;../source/usb/usb_device.c: 320:     BDT[0].STAT.Val = 0x00|0x04;
  1673   00139E  0E04               	movlw	4
  1674   0013A0  6F00               	movwf	0,b	;volatile
  1675   0013A2                     
  1676                           ; BSR set to: 4
  1677                           ;../source/usb/usb_device.c: 321:     BDT[0].STAT.Val |= 0x80;
  1678   0013A2  8F00               	bsf	0,7,b	;volatile
  1679   0013A4                     
  1680                           ; BSR set to: 4
  1681                           ;../source/usb/usb_device.c: 324:     USBActiveConfiguration = 0;
  1682   0013A4  0E00               	movlw	0
  1683   0013A6  6E39               	movwf	_USBActiveConfiguration^0,c
  1684   0013A8                     
  1685                           ; BSR set to: 4
  1686                           ;../source/usb/usb_device.c: 326:     USB1msTickCount = 0;
  1687   0013A8  0E00               	movlw	0
  1688   0013AA  6E0F               	movwf	_USB1msTickCount^0,c
  1689   0013AC  0E00               	movlw	0
  1690   0013AE  6E10               	movwf	(_USB1msTickCount+1)^0,c
  1691   0013B0  0E00               	movlw	0
  1692   0013B2  6E11               	movwf	(_USB1msTickCount+2)^0,c
  1693   0013B4  0E00               	movlw	0
  1694   0013B6  6E12               	movwf	(_USB1msTickCount+3)^0,c
  1695   0013B8                     
  1696                           ; BSR set to: 4
  1697                           ;../source/usb/usb_device.c: 327:     USBTicksSinceSuspendEnd = 0;
  1698   0013B8  0E00               	movlw	0
  1699   0013BA  6E27               	movwf	_USBTicksSinceSuspendEnd^0,c
  1700   0013BC                     
  1701                           ; BSR set to: 4
  1702                           ;../source/usb/usb_device.c: 330:     USBDeviceState = DETACHED_STATE;
  1703   0013BC  0E00               	movlw	0
  1704   0013BE  6E34               	movwf	_USBDeviceState^0,c
  1705   0013C0                     
  1706                           ; BSR set to: 4
  1707   0013C0  0012               	return		;funcret
  1708   0013C2                     __end_of_USBDeviceInit:
  1709                           	callstack 0
  1710                           
  1711 ;; *************** function _USBCtrlEPService *****************
  1712 ;; Defined at:
  1713 ;;		line 2335 in file "../source/usb/usb_device.c"
  1714 ;; Parameters:    Size  Location     Type
  1715 ;;		None
  1716 ;; Auto vars:     Size  Location     Type
  1717 ;;		None
  1718 ;; Return value:  Size  Location     Type
  1719 ;;                  1    wreg      void 
  1720 ;; Registers used:
  1721 ;;		wreg, fsr1l, fsr1h, fsr2l, fsr2h, status,2, status,0, tblptrl, tblptrh, tblptru, prodl, prodh, cstack
  1722 ;; Tracked objects:
  1723 ;;		On entry : 0/0
  1724 ;;		On exit  : 0/0
  1725 ;;		Unchanged: 0/0
  1726 ;; Data sizes:     COMRAM   BANK0   BANK1   BANK2   BANK3   BANK4   BANK5   BANK6   BANK7
  1727 ;;      Params:         0       0       0       0       0       0       0       0       0
  1728 ;;      Locals:         0       0       0       0       0       0       0       0       0
  1729 ;;      Temps:          1       0       0       0       0       0       0       0       0
  1730 ;;      Totals:         1       0       0       0       0       0       0       0       0
  1731 ;;Total ram usage:        1 bytes
  1732 ;; Hardware stack levels used: 1
  1733 ;; Hardware stack levels required when called: 8
  1734 ;; This function calls:
  1735 ;;		_USBCtrlTrfInHandler
  1736 ;;		_USBCtrlTrfOutHandler
  1737 ;;		_USBCtrlTrfSetupHandler
  1738 ;;		_memcpy
  1739 ;; This function is called by:
  1740 ;;		_USBDeviceTasks
  1741 ;; This function uses a non-reentrant model
  1742 ;;
  1743                           
  1744                           	psect	text7
  1745   001D90                     __ptext7:
  1746                           	callstack 0
  1747   001D90                     _USBCtrlEPService:
  1748                           	callstack 21
  1749   001D90                     
  1750                           ;../source/usb/usb_device.c: 2341:         USBStatusStageTimeoutCounter = (uint8_t)45;
  1751   001D90  0E2D               	movlw	45
  1752   001D92  6E2D               	movwf	_USBStatusStageTimeoutCounter^0,c
  1753   001D94                     
  1754                           ;../source/usb/usb_device.c: 2345:     if((USTATcopy.Val & ~0x02) == 0x00)
  1755   001D94  C037  F059         	movff	_USTATcopy,??_USBCtrlEPService
  1756   001D98  0EFD               	movlw	253
  1757   001D9A  1659               	andwf	??_USBCtrlEPService^0,f,c
  1758   001D9C  A4D8               	btfss	status,2,c
  1759   001D9E  EFD3  F00E         	goto	u1731
  1760   001DA2  EFD5  F00E         	goto	u1730
  1761   001DA6                     u1731:
  1762   001DA6  EF17  F00F         	goto	l3155
  1763   001DAA                     u1730:
  1764   001DAA                     
  1765                           ;../source/usb/usb_device.c: 2346:     {;../source/usb/usb_device.c: 2349:             p
      +                          BDTEntryEP0OutCurrent = (volatile BDT_ENTRY*)&BDT[(USTATcopy.Val & 0x7E)>>1];
  1766   001DAA  C037  F059         	movff	_USTATcopy,??_USBCtrlEPService
  1767   001DAE  90D8               	bcf	status,0,c
  1768   001DB0  3259               	rrcf	??_USBCtrlEPService^0,f,c
  1769   001DB2  0E3F               	movlw	63
  1770   001DB4  1659               	andwf	??_USBCtrlEPService^0,f,c
  1771   001DB6  5059               	movf	??_USBCtrlEPService^0,w,c
  1772   001DB8  0D04               	mullw	4
  1773   001DBA  0E00               	movlw	0
  1774   001DBC  24F3               	addwf	243,w,c
  1775   001DBE  6E25               	movwf	_pBDTEntryEP0OutCurrent^0,c
  1776   001DC0  0E04               	movlw	4
  1777   001DC2  20F4               	addwfc	prodh,w,c
  1778   001DC4  6E26               	movwf	(_pBDTEntryEP0OutCurrent+1)^0,c
  1779   001DC6                     
  1780                           ;../source/usb/usb_device.c: 2357:         pBDTEntryEP0OutNext = pBDTEntryEP0OutCurrent;
  1781   001DC6  C025  F023         	movff	_pBDTEntryEP0OutCurrent,_pBDTEntryEP0OutNext
  1782   001DCA  C026  F024         	movff	_pBDTEntryEP0OutCurrent+1,_pBDTEntryEP0OutNext+1
  1783   001DCE                     
  1784                           ;../source/usb/usb_device.c: 2359:         pBDTEntryEP0OutNext = (volatile BDT_ENTRY*)((
      +                          (uint16_t)pBDTEntryEP0OutNext) ^ 0x0004);
  1785   001DCE  0E04               	movlw	4
  1786   001DD0  1823               	xorwf	_pBDTEntryEP0OutNext^0,w,c
  1787   001DD2  6E23               	movwf	_pBDTEntryEP0OutNext^0,c
  1788   001DD4  5024               	movf	(_pBDTEntryEP0OutNext+1)^0,w,c
  1789   001DD6  6E24               	movwf	(_pBDTEntryEP0OutNext+1)^0,c
  1790   001DD8                     
  1791                           ;../source/usb/usb_device.c: 2362:         if(pBDTEntryEP0OutCurrent->STAT.PID == 0xD)
  1792   001DD8  C025  FFD9         	movff	_pBDTEntryEP0OutCurrent,fsr2l
  1793   001DDC  C026  FFDA         	movff	_pBDTEntryEP0OutCurrent+1,fsr2h
  1794   001DE0  30DF               	rrcf	223,w,c
  1795   001DE2  32E8               	rrcf	wreg,f,c
  1796   001DE4  0B0F               	andlw	15
  1797   001DE6  0A0D               	xorlw	13
  1798   001DE8  A4D8               	btfss	status,2,c
  1799   001DEA  EFF9  F00E         	goto	u1741
  1800   001DEE  EFFB  F00E         	goto	u1740
  1801   001DF2                     u1741:
  1802   001DF2  EF13  F00F         	goto	l3153
  1803   001DF6                     u1740:
  1804   001DF6                     
  1805                           ;../source/usb/usb_device.c: 2363:         {;../source/usb/usb_device.c: 2368:          
      +                             memcpy((uint8_t*)&SetupPkt, (uint8_t*)((void *)(pBDTEntryEP0OutCurrent->ADR)), 8);
  1806   001DF6  0E20               	movlw	32
  1807   001DF8  6E3A               	movwf	memcpy@d1^0,c
  1808   001DFA  0E04               	movlw	4
  1809   001DFC  6E3B               	movwf	(memcpy@d1+1)^0,c
  1810   001DFE  EE20 F002          	lfsr	2,2
  1811   001E02  5025               	movf	_pBDTEntryEP0OutCurrent^0,w,c
  1812   001E04  26D9               	addwf	fsr2l,f,c
  1813   001E06  5026               	movf	(_pBDTEntryEP0OutCurrent+1)^0,w,c
  1814   001E08  22DA               	addwfc	fsr2h,f,c
  1815   001E0A  CFDE F03C          	movff	postinc2,memcpy@s1
  1816   001E0E  CFDD F03D          	movff	postdec2,memcpy@s1+1
  1817   001E12  0E00               	movlw	0
  1818   001E14  6E3F               	movwf	(memcpy@n+1)^0,c
  1819   001E16  0E08               	movlw	8
  1820   001E18  6E3E               	movwf	memcpy@n^0,c
  1821   001E1A  EC08  F012         	call	_memcpy	;wreg free
  1822   001E1E                     
  1823                           ;../source/usb/usb_device.c: 2371:             USBCtrlTrfSetupHandler();
  1824   001E1E  EC2C  F011         	call	_USBCtrlTrfSetupHandler	;wreg free
  1825                           
  1826                           ;../source/usb/usb_device.c: 2372:         }
  1827   001E22  EF23  F00F         	goto	l401
  1828   001E26                     l3153:
  1829                           
  1830                           ;../source/usb/usb_device.c: 2374:         {;../source/usb/usb_device.c: 2376:          
      +                             USBCtrlTrfOutHandler();
  1831   001E26  EC73  F011         	call	_USBCtrlTrfOutHandler	;wreg free
  1832   001E2A  EF23  F00F         	goto	l401
  1833   001E2E                     l3155:
  1834   001E2E  5037               	movf	_USTATcopy^0,w,c
  1835   001E30  0BFD               	andlw	253
  1836   001E32  0A04               	xorlw	4
  1837   001E34  A4D8               	btfss	status,2,c
  1838   001E36  EF1F  F00F         	goto	u1751
  1839   001E3A  EF21  F00F         	goto	u1750
  1840   001E3E                     u1751:
  1841   001E3E  EF23  F00F         	goto	l401
  1842   001E42                     u1750:
  1843   001E42                     
  1844                           ;../source/usb/usb_device.c: 2380:     {;../source/usb/usb_device.c: 2383:         USBCt
      +                          rlTrfInHandler();
  1845   001E42  EC5B  F00D         	call	_USBCtrlTrfInHandler	;wreg free
  1846   001E46                     l401:
  1847   001E46  0012               	return		;funcret
  1848   001E48                     __end_of_USBCtrlEPService:
  1849                           	callstack 0
  1850                           
  1851 ;; *************** function _memcpy *****************
  1852 ;; Defined at:
  1853 ;;		line 4 in file "C:\Program Files\Microchip\xc8\v2.40\pic\sources\c99\common\memcpy.c"
  1854 ;; Parameters:    Size  Location     Type
  1855 ;;  d1              2    0[COMRAM] PTR void 
  1856 ;;		 -> SetupPkt(8), 
  1857 ;;  s1              2    2[COMRAM] PTR const void 
  1858 ;;		 -> CtrlTrfData(8), RAM(2047), SetupPkt(8), 
  1859 ;;  n               2    4[COMRAM] unsigned int 
  1860 ;; Auto vars:     Size  Location     Type
  1861 ;;  s               2    8[COMRAM] PTR const unsigned char 
  1862 ;;		 -> CtrlTrfData(8), RAM(2047), SetupPkt(8), 
  1863 ;;  d               2    6[COMRAM] PTR unsigned char 
  1864 ;;		 -> SetupPkt(8), 
  1865 ;;  tmp             1   10[COMRAM] unsigned char 
  1866 ;; Return value:  Size  Location     Type
  1867 ;;                  2    0[COMRAM] PTR void 
  1868 ;; Registers used:
  1869 ;;		wreg, fsr2l, fsr2h, status,2, status,0
  1870 ;; Tracked objects:
  1871 ;;		On entry : 0/0
  1872 ;;		On exit  : 0/0
  1873 ;;		Unchanged: 0/0
  1874 ;; Data sizes:     COMRAM   BANK0   BANK1   BANK2   BANK3   BANK4   BANK5   BANK6   BANK7
  1875 ;;      Params:         6       0       0       0       0       0       0       0       0
  1876 ;;      Locals:         5       0       0       0       0       0       0       0       0
  1877 ;;      Temps:          0       0       0       0       0       0       0       0       0
  1878 ;;      Totals:        11       0       0       0       0       0       0       0       0
  1879 ;;Total ram usage:       11 bytes
  1880 ;; Hardware stack levels used: 1
  1881 ;; Hardware stack levels required when called: 1
  1882 ;; This function calls:
  1883 ;;		Nothing
  1884 ;; This function is called by:
  1885 ;;		_USBCtrlEPService
  1886 ;; This function uses a non-reentrant model
  1887 ;;
  1888                           
  1889                           	psect	text8
  1890   002410                     __ptext8:
  1891                           	callstack 0
  1892   002410                     _memcpy:
  1893                           	callstack 27
  1894   002410  C03C  F042         	movff	memcpy@s1,memcpy@s
  1895   002414  C03D  F043         	movff	memcpy@s1+1,memcpy@s+1
  1896   002418  C03A  F040         	movff	memcpy@d1,memcpy@d
  1897   00241C  C03B  F041         	movff	memcpy@d1+1,memcpy@d+1
  1898   002420  EF22  F012         	goto	l2985
  1899   002424                     l2977:
  1900   002424  C042  FFD9         	movff	memcpy@s,fsr2l
  1901   002428  C043  FFDA         	movff	memcpy@s+1,fsr2h
  1902   00242C  50DF               	movf	indf2,w,c
  1903   00242E  6E44               	movwf	memcpy@tmp^0,c
  1904   002430  4A42               	infsnz	memcpy@s^0,f,c
  1905   002432  2A43               	incf	(memcpy@s+1)^0,f,c
  1906   002434  C040  FFD9         	movff	memcpy@d,fsr2l
  1907   002438  C041  FFDA         	movff	memcpy@d+1,fsr2h
  1908   00243C  C044  FFDF         	movff	memcpy@tmp,indf2
  1909   002440  4A40               	infsnz	memcpy@d^0,f,c
  1910   002442  2A41               	incf	(memcpy@d+1)^0,f,c
  1911   002444                     l2985:
  1912   002444  063E               	decf	memcpy@n^0,f,c
  1913   002446  A0D8               	btfss	status,0,c
  1914   002448  063F               	decf	(memcpy@n+1)^0,f,c
  1915   00244A  283E               	incf	memcpy@n^0,w,c
  1916   00244C  E106               	bnz	u1671
  1917   00244E  283F               	incf	(memcpy@n+1)^0,w,c
  1918   002450  A4D8               	btfss	status,2,c
  1919   002452  EF2D  F012         	goto	u1671
  1920   002456  EF2F  F012         	goto	u1670
  1921   00245A                     u1671:
  1922   00245A  EF12  F012         	goto	l2977
  1923   00245E                     u1670:
  1924   00245E  0012               	return		;funcret
  1925   002460                     __end_of_memcpy:
  1926                           	callstack 0
  1927                           
  1928 ;; *************** function _USBCtrlTrfSetupHandler *****************
  1929 ;; Defined at:
  1930 ;;		line 2428 in file "../source/usb/usb_device.c"
  1931 ;; Parameters:    Size  Location     Type
  1932 ;;		None
  1933 ;; Auto vars:     Size  Location     Type
  1934 ;;		None
  1935 ;; Return value:  Size  Location     Type
  1936 ;;                  1    wreg      void 
  1937 ;; Registers used:
  1938 ;;		wreg, fsr1l, fsr1h, fsr2l, fsr2h, status,2, status,0, tblptrl, tblptrh, tblptru, prodl, prodh, cstack
  1939 ;; Tracked objects:
  1940 ;;		On entry : 0/0
  1941 ;;		On exit  : 0/0
  1942 ;;		Unchanged: 0/0
  1943 ;; Data sizes:     COMRAM   BANK0   BANK1   BANK2   BANK3   BANK4   BANK5   BANK6   BANK7
  1944 ;;      Params:         0       0       0       0       0       0       0       0       0
  1945 ;;      Locals:         0       0       0       0       0       0       0       0       0
  1946 ;;      Temps:          0       0       0       0       0       0       0       0       0
  1947 ;;      Totals:         0       0       0       0       0       0       0       0       0
  1948 ;;Total ram usage:        0 bytes
  1949 ;; Hardware stack levels used: 1
  1950 ;; Hardware stack levels required when called: 7
  1951 ;; This function calls:
  1952 ;;		_USBCheckStdRequest
  1953 ;;		_USBCtrlEPServiceComplete
  1954 ;;		_USER_USB_CALLBACK_EVENT_HANDLER
  1955 ;; This function is called by:
  1956 ;;		_USBCtrlEPService
  1957 ;; This function uses a non-reentrant model
  1958 ;;
  1959                           
  1960                           	psect	text9
  1961   002258                     __ptext9:
  1962                           	callstack 0
  1963   002258                     _USBCtrlTrfSetupHandler:
  1964                           	callstack 21
  1965   002258                     
  1966                           ;../source/usb/usb_device.c: 2433:     shortPacketStatus = 0;
  1967   002258  0E00               	movlw	0
  1968   00225A  6E33               	movwf	_shortPacketStatus^0,c
  1969                           
  1970                           ;../source/usb/usb_device.c: 2434:     USBDeferStatusStagePacket = 0;
  1971   00225C  0E00               	movlw	0
  1972   00225E  6E2C               	movwf	_USBDeferStatusStagePacket^0,c	;volatile
  1973                           
  1974                           ;../source/usb/usb_device.c: 2435:     USBDeferINDataStagePackets = 0;
  1975   002260  0E00               	movlw	0
  1976   002262  6E29               	movwf	_USBDeferINDataStagePackets^0,c	;volatile
  1977                           
  1978                           ;../source/usb/usb_device.c: 2436:     USBDeferOUTDataStagePackets = 0;
  1979   002264  0E00               	movlw	0
  1980   002266  6E28               	movwf	_USBDeferOUTDataStagePackets^0,c	;volatile
  1981                           
  1982                           ;../source/usb/usb_device.c: 2437:     BothEP0OutUOWNsSet = 0;
  1983   002268  0E00               	movlw	0
  1984   00226A  6E2E               	movwf	_BothEP0OutUOWNsSet^0,c
  1985                           
  1986                           ;../source/usb/usb_device.c: 2438:     controlTransferState = 0;
  1987   00226C  0E00               	movlw	0
  1988   00226E  6E32               	movwf	_controlTransferState^0,c
  1989   002270                     
  1990                           ;../source/usb/usb_device.c: 2447:     pBDTEntryIn[0]->STAT.Val &= ~(0x80);
  1991   002270  C013  FFD9         	movff	_pBDTEntryIn,fsr2l
  1992   002274  C014  FFDA         	movff	_pBDTEntryIn+1,fsr2h
  1993   002278  0E7F               	movlw	127
  1994   00227A  16DF               	andwf	indf2,f,c
  1995   00227C                     
  1996                           ;../source/usb/usb_device.c: 2449:     pBDTEntryIn[0] = (volatile BDT_ENTRY*)(((uint16_t
      +                          )pBDTEntryIn[0]) ^ 0x0004);
  1997   00227C  0E04               	movlw	4
  1998   00227E  1813               	xorwf	_pBDTEntryIn^0,w,c
  1999   002280  6E13               	movwf	_pBDTEntryIn^0,c
  2000   002282  5014               	movf	(_pBDTEntryIn+1)^0,w,c
  2001   002284  6E14               	movwf	(_pBDTEntryIn+1)^0,c
  2002   002286                     
  2003                           ;../source/usb/usb_device.c: 2450:     pBDTEntryIn[0]->STAT.Val &= ~(0x80);
  2004   002286  C013  FFD9         	movff	_pBDTEntryIn,fsr2l
  2005   00228A  C014  FFDA         	movff	_pBDTEntryIn+1,fsr2h
  2006   00228E  0E7F               	movlw	127
  2007   002290  16DF               	andwf	indf2,f,c
  2008   002292                     
  2009                           ;../source/usb/usb_device.c: 2451:     pBDTEntryIn[0] = (volatile BDT_ENTRY*)(((uint16_t
      +                          )pBDTEntryIn[0]) ^ 0x0004);
  2010   002292  0E04               	movlw	4
  2011   002294  1813               	xorwf	_pBDTEntryIn^0,w,c
  2012   002296  6E13               	movwf	_pBDTEntryIn^0,c
  2013   002298  5014               	movf	(_pBDTEntryIn+1)^0,w,c
  2014   00229A  6E14               	movwf	(_pBDTEntryIn+1)^0,c
  2015   00229C                     
  2016                           ;../source/usb/usb_device.c: 2452:     pBDTEntryEP0OutNext->STAT.Val &= ~(0x80);
  2017   00229C  C023  FFD9         	movff	_pBDTEntryEP0OutNext,fsr2l
  2018   0022A0  C024  FFDA         	movff	_pBDTEntryEP0OutNext+1,fsr2h
  2019   0022A4  0E7F               	movlw	127
  2020   0022A6  16DF               	andwf	indf2,f,c
  2021   0022A8                     
  2022                           ;../source/usb/usb_device.c: 2454:     inPipes[0].info.Val = 0;
  2023   0022A8  0E00               	movlw	0
  2024   0022AA  6E0C               	movwf	(_inPipes+3)^0,c
  2025   0022AC                     
  2026                           ;../source/usb/usb_device.c: 2455:     inPipes[0].wCount.Val = 0;
  2027   0022AC  0E00               	movlw	0
  2028   0022AE  6E0E               	movwf	(_inPipes+5)^0,c
  2029   0022B0  0E00               	movlw	0
  2030   0022B2  6E0D               	movwf	(_inPipes+4)^0,c
  2031   0022B4                     
  2032                           ;../source/usb/usb_device.c: 2456:     outPipes[0].info.Val = 0;
  2033   0022B4  0E00               	movlw	0
  2034   0022B6  6E04               	movwf	(_outPipes+3)^0,c
  2035   0022B8                     
  2036                           ;../source/usb/usb_device.c: 2457:     outPipes[0].wCount.Val = 0;
  2037   0022B8  0E00               	movlw	0
  2038   0022BA  6E06               	movwf	(_outPipes+5)^0,c
  2039   0022BC  0E00               	movlw	0
  2040   0022BE  6E05               	movwf	(_outPipes+4)^0,c
  2041   0022C0                     
  2042                           ;../source/usb/usb_device.c: 2463:     USBCheckStdRequest();
  2043   0022C0  EC4C  F00C         	call	_USBCheckStdRequest	;wreg free
  2044   0022C4                     
  2045                           ;../source/usb/usb_device.c: 2464:     USER_USB_CALLBACK_EVENT_HANDLER((USB_EVENT)EVENT_
      +                          EP0_REQUEST,0,0);
  2046   0022C4  0E00               	movlw	0
  2047   0022C6  6E49               	movwf	(USER_USB_CALLBACK_EVENT_HANDLER@event+1)^0,c
  2048   0022C8  0E03               	movlw	3
  2049   0022CA  6E48               	movwf	USER_USB_CALLBACK_EVENT_HANDLER@event^0,c
  2050   0022CC  0E00               	movlw	0
  2051   0022CE  6E4A               	movwf	USER_USB_CALLBACK_EVENT_HANDLER@pdata^0,c
  2052   0022D0  0E00               	movlw	0
  2053   0022D2  6E4B               	movwf	(USER_USB_CALLBACK_EVENT_HANDLER@pdata+1)^0,c
  2054   0022D4  0E00               	movlw	0
  2055   0022D6  6E4D               	movwf	(USER_USB_CALLBACK_EVENT_HANDLER@size+1)^0,c
  2056   0022D8  0E00               	movlw	0
  2057   0022DA  6E4C               	movwf	USER_USB_CALLBACK_EVENT_HANDLER@size^0,c
  2058   0022DC  ECDE  F010         	call	_USER_USB_CALLBACK_EVENT_HANDLER	;wreg free
  2059   0022E0                     
  2060                           ;../source/usb/usb_device.c: 2477:     USBCtrlEPServiceComplete();
  2061   0022E0  EC82  F00A         	call	_USBCtrlEPServiceComplete	;wreg free
  2062   0022E4  0012               	return		;funcret
  2063   0022E6                     __end_of_USBCtrlTrfSetupHandler:
  2064                           	callstack 0
  2065                           
  2066 ;; *************** function _USBCtrlEPServiceComplete *****************
  2067 ;; Defined at:
  2068 ;;		line 1576 in file "../source/usb/usb_device.c"
  2069 ;; Parameters:    Size  Location     Type
  2070 ;;		None
  2071 ;; Auto vars:     Size  Location     Type
  2072 ;;		None
  2073 ;; Return value:  Size  Location     Type
  2074 ;;                  1    wreg      void 
  2075 ;; Registers used:
  2076 ;;		wreg, fsr1l, fsr1h, fsr2l, fsr2h, status,2, status,0, tblptrl, tblptrh, tblptru, cstack
  2077 ;; Tracked objects:
  2078 ;;		On entry : 0/0
  2079 ;;		On exit  : 0/0
  2080 ;;		Unchanged: 0/0
  2081 ;; Data sizes:     COMRAM   BANK0   BANK1   BANK2   BANK3   BANK4   BANK5   BANK6   BANK7
  2082 ;;      Params:         0       0       0       0       0       0       0       0       0
  2083 ;;      Locals:         0       0       0       0       0       0       0       0       0
  2084 ;;      Temps:          0       0       0       0       0       0       0       0       0
  2085 ;;      Totals:         0       0       0       0       0       0       0       0       0
  2086 ;;Total ram usage:        0 bytes
  2087 ;; Hardware stack levels used: 1
  2088 ;; Hardware stack levels required when called: 3
  2089 ;; This function calls:
  2090 ;;		_USBCtrlEPAllowDataStage
  2091 ;;		_USBCtrlEPAllowStatusStage
  2092 ;; This function is called by:
  2093 ;;		_USBCtrlTrfSetupHandler
  2094 ;; This function uses a non-reentrant model
  2095 ;;
  2096                           
  2097                           	psect	text10
  2098   001504                     __ptext10:
  2099                           	callstack 0
  2100   001504                     _USBCtrlEPServiceComplete:
  2101                           	callstack 24
  2102   001504                     
  2103                           ;../source/usb/usb_device.c: 1582:     UCONbits.PKTDIS = 0;
  2104   001504  986D               	bcf	109,4,c	;volatile
  2105                           
  2106                           ;../source/usb/usb_device.c: 1588:     if(inPipes[0].info.bits.busy == 0)
  2107   001506  BE0C               	btfsc	(_inPipes+3)^0,7,c
  2108   001508  EF88  F00A         	goto	u611
  2109   00150C  EF8A  F00A         	goto	u610
  2110   001510                     u611:
  2111   001510  EFCF  F00A         	goto	l305
  2112   001514                     u610:
  2113   001514                     
  2114                           ;../source/usb/usb_device.c: 1589:     {;../source/usb/usb_device.c: 1590:         if(ou
      +                          tPipes[0].info.bits.busy == 1)
  2115   001514  AE04               	btfss	(_outPipes+3)^0,7,c
  2116   001516  EF8F  F00A         	goto	u621
  2117   00151A  EF91  F00A         	goto	u620
  2118   00151E                     u621:
  2119   00151E  EFA3  F00A         	goto	l1815
  2120   001522                     u620:
  2121   001522                     
  2122                           ;../source/usb/usb_device.c: 1591:         {;../source/usb/usb_device.c: 1592:          
      +                             controlTransferState = 2;
  2123   001522  0E02               	movlw	2
  2124   001524  6E32               	movwf	_controlTransferState^0,c
  2125                           
  2126                           ;../source/usb/usb_device.c: 1603:             if(USBDeferOUTDataStagePackets == 0)
  2127   001526  5028               	movf	_USBDeferOUTDataStagePackets^0,w,c	;volatile
  2128   001528  A4D8               	btfss	status,2,c
  2129   00152A  EF99  F00A         	goto	u631
  2130   00152E  EF9B  F00A         	goto	u630
  2131   001532                     u631:
  2132   001532  EF9D  F00A         	goto	l1811
  2133   001536                     u630:
  2134   001536                     
  2135                           ;../source/usb/usb_device.c: 1604:             {;../source/usb/usb_device.c: 1605:      
      +                                     USBCtrlEPAllowDataStage();
  2136   001536  EC88  F010         	call	_USBCtrlEPAllowDataStage	;wreg free
  2137   00153A                     l1811:
  2138                           
  2139                           ;../source/usb/usb_device.c: 1610:             USBStatusStageEnabledFlag2 = 0;
  2140   00153A  0E00               	movlw	0
  2141   00153C  6E2A               	movwf	_USBStatusStageEnabledFlag2^0,c	;volatile
  2142   00153E                     
  2143                           ;../source/usb/usb_device.c: 1611:             USBStatusStageEnabledFlag1 = 0;
  2144   00153E  0E00               	movlw	0
  2145   001540  6E2B               	movwf	_USBStatusStageEnabledFlag1^0,c	;volatile
  2146                           
  2147                           ;../source/usb/usb_device.c: 1612:         }
  2148   001542  EF21  F00B         	goto	l315
  2149   001546                     l1815:
  2150                           
  2151                           ;../source/usb/usb_device.c: 1614:         {;../source/usb/usb_device.c: 1619:          
      +                             pBDTEntryEP0OutNext->CNT = 8;
  2152   001546  EE20 F001          	lfsr	2,1
  2153   00154A  5023               	movf	_pBDTEntryEP0OutNext^0,w,c
  2154   00154C  26D9               	addwf	fsr2l,f,c
  2155   00154E  5024               	movf	(_pBDTEntryEP0OutNext+1)^0,w,c
  2156   001550  22DA               	addwfc	fsr2h,f,c
  2157   001552  0E08               	movlw	8
  2158   001554  6EDF               	movwf	indf2,c
  2159                           
  2160                           ;../source/usb/usb_device.c: 1620:             pBDTEntryEP0OutNext->ADR = ((uint16_t)(&S
      +                          etupPkt));
  2161   001556  EE20 F002          	lfsr	2,2
  2162   00155A  5023               	movf	_pBDTEntryEP0OutNext^0,w,c
  2163   00155C  26D9               	addwf	fsr2l,f,c
  2164   00155E  5024               	movf	(_pBDTEntryEP0OutNext+1)^0,w,c
  2165   001560  22DA               	addwfc	fsr2h,f,c
  2166   001562  0E20               	movlw	32
  2167   001564  6EDE               	movwf	postinc2,c
  2168   001566  0E04               	movlw	4
  2169   001568  6EDD               	movwf	postdec2,c
  2170   00156A                     
  2171                           ;../source/usb/usb_device.c: 1621:             pBDTEntryEP0OutNext->STAT.Val = 0x00|(0x0
      +                          8 & 0x08)|0x04;
  2172   00156A  C023  FFD9         	movff	_pBDTEntryEP0OutNext,fsr2l
  2173   00156E  C024  FFDA         	movff	_pBDTEntryEP0OutNext+1,fsr2h
  2174   001572  0E0C               	movlw	12
  2175   001574  6EDF               	movwf	indf2,c
  2176   001576                     
  2177                           ;../source/usb/usb_device.c: 1622:             pBDTEntryEP0OutNext->STAT.Val |= 0x80;
  2178   001576  C023  FFD9         	movff	_pBDTEntryEP0OutNext,fsr2l
  2179   00157A  C024  FFDA         	movff	_pBDTEntryEP0OutNext+1,fsr2h
  2180   00157E  0E00               	movlw	0
  2181   001580  8EDB               	bsf	plusw2,7,c
  2182                           
  2183                           ;../source/usb/usb_device.c: 1623:             pBDTEntryIn[0]->STAT.Val = 0x04;
  2184   001582  C013  FFD9         	movff	_pBDTEntryIn,fsr2l
  2185   001586  C014  FFDA         	movff	_pBDTEntryIn+1,fsr2h
  2186   00158A  0E04               	movlw	4
  2187   00158C  6EDF               	movwf	indf2,c
  2188   00158E                     
  2189                           ;../source/usb/usb_device.c: 1624:             pBDTEntryIn[0]->STAT.Val |= 0x80;
  2190   00158E  C013  FFD9         	movff	_pBDTEntryIn,fsr2l
  2191   001592  C014  FFDA         	movff	_pBDTEntryIn+1,fsr2h
  2192   001596  0E00               	movlw	0
  2193   001598  8EDB               	bsf	plusw2,7,c
  2194   00159A  EF21  F00B         	goto	l315
  2195   00159E                     l305:
  2196                           
  2197                           ;../source/usb/usb_device.c: 1628:     {;../source/usb/usb_device.c: 1629:   if(SetupPkt
      +                          .DataDir == (0x80>>7))
  2198   00159E  0104               	movlb	4	; () banked
  2199   0015A0  AF20               	btfss	32,7,b	;volatile
  2200   0015A2  EFD5  F00A         	goto	u641
  2201   0015A6  EFD7  F00A         	goto	u640
  2202   0015AA                     u641:
  2203   0015AA  EFF3  F00A         	goto	l1835
  2204   0015AE                     u640:
  2205   0015AE                     
  2206                           ; BSR set to: 4
  2207                           ;../source/usb/usb_device.c: 1630:   {;../source/usb/usb_device.c: 1631:    controlTrans
      +                          ferState = 1;
  2208   0015AE  0E01               	movlw	1
  2209   0015B0  6E32               	movwf	_controlTransferState^0,c
  2210                           
  2211                           ;../source/usb/usb_device.c: 1645:    if(USBDeferINDataStagePackets == 0)
  2212   0015B2  5029               	movf	_USBDeferINDataStagePackets^0,w,c	;volatile
  2213   0015B4  A4D8               	btfss	status,2,c
  2214   0015B6  EFDF  F00A         	goto	u651
  2215   0015BA  EFE1  F00A         	goto	u650
  2216   0015BE                     u651:
  2217   0015BE  EFE3  F00A         	goto	l1827
  2218   0015C2                     u650:
  2219   0015C2                     
  2220                           ; BSR set to: 4
  2221                           ;../source/usb/usb_device.c: 1646:             {;../source/usb/usb_device.c: 1647:      
      +                                     USBCtrlEPAllowDataStage();
  2222   0015C2  EC88  F010         	call	_USBCtrlEPAllowDataStage	;wreg free
  2223   0015C6                     l1827:
  2224                           
  2225                           ;../source/usb/usb_device.c: 1670:             USBStatusStageEnabledFlag2 = 0;
  2226   0015C6  0E00               	movlw	0
  2227   0015C8  6E2A               	movwf	_USBStatusStageEnabledFlag2^0,c	;volatile
  2228   0015CA                     
  2229                           ;../source/usb/usb_device.c: 1671:             USBStatusStageEnabledFlag1 = 0;
  2230   0015CA  0E00               	movlw	0
  2231   0015CC  6E2B               	movwf	_USBStatusStageEnabledFlag1^0,c	;volatile
  2232   0015CE                     
  2233                           ;../source/usb/usb_device.c: 1672:             if(USBDeferStatusStagePacket == 0)
  2234   0015CE  502C               	movf	_USBDeferStatusStagePacket^0,w,c	;volatile
  2235   0015D0  A4D8               	btfss	status,2,c
  2236   0015D2  EFED  F00A         	goto	u661
  2237   0015D6  EFEF  F00A         	goto	u660
  2238   0015DA                     u661:
  2239   0015DA  EF21  F00B         	goto	l315
  2240   0015DE                     u660:
  2241   0015DE                     l1833:
  2242                           
  2243                           ;../source/usb/usb_device.c: 1673:             {;../source/usb/usb_device.c: 1674:      
      +                                     USBCtrlEPAllowStatusStage();
  2244   0015DE  ECDD  F00D         	call	_USBCtrlEPAllowStatusStage	;wreg free
  2245   0015E2  EF21  F00B         	goto	l315
  2246   0015E6                     l1835:
  2247                           
  2248                           ; BSR set to: 4
  2249                           ;../source/usb/usb_device.c: 1678:   {;../source/usb/usb_device.c: 1689:    controlTrans
      +                          ferState = 2;
  2250   0015E6  0E02               	movlw	2
  2251   0015E8  6E32               	movwf	_controlTransferState^0,c
  2252   0015EA                     
  2253                           ; BSR set to: 4
  2254                           ;../source/usb/usb_device.c: 1692:    pBDTEntryEP0OutNext->CNT = 8;
  2255   0015EA  EE20 F001          	lfsr	2,1
  2256   0015EE  5023               	movf	_pBDTEntryEP0OutNext^0,w,c
  2257   0015F0  26D9               	addwf	fsr2l,f,c
  2258   0015F2  5024               	movf	(_pBDTEntryEP0OutNext+1)^0,w,c
  2259   0015F4  22DA               	addwfc	fsr2h,f,c
  2260   0015F6  0E08               	movlw	8
  2261   0015F8  6EDF               	movwf	indf2,c
  2262   0015FA                     
  2263                           ; BSR set to: 4
  2264                           ;../source/usb/usb_device.c: 1693:    pBDTEntryEP0OutNext->ADR = ((uint16_t)(&SetupPkt))
      +                          ;
  2265   0015FA  EE20 F002          	lfsr	2,2
  2266   0015FE  5023               	movf	_pBDTEntryEP0OutNext^0,w,c
  2267   001600  26D9               	addwf	fsr2l,f,c
  2268   001602  5024               	movf	(_pBDTEntryEP0OutNext+1)^0,w,c
  2269   001604  22DA               	addwfc	fsr2h,f,c
  2270   001606  0E20               	movlw	32
  2271   001608  6EDE               	movwf	postinc2,c
  2272   00160A  0E04               	movlw	4
  2273   00160C  6EDD               	movwf	postdec2,c
  2274   00160E                     
  2275                           ; BSR set to: 4
  2276                           ;../source/usb/usb_device.c: 1694:    pBDTEntryEP0OutNext->STAT.Val = 0x04;
  2277   00160E  C023  FFD9         	movff	_pBDTEntryEP0OutNext,fsr2l
  2278   001612  C024  FFDA         	movff	_pBDTEntryEP0OutNext+1,fsr2h
  2279   001616  0E04               	movlw	4
  2280   001618  6EDF               	movwf	indf2,c
  2281   00161A                     
  2282                           ; BSR set to: 4
  2283                           ;../source/usb/usb_device.c: 1695:             pBDTEntryEP0OutNext->STAT.Val |= 0x80;
  2284   00161A  C023  FFD9         	movff	_pBDTEntryEP0OutNext,fsr2l
  2285   00161E  C024  FFDA         	movff	_pBDTEntryEP0OutNext+1,fsr2h
  2286   001622  0E00               	movlw	0
  2287   001624  8EDB               	bsf	plusw2,7,c
  2288   001626                     
  2289                           ; BSR set to: 4
  2290                           ;../source/usb/usb_device.c: 1698:             USBStatusStageEnabledFlag2 = 0;
  2291   001626  0E00               	movlw	0
  2292   001628  6E2A               	movwf	_USBStatusStageEnabledFlag2^0,c	;volatile
  2293   00162A                     
  2294                           ; BSR set to: 4
  2295                           ;../source/usb/usb_device.c: 1699:             USBStatusStageEnabledFlag1 = 0;
  2296   00162A  0E00               	movlw	0
  2297   00162C  6E2B               	movwf	_USBStatusStageEnabledFlag1^0,c	;volatile
  2298   00162E                     
  2299                           ; BSR set to: 4
  2300                           ;../source/usb/usb_device.c: 1700:    if(USBDeferStatusStagePacket == 0)
  2301   00162E  502C               	movf	_USBDeferStatusStagePacket^0,w,c	;volatile
  2302   001630  A4D8               	btfss	status,2,c
  2303   001632  EF1D  F00B         	goto	u671
  2304   001636  EF1F  F00B         	goto	u670
  2305   00163A                     u671:
  2306   00163A  EF21  F00B         	goto	l315
  2307   00163E                     u670:
  2308   00163E  EFEF  F00A         	goto	l1833
  2309   001642                     l315:
  2310   001642  0012               	return		;funcret
  2311   001644                     __end_of_USBCtrlEPServiceComplete:
  2312                           	callstack 0
  2313                           
  2314 ;; *************** function _USBCtrlEPAllowDataStage *****************
  2315 ;; Defined at:
  2316 ;;		line 1448 in file "../source/usb/usb_device.c"
  2317 ;; Parameters:    Size  Location     Type
  2318 ;;		None
  2319 ;; Auto vars:     Size  Location     Type
  2320 ;;		None
  2321 ;; Return value:  Size  Location     Type
  2322 ;;                  1    wreg      void 
  2323 ;; Registers used:
  2324 ;;		wreg, fsr1l, fsr1h, fsr2l, fsr2h, status,2, status,0, tblptrl, tblptrh, tblptru, cstack
  2325 ;; Tracked objects:
  2326 ;;		On entry : 0/0
  2327 ;;		On exit  : 0/0
  2328 ;;		Unchanged: 0/0
  2329 ;; Data sizes:     COMRAM   BANK0   BANK1   BANK2   BANK3   BANK4   BANK5   BANK6   BANK7
  2330 ;;      Params:         0       0       0       0       0       0       0       0       0
  2331 ;;      Locals:         0       0       0       0       0       0       0       0       0
  2332 ;;      Temps:          0       0       0       0       0       0       0       0       0
  2333 ;;      Totals:         0       0       0       0       0       0       0       0       0
  2334 ;;Total ram usage:        0 bytes
  2335 ;; Hardware stack levels used: 1
  2336 ;; Hardware stack levels required when called: 2
  2337 ;; This function calls:
  2338 ;;		_USBCtrlTrfTxService
  2339 ;; This function is called by:
  2340 ;;		_USBCtrlEPServiceComplete
  2341 ;; This function uses a non-reentrant model
  2342 ;;
  2343                           
  2344                           	psect	text11
  2345   002110                     __ptext11:
  2346                           	callstack 0
  2347   002110                     _USBCtrlEPAllowDataStage:
  2348                           	callstack 24
  2349   002110                     
  2350                           ;../source/usb/usb_device.c: 1450:     USBDeferINDataStagePackets = 0;
  2351   002110  0E00               	movlw	0
  2352   002112  6E29               	movwf	_USBDeferINDataStagePackets^0,c	;volatile
  2353                           
  2354                           ;../source/usb/usb_device.c: 1451:     USBDeferOUTDataStagePackets = 0;
  2355   002114  0E00               	movlw	0
  2356   002116  6E28               	movwf	_USBDeferOUTDataStagePackets^0,c	;volatile
  2357   002118                     
  2358                           ;../source/usb/usb_device.c: 1453:     if(controlTransferState == 2)
  2359   002118  0E02               	movlw	2
  2360   00211A  1832               	xorwf	_controlTransferState^0,w,c
  2361   00211C  A4D8               	btfss	status,2,c
  2362   00211E  EF93  F010         	goto	u271
  2363   002122  EF95  F010         	goto	u270
  2364   002126                     u271:
  2365   002126  EFB5  F010         	goto	l1593
  2366   00212A                     u270:
  2367   00212A                     
  2368                           ;../source/usb/usb_device.c: 1454:     {;../source/usb/usb_device.c: 1456:         pBDTE
      +                          ntryEP0OutNext->CNT = 8;
  2369   00212A  EE20 F001          	lfsr	2,1
  2370   00212E  5023               	movf	_pBDTEntryEP0OutNext^0,w,c
  2371   002130  26D9               	addwf	fsr2l,f,c
  2372   002132  5024               	movf	(_pBDTEntryEP0OutNext+1)^0,w,c
  2373   002134  22DA               	addwfc	fsr2h,f,c
  2374   002136  0E08               	movlw	8
  2375   002138  6EDF               	movwf	indf2,c
  2376                           
  2377                           ;../source/usb/usb_device.c: 1457:         pBDTEntryEP0OutNext->ADR = ((uint16_t)(&CtrlT
      +                          rfData));
  2378   00213A  EE20 F002          	lfsr	2,2
  2379   00213E  5023               	movf	_pBDTEntryEP0OutNext^0,w,c
  2380   002140  26D9               	addwf	fsr2l,f,c
  2381   002142  5024               	movf	(_pBDTEntryEP0OutNext+1)^0,w,c
  2382   002144  22DA               	addwfc	fsr2h,f,c
  2383   002146  0E28               	movlw	40
  2384   002148  6EDE               	movwf	postinc2,c
  2385   00214A  0E04               	movlw	4
  2386   00214C  6EDD               	movwf	postdec2,c
  2387   00214E                     
  2388                           ;../source/usb/usb_device.c: 1458:         pBDTEntryEP0OutNext->STAT.Val = 0x40|(0x08 & 
      +                          0x08);
  2389   00214E  C023  FFD9         	movff	_pBDTEntryEP0OutNext,fsr2l
  2390   002152  C024  FFDA         	movff	_pBDTEntryEP0OutNext+1,fsr2h
  2391   002156  0E48               	movlw	72
  2392   002158  6EDF               	movwf	indf2,c
  2393   00215A                     
  2394                           ;../source/usb/usb_device.c: 1459:         pBDTEntryEP0OutNext->STAT.Val |= 0x80;
  2395   00215A  C023  FFD9         	movff	_pBDTEntryEP0OutNext,fsr2l
  2396   00215E  C024  FFDA         	movff	_pBDTEntryEP0OutNext+1,fsr2h
  2397   002162  0E00               	movlw	0
  2398   002164  8EDB               	bsf	plusw2,7,c
  2399                           
  2400                           ;../source/usb/usb_device.c: 1460:     }
  2401   002166  EFDD  F010         	goto	l297
  2402   00216A                     l1593:
  2403                           
  2404                           ;../source/usb/usb_device.c: 1462:     {;../source/usb/usb_device.c: 1465:   if(SetupPkt
      +                          .wLength < inPipes[0].wCount.Val)
  2405   00216A  500D               	movf	(_inPipes+4)^0,w,c
  2406   00216C  0104               	movlb	4	; () banked
  2407   00216E  5D26               	subwf	38,w,b	;volatile
  2408   002170  500E               	movf	(_inPipes+5)^0,w,c
  2409   002172  5927               	subwfb	39,w,b	;volatile
  2410   002174  B0D8               	btfsc	status,0,c
  2411   002176  EFBF  F010         	goto	u281
  2412   00217A  EFC1  F010         	goto	u280
  2413   00217E                     u281:
  2414   00217E  EFC5  F010         	goto	l1597
  2415   002182                     u280:
  2416   002182                     
  2417                           ; BSR set to: 4
  2418                           ;../source/usb/usb_device.c: 1466:   {;../source/usb/usb_device.c: 1467:    inPipes[0].w
      +                          Count.Val = SetupPkt.wLength;
  2419   002182  C426 F00D          	movff	1062,_inPipes+4	;volatile
  2420   002186  C427 F00E          	movff	1063,_inPipes+5	;volatile
  2421   00218A                     l1597:
  2422                           
  2423                           ; BSR set to: 4
  2424                           ;../source/usb/usb_device.c: 1469:   USBCtrlTrfTxService();
  2425   00218A  ECD6  F00C         	call	_USBCtrlTrfTxService	;wreg free
  2426   00218E                     
  2427                           ;../source/usb/usb_device.c: 1474:   pBDTEntryIn[0]->ADR = ((uint16_t)(&CtrlTrfData));
  2428   00218E  EE20 F002          	lfsr	2,2
  2429   002192  5013               	movf	_pBDTEntryIn^0,w,c
  2430   002194  26D9               	addwf	fsr2l,f,c
  2431   002196  5014               	movf	(_pBDTEntryIn+1)^0,w,c
  2432   002198  22DA               	addwfc	fsr2h,f,c
  2433   00219A  0E28               	movlw	40
  2434   00219C  6EDE               	movwf	postinc2,c
  2435   00219E  0E04               	movlw	4
  2436   0021A0  6EDD               	movwf	postdec2,c
  2437   0021A2                     
  2438                           ;../source/usb/usb_device.c: 1475:   pBDTEntryIn[0]->STAT.Val = 0x40|(0x08 & 0x08);
  2439   0021A2  C013  FFD9         	movff	_pBDTEntryIn,fsr2l
  2440   0021A6  C014  FFDA         	movff	_pBDTEntryIn+1,fsr2h
  2441   0021AA  0E48               	movlw	72
  2442   0021AC  6EDF               	movwf	indf2,c
  2443   0021AE                     
  2444                           ;../source/usb/usb_device.c: 1476:         pBDTEntryIn[0]->STAT.Val |= 0x80;
  2445   0021AE  C013  FFD9         	movff	_pBDTEntryIn,fsr2l
  2446   0021B2  C014  FFDA         	movff	_pBDTEntryIn+1,fsr2h
  2447   0021B6  0E00               	movlw	0
  2448   0021B8  8EDB               	bsf	plusw2,7,c
  2449   0021BA                     l297:
  2450   0021BA  0012               	return		;funcret
  2451   0021BC                     __end_of_USBCtrlEPAllowDataStage:
  2452                           	callstack 0
  2453                           
  2454 ;; *************** function _USBCheckStdRequest *****************
  2455 ;; Defined at:
  2456 ;;		line 2649 in file "../source/usb/usb_device.c"
  2457 ;; Parameters:    Size  Location     Type
  2458 ;;		None
  2459 ;; Auto vars:     Size  Location     Type
  2460 ;;		None
  2461 ;; Return value:  Size  Location     Type
  2462 ;;                  1    wreg      void 
  2463 ;; Registers used:
  2464 ;;		wreg, fsr1l, fsr1h, fsr2l, fsr2h, status,2, status,0, tblptrl, tblptrh, tblptru, prodl, prodh, cstack
  2465 ;; Tracked objects:
  2466 ;;		On entry : 0/0
  2467 ;;		On exit  : 0/0
  2468 ;;		Unchanged: 0/0
  2469 ;; Data sizes:     COMRAM   BANK0   BANK1   BANK2   BANK3   BANK4   BANK5   BANK6   BANK7
  2470 ;;      Params:         0       0       0       0       0       0       0       0       0
  2471 ;;      Locals:         0       0       0       0       0       0       0       0       0
  2472 ;;      Temps:          2       0       0       0       0       0       0       0       0
  2473 ;;      Totals:         2       0       0       0       0       0       0       0       0
  2474 ;;Total ram usage:        2 bytes
  2475 ;; Hardware stack levels used: 1
  2476 ;; Hardware stack levels required when called: 6
  2477 ;; This function calls:
  2478 ;;		_USBStdFeatureReqHandler
  2479 ;;		_USBStdGetDscHandler
  2480 ;;		_USBStdGetStatusHandler
  2481 ;;		_USBStdSetCfgHandler
  2482 ;;		_USER_USB_CALLBACK_EVENT_HANDLER
  2483 ;; This function is called by:
  2484 ;;		_USBCtrlTrfSetupHandler
  2485 ;; This function uses a non-reentrant model
  2486 ;;
  2487                           
  2488                           	psect	text12
  2489   001898                     __ptext12:
  2490                           	callstack 0
  2491   001898                     _USBCheckStdRequest:
  2492                           	callstack 21
  2493   001898                     
  2494                           ;../source/usb/usb_device.c: 2651:     if(SetupPkt.RequestType != (0x00>>5)) return;
  2495   001898  0104               	movlb	4	; () banked
  2496   00189A  3920               	swapf	32,w,b	;volatile
  2497   00189C  32E8               	rrcf	wreg,f,c
  2498   00189E  0B03               	andlw	3
  2499   0018A0  0900               	iorlw	0
  2500   0018A2  B4D8               	btfsc	status,2,c
  2501   0018A4  EF56  F00C         	goto	u1661
  2502   0018A8  EF58  F00C         	goto	u1660
  2503   0018AC                     u1661:
  2504   0018AC  EF9C  F00C         	goto	l2967
  2505   0018B0                     u1660:
  2506   0018B0  EFD5  F00C         	goto	l429
  2507   0018B4                     l431:
  2508                           
  2509                           ; BSR set to: 4
  2510                           ;../source/usb/usb_device.c: 2656:             inPipes[0].info.bits.busy = 1;
  2511   0018B4  8E0C               	bsf	(_inPipes+3)^0,7,c
  2512   0018B6                     
  2513                           ; BSR set to: 4
  2514                           ;../source/usb/usb_device.c: 2657:             USBDeviceState = ADR_PENDING_STATE;
  2515   0018B6  0E08               	movlw	8
  2516   0018B8  6E34               	movwf	_USBDeviceState^0,c
  2517                           
  2518                           ;../source/usb/usb_device.c: 2659:             break;
  2519   0018BA  EFD5  F00C         	goto	l429
  2520   0018BE                     l2937:
  2521                           
  2522                           ; BSR set to: 4
  2523                           ;../source/usb/usb_device.c: 2661:             USBStdGetDscHandler();
  2524   0018BE  EC96  F008         	call	_USBStdGetDscHandler	;wreg free
  2525                           
  2526                           ;../source/usb/usb_device.c: 2662:             break;
  2527   0018C2  EFD5  F00C         	goto	l429
  2528   0018C6                     l2939:
  2529                           
  2530                           ; BSR set to: 4
  2531                           ;../source/usb/usb_device.c: 2664:             USBStdSetCfgHandler();
  2532   0018C6  EC55  F00E         	call	_USBStdSetCfgHandler	;wreg free
  2533                           
  2534                           ;../source/usb/usb_device.c: 2665:             break;
  2535   0018CA  EFD5  F00C         	goto	l429
  2536   0018CE                     l2941:
  2537                           
  2538                           ; BSR set to: 4
  2539                           ;../source/usb/usb_device.c: 2667:             inPipes[0].pSrc.bRam = (uint8_t*)&USBActi
      +                          veConfiguration;
  2540   0018CE  0E39               	movlw	low _USBActiveConfiguration
  2541   0018D0  6E09               	movwf	_inPipes^0,c
  2542   0018D2  0E00               	movlw	high _USBActiveConfiguration
  2543   0018D4  6E0A               	movwf	(_inPipes+1)^0,c
  2544   0018D6                     l2943:
  2545                           
  2546                           ; BSR set to: 4
  2547                           ;../source/usb/usb_device.c: 2668:             inPipes[0].info.bits.ctrl_trf_mem = 0x01;
  2548   0018D6  800C               	bsf	(_inPipes+3)^0,0,c
  2549   0018D8                     
  2550                           ; BSR set to: 4
  2551                           ;../source/usb/usb_device.c: 2669:             inPipes[0].wCount.v[0] = 1;
  2552   0018D8  0E01               	movlw	1
  2553   0018DA  6E0D               	movwf	(_inPipes+4)^0,c
  2554   0018DC                     
  2555                           ; BSR set to: 4
  2556                           ;../source/usb/usb_device.c: 2670:             inPipes[0].info.bits.busy = 1;
  2557   0018DC  8E0C               	bsf	(_inPipes+3)^0,7,c
  2558                           
  2559                           ;../source/usb/usb_device.c: 2671:             break;
  2560   0018DE  EFD5  F00C         	goto	l429
  2561   0018E2                     l2949:
  2562                           
  2563                           ; BSR set to: 4
  2564                           ;../source/usb/usb_device.c: 2673:             USBStdGetStatusHandler();
  2565   0018E2  ECC1  F00B         	call	_USBStdGetStatusHandler	;wreg free
  2566                           
  2567                           ;../source/usb/usb_device.c: 2674:             break;
  2568   0018E6  EFD5  F00C         	goto	l429
  2569   0018EA                     l2951:
  2570                           
  2571                           ; BSR set to: 4
  2572                           ;../source/usb/usb_device.c: 2677:             USBStdFeatureReqHandler();
  2573   0018EA  EC54  F004         	call	_USBStdFeatureReqHandler	;wreg free
  2574                           
  2575                           ;../source/usb/usb_device.c: 2678:             break;
  2576   0018EE  EFD5  F00C         	goto	l429
  2577   0018F2                     l2953:
  2578                           
  2579                           ; BSR set to: 4
  2580                           ;../source/usb/usb_device.c: 2680:             inPipes[0].pSrc.bRam = (uint8_t*)&USBAlte
      +                          rnateInterface[SetupPkt.bIntfID];
  2581   0018F2  0E38               	movlw	low _USBAlternateInterface
  2582   0018F4  2524               	addwf	36,w,b	;volatile
  2583   0018F6  6E09               	movwf	_inPipes^0,c
  2584   0018F8  6A0A               	clrf	(_inPipes+1)^0,c
  2585   0018FA  0E00               	movlw	high _USBAlternateInterface
  2586   0018FC  220A               	addwfc	(_inPipes+1)^0,f,c
  2587   0018FE  EF6B  F00C         	goto	l2943
  2588   001902                     l440:
  2589                           
  2590                           ; BSR set to: 4
  2591                           ;../source/usb/usb_device.c: 2686:             inPipes[0].info.bits.busy = 1;
  2592   001902  8E0C               	bsf	(_inPipes+3)^0,7,c
  2593   001904                     
  2594                           ; BSR set to: 4
  2595                           ;../source/usb/usb_device.c: 2687:             USBAlternateInterface[SetupPkt.bIntfID] =
      +                           SetupPkt.bAltID;
  2596   001904  0E38               	movlw	low _USBAlternateInterface
  2597   001906  2524               	addwf	36,w,b	;volatile
  2598   001908  6ED9               	movwf	fsr2l,c
  2599   00190A  6ADA               	clrf	fsr2h,c
  2600   00190C  0E00               	movlw	high _USBAlternateInterface
  2601   00190E  22DA               	addwfc	fsr2h,f,c
  2602   001910  C422 FFDF          	movff	1058,indf2	;volatile
  2603                           
  2604                           ;../source/usb/usb_device.c: 2688:             break;
  2605   001914  EFD5  F00C         	goto	l429
  2606   001918                     l2963:
  2607                           
  2608                           ; BSR set to: 4
  2609                           ;../source/usb/usb_device.c: 2690:             USER_USB_CALLBACK_EVENT_HANDLER((USB_EVEN
      +                          T)EVENT_SET_DESCRIPTOR,0,0);
  2610   001918  0E00               	movlw	0
  2611   00191A  6E49               	movwf	(USER_USB_CALLBACK_EVENT_HANDLER@event+1)^0,c
  2612   00191C  0E02               	movlw	2
  2613   00191E  6E48               	movwf	USER_USB_CALLBACK_EVENT_HANDLER@event^0,c
  2614   001920  0E00               	movlw	0
  2615   001922  6E4A               	movwf	USER_USB_CALLBACK_EVENT_HANDLER@pdata^0,c
  2616   001924  0E00               	movlw	0
  2617   001926  6E4B               	movwf	(USER_USB_CALLBACK_EVENT_HANDLER@pdata+1)^0,c
  2618   001928  0E00               	movlw	0
  2619   00192A  6E4D               	movwf	(USER_USB_CALLBACK_EVENT_HANDLER@size+1)^0,c
  2620   00192C  0E00               	movlw	0
  2621   00192E  6E4C               	movwf	USER_USB_CALLBACK_EVENT_HANDLER@size^0,c
  2622   001930  ECDE  F010         	call	_USER_USB_CALLBACK_EVENT_HANDLER	;wreg free
  2623                           
  2624                           ;../source/usb/usb_device.c: 2691:             break;
  2625   001934  EFD5  F00C         	goto	l429
  2626   001938                     l2967:
  2627                           
  2628                           ; BSR set to: 4
  2629   001938  5121               	movf	33,w,b	;volatile
  2630   00193A  6E57               	movwf	??_USBCheckStdRequest^0,c
  2631   00193C  6A58               	clrf	(??_USBCheckStdRequest+1)^0,c
  2632                           
  2633                           ; Switch on 2 bytes has been partitioned into a top level switch of size 1, and 1 sub-sw
      +                          itches
  2634                           ; Switch size 1, requested type "simple"
  2635                           ; Number of cases is 1, Range of values is 0 to 0
  2636                           ; switch strategies available:
  2637                           ; Name         Instructions Cycles
  2638                           ; simple_byte            4     3 (average)
  2639                           ;	Chosen strategy is simple_byte
  2640   00193E  5058               	movf	(??_USBCheckStdRequest+1)^0,w,c
  2641   001940  0A00               	xorlw	0	; case 0
  2642   001942  B4D8               	btfsc	status,2,c
  2643   001944  EFA6  F00C         	goto	l3633
  2644   001948  EFD5  F00C         	goto	l429
  2645   00194C                     l3633:
  2646                           
  2647                           ; BSR set to: 4
  2648                           ; Switch size 1, requested type "simple"
  2649                           ; Number of cases is 11, Range of values is 0 to 12
  2650                           ; switch strategies available:
  2651                           ; Name         Instructions Cycles
  2652                           ; simple_byte           34    18 (average)
  2653                           ;	Chosen strategy is simple_byte
  2654   00194C  5057               	movf	??_USBCheckStdRequest^0,w,c
  2655   00194E  0A00               	xorlw	0	; case 0
  2656   001950  B4D8               	btfsc	status,2,c
  2657   001952  EF71  F00C         	goto	l2949
  2658   001956  0A01               	xorlw	1	; case 1
  2659   001958  B4D8               	btfsc	status,2,c
  2660   00195A  EF75  F00C         	goto	l2951
  2661   00195E  0A02               	xorlw	2	; case 3
  2662   001960  B4D8               	btfsc	status,2,c
  2663   001962  EF75  F00C         	goto	l2951
  2664   001966  0A06               	xorlw	6	; case 5
  2665   001968  B4D8               	btfsc	status,2,c
  2666   00196A  EF5A  F00C         	goto	l431
  2667   00196E  0A03               	xorlw	3	; case 6
  2668   001970  B4D8               	btfsc	status,2,c
  2669   001972  EF5F  F00C         	goto	l2937
  2670   001976  0A01               	xorlw	1	; case 7
  2671   001978  B4D8               	btfsc	status,2,c
  2672   00197A  EF8C  F00C         	goto	l2963
  2673   00197E  0A0F               	xorlw	15	; case 8
  2674   001980  B4D8               	btfsc	status,2,c
  2675   001982  EF67  F00C         	goto	l2941
  2676   001986  0A01               	xorlw	1	; case 9
  2677   001988  B4D8               	btfsc	status,2,c
  2678   00198A  EF63  F00C         	goto	l2939
  2679   00198E  0A03               	xorlw	3	; case 10
  2680   001990  B4D8               	btfsc	status,2,c
  2681   001992  EF79  F00C         	goto	l2953
  2682   001996  0A01               	xorlw	1	; case 11
  2683   001998  B4D8               	btfsc	status,2,c
  2684   00199A  EF81  F00C         	goto	l440
  2685   00199E  0A07               	xorlw	7	; case 12
  2686   0019A0  B4D8               	btfsc	status,2,c
  2687   0019A2  EFD5  F00C         	goto	l429
  2688   0019A6  EFD5  F00C         	goto	l429
  2689   0019AA                     l429:
  2690   0019AA  0012               	return		;funcret
  2691   0019AC                     __end_of_USBCheckStdRequest:
  2692                           	callstack 0
  2693                           
  2694 ;; *************** function _USBStdSetCfgHandler *****************
  2695 ;; Defined at:
  2696 ;;		line 1928 in file "../source/usb/usb_device.c"
  2697 ;; Parameters:    Size  Location     Type
  2698 ;;		None
  2699 ;; Auto vars:     Size  Location     Type
  2700 ;;  i               1   22[COMRAM] unsigned char 
  2701 ;; Return value:  Size  Location     Type
  2702 ;;                  1    wreg      void 
  2703 ;; Registers used:
  2704 ;;		wreg, fsr2l, fsr2h, status,2, status,0, prodl, prodh, cstack
  2705 ;; Tracked objects:
  2706 ;;		On entry : 0/0
  2707 ;;		On exit  : 0/0
  2708 ;;		Unchanged: 0/0
  2709 ;; Data sizes:     COMRAM   BANK0   BANK1   BANK2   BANK3   BANK4   BANK5   BANK6   BANK7
  2710 ;;      Params:         0       0       0       0       0       0       0       0       0
  2711 ;;      Locals:         1       0       0       0       0       0       0       0       0
  2712 ;;      Temps:          0       0       0       0       0       0       0       0       0
  2713 ;;      Totals:         1       0       0       0       0       0       0       0       0
  2714 ;;Total ram usage:        1 bytes
  2715 ;; Hardware stack levels used: 1
  2716 ;; Hardware stack levels required when called: 5
  2717 ;; This function calls:
  2718 ;;		_USER_USB_CALLBACK_EVENT_HANDLER
  2719 ;;		_memset
  2720 ;; This function is called by:
  2721 ;;		_USBCheckStdRequest
  2722 ;; This function uses a non-reentrant model
  2723 ;;
  2724                           
  2725                           	psect	text13
  2726   001CAA                     __ptext13:
  2727                           	callstack 0
  2728   001CAA                     _USBStdSetCfgHandler:
  2729                           	callstack 21
  2730   001CAA                     
  2731                           ;../source/usb/usb_device.c: 1930:     uint8_t i;;../source/usb/usb_device.c: 1933:     
      +                          inPipes[0].info.bits.busy = 1;
  2732   001CAA  8E0C               	bsf	(_inPipes+3)^0,7,c
  2733   001CAC                     
  2734                           ;../source/usb/usb_device.c: 1936:     memset((void*)&UEP1,0x00,(1));;
  2735   001CAC  0E71               	movlw	113
  2736   001CAE  6E3A               	movwf	memset@dest^0,c
  2737   001CB0  0E0F               	movlw	15
  2738   001CB2  6E3B               	movwf	(memset@dest+1)^0,c
  2739   001CB4  0E00               	movlw	0
  2740   001CB6  6E3D               	movwf	(memset@c+1)^0,c
  2741   001CB8  0E00               	movlw	0
  2742   001CBA  6E3C               	movwf	memset@c^0,c
  2743   001CBC  0E00               	movlw	0
  2744   001CBE  6E3F               	movwf	(memset@n+1)^0,c
  2745   001CC0  0E01               	movlw	1
  2746   001CC2  6E3E               	movwf	memset@n^0,c
  2747   001CC4  EC2B  F007         	call	_memset	;wreg free
  2748                           
  2749                           ;../source/usb/usb_device.c: 1939:     memset((void*)&BDT[0], 0x00, sizeof(BDT));
  2750   001CC8  0E00               	movlw	0
  2751   001CCA  6E3A               	movwf	memset@dest^0,c
  2752   001CCC  0E04               	movlw	4
  2753   001CCE  6E3B               	movwf	(memset@dest+1)^0,c
  2754   001CD0  0E00               	movlw	0
  2755   001CD2  6E3D               	movwf	(memset@c+1)^0,c
  2756   001CD4  0E00               	movlw	0
  2757   001CD6  6E3C               	movwf	memset@c^0,c
  2758   001CD8  0E00               	movlw	0
  2759   001CDA  6E3F               	movwf	(memset@n+1)^0,c
  2760   001CDC  0E20               	movlw	32
  2761   001CDE  6E3E               	movwf	memset@n^0,c
  2762   001CE0  EC2B  F007         	call	_memset	;wreg free
  2763   001CE4                     
  2764                           ;../source/usb/usb_device.c: 1942:     UCONbits.PPBRST = 1;
  2765   001CE4  8C6D               	bsf	109,6,c	;volatile
  2766   001CE6                     
  2767                           ;../source/usb/usb_device.c: 1947:  for(i = 0; i < (uint8_t)(1 +1u); i++)
  2768   001CE6  0E00               	movlw	0
  2769   001CE8  6E50               	movwf	USBStdSetCfgHandler@i^0,c
  2770   001CEA                     l2821:
  2771                           
  2772                           ;../source/usb/usb_device.c: 1948:  {;../source/usb/usb_device.c: 1949:   ep_data_in[i].
      +                          Val = 0u;
  2773   001CEA  0E1F               	movlw	low _ep_data_in
  2774   001CEC  2450               	addwf	USBStdSetCfgHandler@i^0,w,c
  2775   001CEE  6ED9               	movwf	fsr2l,c
  2776   001CF0  6ADA               	clrf	fsr2h,c
  2777   001CF2  0E00               	movlw	high _ep_data_in
  2778   001CF4  22DA               	addwfc	fsr2h,f,c
  2779   001CF6  0E00               	movlw	0
  2780   001CF8  6EDF               	movwf	indf2,c
  2781                           
  2782                           ;../source/usb/usb_device.c: 1950:         ep_data_out[i].Val = 0u;
  2783   001CFA  0E1D               	movlw	low _ep_data_out
  2784   001CFC  2450               	addwf	USBStdSetCfgHandler@i^0,w,c
  2785   001CFE  6ED9               	movwf	fsr2l,c
  2786   001D00  6ADA               	clrf	fsr2h,c
  2787   001D02  0E00               	movlw	high _ep_data_out
  2788   001D04  22DA               	addwfc	fsr2h,f,c
  2789   001D06  0E00               	movlw	0
  2790   001D08  6EDF               	movwf	indf2,c
  2791   001D0A                     
  2792                           ;../source/usb/usb_device.c: 1951:  }
  2793   001D0A  2A50               	incf	USBStdSetCfgHandler@i^0,f,c
  2794   001D0C  0E01               	movlw	1
  2795   001D0E  6450               	cpfsgt	USBStdSetCfgHandler@i^0,c
  2796   001D10  EF8C  F00E         	goto	u1461
  2797   001D14  EF8E  F00E         	goto	u1460
  2798   001D18                     u1461:
  2799   001D18  EF75  F00E         	goto	l2821
  2800   001D1C                     u1460:
  2801   001D1C                     
  2802                           ;../source/usb/usb_device.c: 1954:     memset((void*)&USBAlternateInterface,0x00,1);
  2803   001D1C  0E38               	movlw	low _USBAlternateInterface
  2804   001D1E  6E3A               	movwf	memset@dest^0,c
  2805   001D20  0E00               	movlw	high _USBAlternateInterface
  2806   001D22  6E3B               	movwf	(memset@dest+1)^0,c
  2807   001D24  0E00               	movlw	0
  2808   001D26  6E3D               	movwf	(memset@c+1)^0,c
  2809   001D28  0E00               	movlw	0
  2810   001D2A  6E3C               	movwf	memset@c^0,c
  2811   001D2C  0E00               	movlw	0
  2812   001D2E  6E3F               	movwf	(memset@n+1)^0,c
  2813   001D30  0E01               	movlw	1
  2814   001D32  6E3E               	movwf	memset@n^0,c
  2815   001D34  EC2B  F007         	call	_memset	;wreg free
  2816   001D38                     
  2817                           ;../source/usb/usb_device.c: 1957:     UCONbits.PPBRST = 0;
  2818   001D38  9C6D               	bcf	109,6,c	;volatile
  2819   001D3A                     
  2820                           ;../source/usb/usb_device.c: 1959:     pBDTEntryIn[0] = (volatile BDT_ENTRY*)&BDT[2];
  2821   001D3A  0E08               	movlw	8
  2822   001D3C  6E13               	movwf	_pBDTEntryIn^0,c
  2823   001D3E  0E04               	movlw	4
  2824   001D40  6E14               	movwf	(_pBDTEntryIn+1)^0,c
  2825   001D42                     
  2826                           ;../source/usb/usb_device.c: 1962:     pBDTEntryEP0OutCurrent = (volatile BDT_ENTRY*)&BD
      +                          T[0];
  2827   001D42  0E00               	movlw	0
  2828   001D44  6E25               	movwf	_pBDTEntryEP0OutCurrent^0,c
  2829   001D46  0E04               	movlw	4
  2830   001D48  6E26               	movwf	(_pBDTEntryEP0OutCurrent+1)^0,c
  2831   001D4A                     
  2832                           ;../source/usb/usb_device.c: 1963:     pBDTEntryEP0OutNext = pBDTEntryEP0OutCurrent;
  2833   001D4A  C025  F023         	movff	_pBDTEntryEP0OutCurrent,_pBDTEntryEP0OutNext
  2834   001D4E  C026  F024         	movff	_pBDTEntryEP0OutCurrent+1,_pBDTEntryEP0OutNext+1
  2835   001D52                     
  2836                           ;../source/usb/usb_device.c: 1966:     USBActiveConfiguration = SetupPkt.bConfigurationV
      +                          alue;
  2837   001D52  C422 F039          	movff	1058,_USBActiveConfiguration	;volatile
  2838   001D56                     
  2839                           ;../source/usb/usb_device.c: 1969:     if(USBActiveConfiguration == 0)
  2840   001D56  5039               	movf	_USBActiveConfiguration^0,w,c
  2841   001D58  A4D8               	btfss	status,2,c
  2842   001D5A  EFB1  F00E         	goto	u1471
  2843   001D5E  EFB3  F00E         	goto	u1470
  2844   001D62                     u1471:
  2845   001D62  EFB7  F00E         	goto	l2843
  2846   001D66                     u1470:
  2847   001D66                     
  2848                           ;../source/usb/usb_device.c: 1970:     {;../source/usb/usb_device.c: 1972:         USBDe
      +                          viceState = ADDRESS_STATE;
  2849   001D66  0E10               	movlw	16
  2850   001D68  6E34               	movwf	_USBDeviceState^0,c
  2851                           
  2852                           ;../source/usb/usb_device.c: 1973:     }
  2853   001D6A  EFC7  F00E         	goto	l350
  2854   001D6E                     l2843:
  2855                           
  2856                           ;../source/usb/usb_device.c: 1975:     {;../source/usb/usb_device.c: 1977:         USER_
      +                          USB_CALLBACK_EVENT_HANDLER((USB_EVENT)EVENT_CONFIGURED,(void*)&USBActiveConfiguration,1)
      +                          ;
  2857   001D6E  0E00               	movlw	0
  2858   001D70  6E49               	movwf	(USER_USB_CALLBACK_EVENT_HANDLER@event+1)^0,c
  2859   001D72  0E01               	movlw	1
  2860   001D74  6E48               	movwf	USER_USB_CALLBACK_EVENT_HANDLER@event^0,c
  2861   001D76  0E39               	movlw	low _USBActiveConfiguration
  2862   001D78  6E4A               	movwf	USER_USB_CALLBACK_EVENT_HANDLER@pdata^0,c
  2863   001D7A  0E00               	movlw	high _USBActiveConfiguration
  2864   001D7C  6E4B               	movwf	(USER_USB_CALLBACK_EVENT_HANDLER@pdata+1)^0,c
  2865   001D7E  0E00               	movlw	0
  2866   001D80  6E4D               	movwf	(USER_USB_CALLBACK_EVENT_HANDLER@size+1)^0,c
  2867   001D82  0E01               	movlw	1
  2868   001D84  6E4C               	movwf	USER_USB_CALLBACK_EVENT_HANDLER@size^0,c
  2869   001D86  ECDE  F010         	call	_USER_USB_CALLBACK_EVENT_HANDLER	;wreg free
  2870   001D8A                     
  2871                           ;../source/usb/usb_device.c: 1982:         USBDeviceState = CONFIGURED_STATE;
  2872   001D8A  0E20               	movlw	32
  2873   001D8C  6E34               	movwf	_USBDeviceState^0,c
  2874   001D8E                     l350:
  2875   001D8E  0012               	return		;funcret
  2876   001D90                     __end_of_USBStdSetCfgHandler:
  2877                           	callstack 0
  2878                           
  2879 ;; *************** function _memset *****************
  2880 ;; Defined at:
  2881 ;;		line 4 in file "C:\Program Files\Microchip\xc8\v2.40\pic\sources\c99\common\memset.c"
  2882 ;; Parameters:    Size  Location     Type
  2883 ;;  dest            2    0[COMRAM] PTR void 
  2884 ;;		 -> USBAlternateInterface(1), BDT(32), UEP1(1), 
  2885 ;;  c               2    2[COMRAM] int 
  2886 ;;  n               2    4[COMRAM] unsigned int 
  2887 ;; Auto vars:     Size  Location     Type
  2888 ;;  s               2   10[COMRAM] PTR unsigned char 
  2889 ;;		 -> USBAlternateInterface(1), BDT(32), UEP1(1), 
  2890 ;;  k               2    8[COMRAM] unsigned int 
  2891 ;; Return value:  Size  Location     Type
  2892 ;;                  2    0[COMRAM] PTR void 
  2893 ;; Registers used:
  2894 ;;		wreg, fsr2l, fsr2h, status,2, status,0
  2895 ;; Tracked objects:
  2896 ;;		On entry : 0/0
  2897 ;;		On exit  : 0/0
  2898 ;;		Unchanged: 0/0
  2899 ;; Data sizes:     COMRAM   BANK0   BANK1   BANK2   BANK3   BANK4   BANK5   BANK6   BANK7
  2900 ;;      Params:         6       0       0       0       0       0       0       0       0
  2901 ;;      Locals:         4       0       0       0       0       0       0       0       0
  2902 ;;      Temps:          2       0       0       0       0       0       0       0       0
  2903 ;;      Totals:        12       0       0       0       0       0       0       0       0
  2904 ;;Total ram usage:       12 bytes
  2905 ;; Hardware stack levels used: 1
  2906 ;; Hardware stack levels required when called: 1
  2907 ;; This function calls:
  2908 ;;		Nothing
  2909 ;; This function is called by:
  2910 ;;		_USBDeviceInit
  2911 ;;		_USBStdSetCfgHandler
  2912 ;; This function uses a non-reentrant model
  2913 ;;
  2914                           
  2915                           	psect	text14
  2916   000E56                     __ptext14:
  2917                           	callstack 0
  2918   000E56                     _memset:
  2919                           	callstack 27
  2920   000E56  C03A  F044         	movff	memset@dest,memset@s
  2921   000E5A  C03B  F045         	movff	memset@dest+1,memset@s+1
  2922   000E5E  503E               	movf	memset@n^0,w,c
  2923   000E60  103F               	iorwf	(memset@n+1)^0,w,c
  2924   000E62  A4D8               	btfss	status,2,c
  2925   000E64  EF36  F007         	goto	u1411
  2926   000E68  EF38  F007         	goto	u1410
  2927   000E6C                     u1411:
  2928   000E6C  EF3A  F007         	goto	l2759
  2929   000E70                     u1410:
  2930   000E70  EFE5  F007         	goto	l1297
  2931   000E74                     l2759:
  2932   000E74  C044  FFD9         	movff	memset@s,fsr2l
  2933   000E78  C045  FFDA         	movff	memset@s+1,fsr2h
  2934   000E7C  C03C  FFDF         	movff	memset@c,indf2
  2935   000E80  503E               	movf	memset@n^0,w,c
  2936   000E82  2444               	addwf	memset@s^0,w,c
  2937   000E84  6E40               	movwf	??_memset^0,c
  2938   000E86  503F               	movf	(memset@n+1)^0,w,c
  2939   000E88  2045               	addwfc	(memset@s+1)^0,w,c
  2940   000E8A  6E41               	movwf	(??_memset+1)^0,c
  2941   000E8C  0EFF               	movlw	255
  2942   000E8E  2440               	addwf	??_memset^0,w,c
  2943   000E90  6ED9               	movwf	fsr2l,c
  2944   000E92  0EFF               	movlw	255
  2945   000E94  2041               	addwfc	(??_memset+1)^0,w,c
  2946   000E96  6EDA               	movwf	fsr2h,c
  2947   000E98  C03C  FFDF         	movff	memset@c,indf2
  2948   000E9C  503F               	movf	(memset@n+1)^0,w,c
  2949   000E9E  E107               	bnz	u1421
  2950   000EA0  0E03               	movlw	3
  2951   000EA2  5C3E               	subwf	memset@n^0,w,c
  2952   000EA4  B0D8               	btfsc	status,0,c
  2953   000EA6  EF57  F007         	goto	u1421
  2954   000EAA  EF59  F007         	goto	u1420
  2955   000EAE                     u1421:
  2956   000EAE  EF5B  F007         	goto	l2765
  2957   000EB2                     u1420:
  2958   000EB2  EFE5  F007         	goto	l1297
  2959   000EB6                     l2765:
  2960   000EB6  EE20 F001          	lfsr	2,1
  2961   000EBA  5044               	movf	memset@s^0,w,c
  2962   000EBC  26D9               	addwf	fsr2l,f,c
  2963   000EBE  5045               	movf	(memset@s+1)^0,w,c
  2964   000EC0  22DA               	addwfc	fsr2h,f,c
  2965   000EC2  C03C  FFDF         	movff	memset@c,indf2
  2966   000EC6  EE20 F002          	lfsr	2,2
  2967   000ECA  5044               	movf	memset@s^0,w,c
  2968   000ECC  26D9               	addwf	fsr2l,f,c
  2969   000ECE  5045               	movf	(memset@s+1)^0,w,c
  2970   000ED0  22DA               	addwfc	fsr2h,f,c
  2971   000ED2  C03C  FFDF         	movff	memset@c,indf2
  2972   000ED6  503E               	movf	memset@n^0,w,c
  2973   000ED8  2444               	addwf	memset@s^0,w,c
  2974   000EDA  6E40               	movwf	??_memset^0,c
  2975   000EDC  503F               	movf	(memset@n+1)^0,w,c
  2976   000EDE  2045               	addwfc	(memset@s+1)^0,w,c
  2977   000EE0  6E41               	movwf	(??_memset+1)^0,c
  2978   000EE2  0EFE               	movlw	254
  2979   000EE4  2440               	addwf	??_memset^0,w,c
  2980   000EE6  6ED9               	movwf	fsr2l,c
  2981   000EE8  0EFF               	movlw	255
  2982   000EEA  2041               	addwfc	(??_memset+1)^0,w,c
  2983   000EEC  6EDA               	movwf	fsr2h,c
  2984   000EEE  C03C  FFDF         	movff	memset@c,indf2
  2985   000EF2  503E               	movf	memset@n^0,w,c
  2986   000EF4  2444               	addwf	memset@s^0,w,c
  2987   000EF6  6E40               	movwf	??_memset^0,c
  2988   000EF8  503F               	movf	(memset@n+1)^0,w,c
  2989   000EFA  2045               	addwfc	(memset@s+1)^0,w,c
  2990   000EFC  6E41               	movwf	(??_memset+1)^0,c
  2991   000EFE  0EFD               	movlw	253
  2992   000F00  2440               	addwf	??_memset^0,w,c
  2993   000F02  6ED9               	movwf	fsr2l,c
  2994   000F04  0EFF               	movlw	255
  2995   000F06  2041               	addwfc	(??_memset+1)^0,w,c
  2996   000F08  6EDA               	movwf	fsr2h,c
  2997   000F0A  C03C  FFDF         	movff	memset@c,indf2
  2998   000F0E  503F               	movf	(memset@n+1)^0,w,c
  2999   000F10  E107               	bnz	u1431
  3000   000F12  0E07               	movlw	7
  3001   000F14  5C3E               	subwf	memset@n^0,w,c
  3002   000F16  B0D8               	btfsc	status,0,c
  3003   000F18  EF90  F007         	goto	u1431
  3004   000F1C  EF92  F007         	goto	u1430
  3005   000F20                     u1431:
  3006   000F20  EF94  F007         	goto	l2771
  3007   000F24                     u1430:
  3008   000F24  EFE5  F007         	goto	l1297
  3009   000F28                     l2771:
  3010   000F28  EE20 F003          	lfsr	2,3
  3011   000F2C  5044               	movf	memset@s^0,w,c
  3012   000F2E  26D9               	addwf	fsr2l,f,c
  3013   000F30  5045               	movf	(memset@s+1)^0,w,c
  3014   000F32  22DA               	addwfc	fsr2h,f,c
  3015   000F34  C03C  FFDF         	movff	memset@c,indf2
  3016   000F38  503E               	movf	memset@n^0,w,c
  3017   000F3A  2444               	addwf	memset@s^0,w,c
  3018   000F3C  6E40               	movwf	??_memset^0,c
  3019   000F3E  503F               	movf	(memset@n+1)^0,w,c
  3020   000F40  2045               	addwfc	(memset@s+1)^0,w,c
  3021   000F42  6E41               	movwf	(??_memset+1)^0,c
  3022   000F44  0EFC               	movlw	252
  3023   000F46  2440               	addwf	??_memset^0,w,c
  3024   000F48  6ED9               	movwf	fsr2l,c
  3025   000F4A  0EFF               	movlw	255
  3026   000F4C  2041               	addwfc	(??_memset+1)^0,w,c
  3027   000F4E  6EDA               	movwf	fsr2h,c
  3028   000F50  C03C  FFDF         	movff	memset@c,indf2
  3029   000F54  503F               	movf	(memset@n+1)^0,w,c
  3030   000F56  E107               	bnz	u1441
  3031   000F58  0E09               	movlw	9
  3032   000F5A  5C3E               	subwf	memset@n^0,w,c
  3033   000F5C  B0D8               	btfsc	status,0,c
  3034   000F5E  EFB3  F007         	goto	u1441
  3035   000F62  EFB5  F007         	goto	u1440
  3036   000F66                     u1441:
  3037   000F66  EFB7  F007         	goto	l2777
  3038   000F6A                     u1440:
  3039   000F6A  EFE5  F007         	goto	l1297
  3040   000F6E                     l2777:
  3041   000F6E  C044  F040         	movff	memset@s,??_memset
  3042   000F72  C045  F041         	movff	memset@s+1,??_memset+1
  3043   000F76  1E40               	comf	??_memset^0,f,c
  3044   000F78  1E41               	comf	(??_memset+1)^0,f,c
  3045   000F7A  4A40               	infsnz	??_memset^0,f,c
  3046   000F7C  2A41               	incf	(??_memset+1)^0,f,c
  3047   000F7E  0E03               	movlw	3
  3048   000F80  1440               	andwf	??_memset^0,w,c
  3049   000F82  6E42               	movwf	memset@k^0,c
  3050   000F84  6A43               	clrf	(memset@k+1)^0,c
  3051   000F86  5042               	movf	memset@k^0,w,c
  3052   000F88  2644               	addwf	memset@s^0,f,c
  3053   000F8A  5043               	movf	(memset@k+1)^0,w,c
  3054   000F8C  2245               	addwfc	(memset@s+1)^0,f,c
  3055   000F8E  5042               	movf	memset@k^0,w,c
  3056   000F90  5E3E               	subwf	memset@n^0,f,c
  3057   000F92  5043               	movf	(memset@k+1)^0,w,c
  3058   000F94  5A3F               	subwfb	(memset@n+1)^0,f,c
  3059   000F96  0EFC               	movlw	252
  3060   000F98  163E               	andwf	memset@n^0,f,c
  3061   000F9A  0EFF               	movlw	255
  3062   000F9C  163F               	andwf	(memset@n+1)^0,f,c
  3063   000F9E  EFDC  F007         	goto	l2785
  3064   000FA2                     l2779:
  3065   000FA2  C044  FFD9         	movff	memset@s,fsr2l
  3066   000FA6  C045  FFDA         	movff	memset@s+1,fsr2h
  3067   000FAA  C03C  FFDF         	movff	memset@c,indf2
  3068   000FAE  063E               	decf	memset@n^0,f,c
  3069   000FB0  A0D8               	btfss	status,0,c
  3070   000FB2  063F               	decf	(memset@n+1)^0,f,c
  3071   000FB4  4A44               	infsnz	memset@s^0,f,c
  3072   000FB6  2A45               	incf	(memset@s+1)^0,f,c
  3073   000FB8                     l2785:
  3074   000FB8  503E               	movf	memset@n^0,w,c
  3075   000FBA  103F               	iorwf	(memset@n+1)^0,w,c
  3076   000FBC  A4D8               	btfss	status,2,c
  3077   000FBE  EFE3  F007         	goto	u1451
  3078   000FC2  EFE5  F007         	goto	u1450
  3079   000FC6                     u1451:
  3080   000FC6  EFD1  F007         	goto	l2779
  3081   000FCA                     u1450:
  3082   000FCA                     l1297:
  3083   000FCA  0012               	return		;funcret
  3084   000FCC                     __end_of_memset:
  3085                           	callstack 0
  3086                           
  3087 ;; *************** function _USBStdGetStatusHandler *****************
  3088 ;; Defined at:
  3089 ;;		line 2089 in file "../source/usb/usb_device.c"
  3090 ;; Parameters:    Size  Location     Type
  3091 ;;		None
  3092 ;; Auto vars:     Size  Location     Type
  3093 ;;  p               2    2[COMRAM] PTR struct __BDT
  3094 ;;		 -> RAM(2047), NULL(0), BDT(32), 
  3095 ;; Return value:  Size  Location     Type
  3096 ;;                  1    wreg      void 
  3097 ;; Registers used:
  3098 ;;		wreg, fsr2l, fsr2h, status,2, status,0, prodl, prodh
  3099 ;; Tracked objects:
  3100 ;;		On entry : 0/0
  3101 ;;		On exit  : 0/0
  3102 ;;		Unchanged: 0/0
  3103 ;; Data sizes:     COMRAM   BANK0   BANK1   BANK2   BANK3   BANK4   BANK5   BANK6   BANK7
  3104 ;;      Params:         0       0       0       0       0       0       0       0       0
  3105 ;;      Locals:         2       0       0       0       0       0       0       0       0
  3106 ;;      Temps:          2       0       0       0       0       0       0       0       0
  3107 ;;      Totals:         4       0       0       0       0       0       0       0       0
  3108 ;;Total ram usage:        4 bytes
  3109 ;; Hardware stack levels used: 1
  3110 ;; Hardware stack levels required when called: 1
  3111 ;; This function calls:
  3112 ;;		Nothing
  3113 ;; This function is called by:
  3114 ;;		_USBCheckStdRequest
  3115 ;; This function uses a non-reentrant model
  3116 ;;
  3117                           
  3118                           	psect	text15
  3119   001782                     __ptext15:
  3120                           	callstack 0
  3121   001782                     _USBStdGetStatusHandler:
  3122                           	callstack 25
  3123   001782                     
  3124                           ;../source/usb/usb_device.c: 2091:     CtrlTrfData[0] = 0;
  3125   001782  0E00               	movlw	0
  3126   001784  0104               	movlb	4	; () banked
  3127   001786  6F28               	movwf	40,b	;volatile
  3128                           
  3129                           ;../source/usb/usb_device.c: 2092:     CtrlTrfData[1] = 0;
  3130   001788  0E00               	movlw	0
  3131   00178A  6F29               	movwf	41,b	;volatile
  3132                           
  3133                           ;../source/usb/usb_device.c: 2094:     switch(SetupPkt.Recipient)
  3134   00178C  EF23  F00C         	goto	l1705
  3135   001790                     l368:
  3136                           
  3137                           ; BSR set to: 4
  3138                           ;../source/usb/usb_device.c: 2097:             inPipes[0].info.bits.busy = 1;
  3139   001790  8E0C               	bsf	(_inPipes+3)^0,7,c
  3140   001792                     
  3141                           ; BSR set to: 4
  3142                           ;../source/usb/usb_device.c: 2107:             if(RemoteWakeup == 1)
  3143   001792  0431               	decf	_RemoteWakeup^0,w,c
  3144   001794  A4D8               	btfss	status,2,c
  3145   001796  EFCF  F00B         	goto	u371
  3146   00179A  EFD1  F00B         	goto	u370
  3147   00179E                     u371:
  3148   00179E  EF3D  F00C         	goto	l371
  3149   0017A2                     u370:
  3150   0017A2                     
  3151                           ; BSR set to: 4
  3152                           ;../source/usb/usb_device.c: 2108:             {;../source/usb/usb_device.c: 2109:      
      +                                     CtrlTrfData[0]|=0x02;
  3153   0017A2  8328               	bsf	40,1,b	;volatile
  3154   0017A4  EF3D  F00C         	goto	l371
  3155   0017A8                     l372:
  3156                           
  3157                           ; BSR set to: 4
  3158                           ;../source/usb/usb_device.c: 2113:             inPipes[0].info.bits.busy = 1;
  3159   0017A8  8E0C               	bsf	(_inPipes+3)^0,7,c
  3160                           
  3161                           ;../source/usb/usb_device.c: 2114:             break;
  3162   0017AA  EF3D  F00C         	goto	l371
  3163   0017AE                     l373:
  3164                           
  3165                           ; BSR set to: 4
  3166                           ;../source/usb/usb_device.c: 2116:             inPipes[0].info.bits.busy = 1;
  3167   0017AE  8E0C               	bsf	(_inPipes+3)^0,7,c
  3168   0017B0                     
  3169                           ; BSR set to: 4
  3170                           ;../source/usb/usb_device.c: 2120:             if(SetupPkt.EPNum != 0)
  3171   0017B0  5124               	movf	36,w,b	;volatile
  3172   0017B2  0B0F               	andlw	15
  3173   0017B4  0900               	iorlw	0
  3174   0017B6  B4D8               	btfsc	status,2,c
  3175   0017B8  EFE0  F00B         	goto	u381
  3176   0017BC  EFE2  F00B         	goto	u380
  3177   0017C0                     u381:
  3178   0017C0  EF3D  F00C         	goto	l371
  3179   0017C4                     u380:
  3180   0017C4                     
  3181                           ; BSR set to: 4
  3182                           ;../source/usb/usb_device.c: 2121:             {;../source/usb/usb_device.c: 2122:      
      +                                     BDT_ENTRY *p;;../source/usb/usb_device.c: 2124:                 if(SetupPkt.E
      +                          PDir == 0)
  3183   0017C4  BF24               	btfsc	36,7,b	;volatile
  3184   0017C6  EFE7  F00B         	goto	u391
  3185   0017CA  EFE9  F00B         	goto	u390
  3186   0017CE                     u391:
  3187   0017CE  EFFA  F00B         	goto	l1695
  3188   0017D2                     u390:
  3189   0017D2                     
  3190                           ; BSR set to: 4
  3191                           ;../source/usb/usb_device.c: 2125:                 {;../source/usb/usb_device.c: 2126:  
      +                                             p = (BDT_ENTRY*)pBDTEntryOut[SetupPkt.EPNum];
  3192   0017D2  5124               	movf	36,w,b	;volatile
  3193   0017D4  0B0F               	andlw	15
  3194   0017D6  6E3A               	movwf	??_USBStdGetStatusHandler^0,c
  3195   0017D8  503A               	movf	??_USBStdGetStatusHandler^0,w,c
  3196   0017DA  0D02               	mullw	2
  3197   0017DC  0E17               	movlw	low _pBDTEntryOut
  3198   0017DE  24F3               	addwf	243,w,c
  3199   0017E0  6ED9               	movwf	fsr2l,c
  3200   0017E2  0E00               	movlw	high _pBDTEntryOut
  3201   0017E4  20F4               	addwfc	prodh,w,c
  3202   0017E6  6EDA               	movwf	fsr2h,c
  3203   0017E8  CFDE F03C          	movff	postinc2,USBStdGetStatusHandler@p
  3204   0017EC  CFDD F03D          	movff	postdec2,USBStdGetStatusHandler@p+1
  3205                           
  3206                           ;../source/usb/usb_device.c: 2127:                 }
  3207   0017F0  EF09  F00C         	goto	l1697
  3208   0017F4                     l1695:
  3209                           
  3210                           ; BSR set to: 4
  3211                           ;../source/usb/usb_device.c: 2129:                 {;../source/usb/usb_device.c: 2130:  
      +                                             p = (BDT_ENTRY*)pBDTEntryIn[SetupPkt.EPNum];
  3212   0017F4  5124               	movf	36,w,b	;volatile
  3213   0017F6  0B0F               	andlw	15
  3214   0017F8  6E3A               	movwf	??_USBStdGetStatusHandler^0,c
  3215   0017FA  503A               	movf	??_USBStdGetStatusHandler^0,w,c
  3216   0017FC  0D02               	mullw	2
  3217   0017FE  0E13               	movlw	low _pBDTEntryIn
  3218   001800  24F3               	addwf	243,w,c
  3219   001802  6ED9               	movwf	fsr2l,c
  3220   001804  0E00               	movlw	high _pBDTEntryIn
  3221   001806  20F4               	addwfc	prodh,w,c
  3222   001808  6EDA               	movwf	fsr2h,c
  3223   00180A  CFDE F03C          	movff	postinc2,USBStdGetStatusHandler@p
  3224   00180E  CFDD F03D          	movff	postdec2,USBStdGetStatusHandler@p+1
  3225   001812                     l1697:
  3226                           
  3227                           ; BSR set to: 4
  3228                           ;../source/usb/usb_device.c: 2133:                 if((p->STAT.UOWN == 1) && (p->STAT.BS
      +                          TALL == 1))
  3229   001812  C03C  FFD9         	movff	USBStdGetStatusHandler@p,fsr2l
  3230   001816  C03D  FFDA         	movff	USBStdGetStatusHandler@p+1,fsr2h
  3231   00181A  AEDF               	btfss	indf2,7,c
  3232   00181C  EF12  F00C         	goto	u401
  3233   001820  EF14  F00C         	goto	u400
  3234   001824                     u401:
  3235   001824  EF3D  F00C         	goto	l371
  3236   001828                     u400:
  3237   001828                     
  3238                           ; BSR set to: 4
  3239   001828  C03C  FFD9         	movff	USBStdGetStatusHandler@p,fsr2l
  3240   00182C  C03D  FFDA         	movff	USBStdGetStatusHandler@p+1,fsr2h
  3241   001830  A4DF               	btfss	indf2,2,c
  3242   001832  EF1D  F00C         	goto	u411
  3243   001836  EF1F  F00C         	goto	u410
  3244   00183A                     u411:
  3245   00183A  EF3D  F00C         	goto	l371
  3246   00183E                     u410:
  3247   00183E                     
  3248                           ; BSR set to: 4
  3249                           ;../source/usb/usb_device.c: 2134:                 {;../source/usb/usb_device.c: 2135:  
      +                                             CtrlTrfData[0]=0x01;
  3250   00183E  0E01               	movlw	1
  3251   001840  6F28               	movwf	40,b	;volatile
  3252   001842  EF3D  F00C         	goto	l371
  3253   001846                     l1705:
  3254                           
  3255                           ; BSR set to: 4
  3256   001846  5120               	movf	32,w,b	;volatile
  3257   001848  0B1F               	andlw	31
  3258   00184A  6E3A               	movwf	??_USBStdGetStatusHandler^0,c
  3259   00184C  6A3B               	clrf	(??_USBStdGetStatusHandler+1)^0,c
  3260                           
  3261                           ; Switch on 2 bytes has been partitioned into a top level switch of size 1, and 1 sub-sw
      +                          itches
  3262                           ; Switch size 1, requested type "simple"
  3263                           ; Number of cases is 1, Range of values is 0 to 0
  3264                           ; switch strategies available:
  3265                           ; Name         Instructions Cycles
  3266                           ; simple_byte            4     3 (average)
  3267                           ;	Chosen strategy is simple_byte
  3268   00184E  503B               	movf	(??_USBStdGetStatusHandler+1)^0,w,c
  3269   001850  0A00               	xorlw	0	; case 0
  3270   001852  B4D8               	btfsc	status,2,c
  3271   001854  EF2E  F00C         	goto	l3635
  3272   001858  EF3D  F00C         	goto	l371
  3273   00185C                     l3635:
  3274                           
  3275                           ; BSR set to: 4
  3276                           ; Switch size 1, requested type "simple"
  3277                           ; Number of cases is 3, Range of values is 0 to 2
  3278                           ; switch strategies available:
  3279                           ; Name         Instructions Cycles
  3280                           ; simple_byte           10     6 (average)
  3281                           ;	Chosen strategy is simple_byte
  3282   00185C  503A               	movf	??_USBStdGetStatusHandler^0,w,c
  3283   00185E  0A00               	xorlw	0	; case 0
  3284   001860  B4D8               	btfsc	status,2,c
  3285   001862  EFC8  F00B         	goto	l368
  3286   001866  0A01               	xorlw	1	; case 1
  3287   001868  B4D8               	btfsc	status,2,c
  3288   00186A  EFD4  F00B         	goto	l372
  3289   00186E  0A03               	xorlw	3	; case 2
  3290   001870  B4D8               	btfsc	status,2,c
  3291   001872  EFD7  F00B         	goto	l373
  3292   001876  EF3D  F00C         	goto	l371
  3293   00187A                     l371:
  3294                           
  3295                           ; BSR set to: 4
  3296                           ;../source/usb/usb_device.c: 2141:     if(inPipes[0].info.bits.busy == 1)
  3297   00187A  AE0C               	btfss	(_inPipes+3)^0,7,c
  3298   00187C  EF42  F00C         	goto	u421
  3299   001880  EF44  F00C         	goto	u420
  3300   001884                     u421:
  3301   001884  EF4B  F00C         	goto	l379
  3302   001888                     u420:
  3303   001888                     
  3304                           ; BSR set to: 4
  3305                           ;../source/usb/usb_device.c: 2142:     {;../source/usb/usb_device.c: 2143:         inPip
      +                          es[0].pSrc.bRam = (uint8_t*)&CtrlTrfData;
  3306   001888  0E28               	movlw	40
  3307   00188A  6E09               	movwf	_inPipes^0,c
  3308   00188C  0E04               	movlw	4
  3309   00188E  6E0A               	movwf	(_inPipes+1)^0,c
  3310   001890                     
  3311                           ; BSR set to: 4
  3312                           ;../source/usb/usb_device.c: 2144:         inPipes[0].info.bits.ctrl_trf_mem = 0x01;
  3313   001890  800C               	bsf	(_inPipes+3)^0,0,c
  3314   001892                     
  3315                           ; BSR set to: 4
  3316                           ;../source/usb/usb_device.c: 2145:         inPipes[0].wCount.v[0] = 2;
  3317   001892  0E02               	movlw	2
  3318   001894  6E0D               	movwf	(_inPipes+4)^0,c
  3319   001896                     l379:
  3320                           
  3321                           ; BSR set to: 4
  3322   001896  0012               	return		;funcret
  3323   001898                     __end_of_USBStdGetStatusHandler:
  3324                           	callstack 0
  3325                           
  3326 ;; *************** function _USBStdGetDscHandler *****************
  3327 ;; Defined at:
  3328 ;;		line 2003 in file "../source/usb/usb_device.c"
  3329 ;; Parameters:    Size  Location     Type
  3330 ;;		None
  3331 ;; Auto vars:     Size  Location     Type
  3332 ;;		None
  3333 ;; Return value:  Size  Location     Type
  3334 ;;                  1    wreg      void 
  3335 ;; Registers used:
  3336 ;;		wreg, fsr1l, fsr1h, status,2, status,0, tblptrl, tblptrh, tblptru, prodl, prodh
  3337 ;; Tracked objects:
  3338 ;;		On entry : 0/0
  3339 ;;		On exit  : 0/0
  3340 ;;		Unchanged: 0/0
  3341 ;; Data sizes:     COMRAM   BANK0   BANK1   BANK2   BANK3   BANK4   BANK5   BANK6   BANK7
  3342 ;;      Params:         0       0       0       0       0       0       0       0       0
  3343 ;;      Locals:         0       0       0       0       0       0       0       0       0
  3344 ;;      Temps:          2       0       0       0       0       0       0       0       0
  3345 ;;      Totals:         2       0       0       0       0       0       0       0       0
  3346 ;;Total ram usage:        2 bytes
  3347 ;; Hardware stack levels used: 1
  3348 ;; Hardware stack levels required when called: 1
  3349 ;; This function calls:
  3350 ;;		Nothing
  3351 ;; This function is called by:
  3352 ;;		_USBCheckStdRequest
  3353 ;; This function uses a non-reentrant model
  3354 ;;
  3355                           
  3356                           	psect	text16
  3357   00112C                     __ptext16:
  3358                           	callstack 0
  3359   00112C                     _USBStdGetDscHandler:
  3360                           	callstack 25
  3361   00112C                     
  3362                           ;../source/usb/usb_device.c: 2005:     if(SetupPkt.bmRequestType == 0x80)
  3363   00112C  0E80               	movlw	128
  3364   00112E  0104               	movlb	4	; () banked
  3365   001130  1920               	xorwf	32,w,b	;volatile
  3366   001132  A4D8               	btfss	status,2,c
  3367   001134  EF9E  F008         	goto	u311
  3368   001138  EFA0  F008         	goto	u310
  3369   00113C                     u311:
  3370   00113C  EF3D  F009         	goto	l364
  3371   001140                     u310:
  3372   001140                     
  3373                           ; BSR set to: 4
  3374                           ;../source/usb/usb_device.c: 2006:     {;../source/usb/usb_device.c: 2007:         inPip
      +                          es[0].info.Val = 0x00 | 0x80 | 0x40;
  3375   001140  0EC0               	movlw	192
  3376   001142  6E0C               	movwf	(_inPipes+3)^0,c
  3377                           
  3378                           ;../source/usb/usb_device.c: 2009:         switch(SetupPkt.bDescriptorType)
  3379   001144  EF24  F009         	goto	l1673
  3380   001148                     l1647:
  3381                           
  3382                           ; BSR set to: 4
  3383                           ;../source/usb/usb_device.c: 2015:                     inPipes[0].pSrc.bRom = (const uin
      +                          t8_t*)&device_dsc;
  3384   001148  0E90               	movlw	low _device_dsc
  3385   00114A  6E09               	movwf	_inPipes^0,c
  3386   00114C  0E08               	movlw	high _device_dsc
  3387   00114E  6E0A               	movwf	(_inPipes+1)^0,c
  3388   001150                     
  3389                           ; BSR set to: 4
  3390                           ;../source/usb/usb_device.c: 2017:                 inPipes[0].wCount.Val = sizeof(device
      +                          _dsc);
  3391   001150  0E00               	movlw	0
  3392   001152  6E0E               	movwf	(_inPipes+5)^0,c
  3393   001154  0E12               	movlw	18
  3394   001156  6E0D               	movwf	(_inPipes+4)^0,c
  3395                           
  3396                           ;../source/usb/usb_device.c: 2018:                 break;
  3397   001158  EF3D  F009         	goto	l364
  3398   00115C                     l1651:
  3399                           
  3400                           ; BSR set to: 4
  3401                           ;../source/usb/usb_device.c: 2023:                 if(SetupPkt.bDscIndex < 1)
  3402   00115C  5122               	movf	34,w,b	;volatile
  3403   00115E  A4D8               	btfss	status,2,c
  3404   001160  EFB4  F008         	goto	u321
  3405   001164  EFB6  F008         	goto	u320
  3406   001168                     u321:
  3407   001168  EFF4  F008         	goto	l1659
  3408   00116C                     u320:
  3409   00116C                     
  3410                           ; BSR set to: 4
  3411                           ;../source/usb/usb_device.c: 2024:                 {;../source/usb/usb_device.c: 2028:  
      +                                                 inPipes[0].pSrc.bRom = *(USB_CD_Ptr+SetupPkt.bDscIndex);
  3412   00116C  5122               	movf	34,w,b	;volatile
  3413   00116E  0D02               	mullw	2
  3414   001170  0E07               	movlw	low _USB_CD_Ptr
  3415   001172  24F3               	addwf	243,w,c
  3416   001174  6EF6               	movwf	tblptrl,c
  3417   001176  0E08               	movlw	high _USB_CD_Ptr
  3418   001178  20F4               	addwfc	244,w,c
  3419   00117A  6EF7               	movwf	tblptrh,c
  3420   00117C                     	if	0	;There are less than 3 active tblptr bytes
  3421   00117C                     	endif
  3422   00117C  0009               	tblrd		*+
  3423   00117E  CFF5 F009          	movff	tablat,_inPipes
  3424   001182  000A               	tblrd		*-
  3425   001184  CFF5 F00A          	movff	tablat,_inPipes+1
  3426   001188                     
  3427                           ; BSR set to: 4
  3428                           ;../source/usb/usb_device.c: 2034:                     inPipes[0].wCount.byte.LB = *(inP
      +                          ipes[0].pSrc.bRom+2);
  3429   001188  0E02               	movlw	2
  3430   00118A  2409               	addwf	_inPipes^0,w,c
  3431   00118C  6E3A               	movwf	??_USBStdGetDscHandler^0,c
  3432   00118E  0E00               	movlw	0
  3433   001190  200A               	addwfc	(_inPipes+1)^0,w,c
  3434   001192  6E3B               	movwf	(??_USBStdGetDscHandler+1)^0,c
  3435   001194  C03A  FFF6         	movff	??_USBStdGetDscHandler,tblptrl
  3436   001198  C03B  FFF7         	movff	??_USBStdGetDscHandler+1,tblptrh
  3437   00119C  6AF8               	clrf	tblptru,c
  3438   00119E  0E07               	movlw	(high __ramtop+-1)
  3439   0011A0  64F7               	cpfsgt	tblptrh,c
  3440   0011A2  D003               	bra	u337
  3441   0011A4  0008               	tblrd		*
  3442   0011A6  50F5               	movf	tablat,w,c
  3443   0011A8  D005               	bra	u330
  3444   0011AA                     u337:
  3445   0011AA  CFF6 FFE1          	movff	tblptrl,fsr1l
  3446   0011AE  CFF7 FFE2          	movff	tblptrh,fsr1h
  3447   0011B2  50E7               	movf	indf1,w,c
  3448   0011B4                     u330:
  3449   0011B4  6E0D               	movwf	(_inPipes+4)^0,c
  3450   0011B6                     
  3451                           ;../source/usb/usb_device.c: 2035:                     inPipes[0].wCount.byte.HB = *(inP
      +                          ipes[0].pSrc.bRom+3);
  3452   0011B6  0E03               	movlw	3
  3453   0011B8  2409               	addwf	_inPipes^0,w,c
  3454   0011BA  6E3A               	movwf	??_USBStdGetDscHandler^0,c
  3455   0011BC  0E00               	movlw	0
  3456   0011BE  200A               	addwfc	(_inPipes+1)^0,w,c
  3457   0011C0  6E3B               	movwf	(??_USBStdGetDscHandler+1)^0,c
  3458   0011C2  C03A  FFF6         	movff	??_USBStdGetDscHandler,tblptrl
  3459   0011C6  C03B  FFF7         	movff	??_USBStdGetDscHandler+1,tblptrh
  3460   0011CA  6AF8               	clrf	tblptru,c
  3461   0011CC  0E07               	movlw	(high __ramtop+-1)
  3462   0011CE  64F7               	cpfsgt	tblptrh,c
  3463   0011D0  D003               	bra	u347
  3464   0011D2  0008               	tblrd		*
  3465   0011D4  50F5               	movf	tablat,w,c
  3466   0011D6  D005               	bra	u340
  3467   0011D8                     u347:
  3468   0011D8  CFF6 FFE1          	movff	tblptrl,fsr1l
  3469   0011DC  CFF7 FFE2          	movff	tblptrh,fsr1h
  3470   0011E0  50E7               	movf	indf1,w,c
  3471   0011E2                     u340:
  3472   0011E2  6E0E               	movwf	(_inPipes+5)^0,c
  3473                           
  3474                           ;../source/usb/usb_device.c: 2036:                 }
  3475   0011E4  EF3D  F009         	goto	l364
  3476   0011E8                     l1659:
  3477                           
  3478                           ; BSR set to: 4
  3479                           ;../source/usb/usb_device.c: 2038:     {;../source/usb/usb_device.c: 2039:      inPipes[
      +                          0].info.Val = 0;
  3480   0011E8  0E00               	movlw	0
  3481   0011EA  6E0C               	movwf	(_inPipes+3)^0,c
  3482   0011EC  EF3D  F009         	goto	l364
  3483   0011F0                     l1661:
  3484                           
  3485                           ; BSR set to: 4
  3486                           ;../source/usb/usb_device.c: 2046:                 if(SetupPkt.bDscIndex<3)
  3487   0011F0  0E03               	movlw	3
  3488   0011F2  6122               	cpfslt	34,b	;volatile
  3489   0011F4  EFFE  F008         	goto	u351
  3490   0011F8  EF00  F009         	goto	u350
  3491   0011FC                     u351:
  3492   0011FC  EFF4  F008         	goto	l1659
  3493   001200                     u350:
  3494   001200                     
  3495                           ; BSR set to: 4
  3496                           ;../source/usb/usb_device.c: 2047:                 {;../source/usb/usb_device.c: 2049:  
      +                                             inPipes[0].pSrc.bRom = *(USB_SD_Ptr+SetupPkt.bDscIndex);
  3497   001200  5122               	movf	34,w,b	;volatile
  3498   001202  0D02               	mullw	2
  3499   001204  0E01               	movlw	low _USB_SD_Ptr
  3500   001206  24F3               	addwf	243,w,c
  3501   001208  6EF6               	movwf	tblptrl,c
  3502   00120A  0E08               	movlw	high _USB_SD_Ptr
  3503   00120C  20F4               	addwfc	244,w,c
  3504   00120E  6EF7               	movwf	tblptrh,c
  3505   001210                     	if	0	;There are less than 3 active tblptr bytes
  3506   001210                     	endif
  3507   001210  0009               	tblrd		*+
  3508   001212  CFF5 F009          	movff	tablat,_inPipes
  3509   001216  000A               	tblrd		*-
  3510   001218  CFF5 F00A          	movff	tablat,_inPipes+1
  3511   00121C                     
  3512                           ; BSR set to: 4
  3513                           ;../source/usb/usb_device.c: 2051:                     inPipes[0].wCount.Val = *inPipes[
      +                          0].pSrc.bRom;
  3514   00121C  C009  FFF6         	movff	_inPipes,tblptrl
  3515   001220  C00A  FFF7         	movff	_inPipes+1,tblptrh
  3516   001224  6AF8               	clrf	tblptru,c
  3517   001226  0E07               	movlw	(high __ramtop+-1)
  3518   001228  64F7               	cpfsgt	tblptrh,c
  3519   00122A  D003               	bra	u367
  3520   00122C  0008               	tblrd		*
  3521   00122E  50F5               	movf	tablat,w,c
  3522   001230  D005               	bra	u360
  3523   001232                     u367:
  3524   001232  CFF6 FFE1          	movff	tblptrl,fsr1l
  3525   001236  CFF7 FFE2          	movff	tblptrh,fsr1h
  3526   00123A  50E7               	movf	indf1,w,c
  3527   00123C                     u360:
  3528   00123C  6E3A               	movwf	??_USBStdGetDscHandler^0,c
  3529   00123E  503A               	movf	??_USBStdGetDscHandler^0,w,c
  3530   001240  6E0D               	movwf	(_inPipes+4)^0,c
  3531   001242  6A0E               	clrf	(_inPipes+5)^0,c
  3532                           
  3533                           ;../source/usb/usb_device.c: 2052:                 }
  3534   001244  EF3D  F009         	goto	l364
  3535   001248                     l1673:
  3536                           
  3537                           ; BSR set to: 4
  3538   001248  5123               	movf	35,w,b	;volatile
  3539   00124A  6E3A               	movwf	??_USBStdGetDscHandler^0,c
  3540   00124C  6A3B               	clrf	(??_USBStdGetDscHandler+1)^0,c
  3541                           
  3542                           ; Switch on 2 bytes has been partitioned into a top level switch of size 1, and 1 sub-sw
      +                          itches
  3543                           ; Switch size 1, requested type "simple"
  3544                           ; Number of cases is 1, Range of values is 0 to 0
  3545                           ; switch strategies available:
  3546                           ; Name         Instructions Cycles
  3547                           ; simple_byte            4     3 (average)
  3548                           ;	Chosen strategy is simple_byte
  3549   00124E  503B               	movf	(??_USBStdGetDscHandler+1)^0,w,c
  3550   001250  0A00               	xorlw	0	; case 0
  3551   001252  B4D8               	btfsc	status,2,c
  3552   001254  EF2E  F009         	goto	l3637
  3553   001258  EFF4  F008         	goto	l1659
  3554   00125C                     l3637:
  3555                           
  3556                           ; BSR set to: 4
  3557                           ; Switch size 1, requested type "simple"
  3558                           ; Number of cases is 3, Range of values is 1 to 3
  3559                           ; switch strategies available:
  3560                           ; Name         Instructions Cycles
  3561                           ; simple_byte           10     6 (average)
  3562                           ;	Chosen strategy is simple_byte
  3563   00125C  503A               	movf	??_USBStdGetDscHandler^0,w,c
  3564   00125E  0A01               	xorlw	1	; case 1
  3565   001260  B4D8               	btfsc	status,2,c
  3566   001262  EFA4  F008         	goto	l1647
  3567   001266  0A03               	xorlw	3	; case 2
  3568   001268  B4D8               	btfsc	status,2,c
  3569   00126A  EFAE  F008         	goto	l1651
  3570   00126E  0A01               	xorlw	1	; case 3
  3571   001270  B4D8               	btfsc	status,2,c
  3572   001272  EFF8  F008         	goto	l1661
  3573   001276  EFF4  F008         	goto	l1659
  3574   00127A                     l364:
  3575   00127A  0012               	return		;funcret
  3576   00127C                     __end_of_USBStdGetDscHandler:
  3577                           	callstack 0
  3578                           
  3579 ;; *************** function _USBStdFeatureReqHandler *****************
  3580 ;; Defined at:
  3581 ;;		line 2717 in file "../source/usb/usb_device.c"
  3582 ;; Parameters:    Size  Location     Type
  3583 ;;		None
  3584 ;; Auto vars:     Size  Location     Type
  3585 ;;  p               2   27[COMRAM] PTR struct __BDT
  3586 ;;		 -> RAM(2047), NULL(0), BDT(32), 
  3587 ;;  pUEP            2   24[COMRAM] PTR unsigned char 
  3588 ;;		 -> UEP0(1), 
  3589 ;;  current_ep_d    1   26[COMRAM] struct .
  3590 ;; Return value:  Size  Location     Type
  3591 ;;                  1    wreg      void 
  3592 ;; Registers used:
  3593 ;;		wreg, fsr2l, fsr2h, status,2, status,0, prodl, prodh, cstack
  3594 ;; Tracked objects:
  3595 ;;		On entry : 0/0
  3596 ;;		On exit  : 0/0
  3597 ;;		Unchanged: 0/0
  3598 ;; Data sizes:     COMRAM   BANK0   BANK1   BANK2   BANK3   BANK4   BANK5   BANK6   BANK7
  3599 ;;      Params:         0       0       0       0       0       0       0       0       0
  3600 ;;      Locals:         5       0       0       0       0       0       0       0       0
  3601 ;;      Temps:          2       0       0       0       0       0       0       0       0
  3602 ;;      Totals:         7       0       0       0       0       0       0       0       0
  3603 ;;Total ram usage:        7 bytes
  3604 ;; Hardware stack levels used: 1
  3605 ;; Hardware stack levels required when called: 5
  3606 ;; This function calls:
  3607 ;;		_USER_USB_CALLBACK_EVENT_HANDLER
  3608 ;; This function is called by:
  3609 ;;		_USBCheckStdRequest
  3610 ;; This function uses a non-reentrant model
  3611 ;;
  3612                           
  3613                           	psect	text17
  3614   0008A8                     __ptext17:
  3615                           	callstack 0
  3616   0008A8                     _USBStdFeatureReqHandler:
  3617                           	callstack 21
  3618   0008A8                     
  3619                           ;../source/usb/usb_device.c: 2719:     BDT_ENTRY *p;;../source/usb/usb_device.c: 2720:  
      +                             EP_STATUS current_ep_data;;../source/usb/usb_device.c: 2724:         unsigned char* p
      +                          UEP;;../source/usb/usb_device.c: 2728:     if((SetupPkt.bFeature == 1)&&
  3620   0008A8  0104               	movlb	4	; () banked
  3621   0008AA  0522               	decf	34,w,b	;volatile
  3622   0008AC  A4D8               	btfss	status,2,c
  3623   0008AE  EF5B  F004         	goto	u1481
  3624   0008B2  EF5D  F004         	goto	u1480
  3625   0008B6                     u1481:
  3626   0008B6  EF77  F004         	goto	l446
  3627   0008BA                     u1480:
  3628   0008BA                     
  3629                           ; BSR set to: 4
  3630   0008BA  5120               	movf	32,w,b	;volatile
  3631   0008BC  0B1F               	andlw	31
  3632   0008BE  0900               	iorlw	0
  3633   0008C0  A4D8               	btfss	status,2,c
  3634   0008C2  EF65  F004         	goto	u1491
  3635   0008C6  EF67  F004         	goto	u1490
  3636   0008CA                     u1491:
  3637   0008CA  EF77  F004         	goto	l446
  3638   0008CE                     u1490:
  3639   0008CE                     
  3640                           ; BSR set to: 4
  3641                           ;../source/usb/usb_device.c: 2730:     {;../source/usb/usb_device.c: 2731:         inPip
      +                          es[0].info.bits.busy = 1;
  3642   0008CE  8E0C               	bsf	(_inPipes+3)^0,7,c
  3643   0008D0                     
  3644                           ; BSR set to: 4
  3645                           ;../source/usb/usb_device.c: 2732:         if(SetupPkt.bRequest == 3)
  3646   0008D0  0E03               	movlw	3
  3647   0008D2  1921               	xorwf	33,w,b	;volatile
  3648   0008D4  A4D8               	btfss	status,2,c
  3649   0008D6  EF6F  F004         	goto	u1501
  3650   0008DA  EF71  F004         	goto	u1500
  3651   0008DE                     u1501:
  3652   0008DE  EF75  F004         	goto	l2857
  3653   0008E2                     u1500:
  3654   0008E2                     
  3655                           ; BSR set to: 4
  3656                           ;../source/usb/usb_device.c: 2733:             RemoteWakeup = 1;
  3657   0008E2  0E01               	movlw	1
  3658   0008E4  6E31               	movwf	_RemoteWakeup^0,c
  3659   0008E6  EF77  F004         	goto	l446
  3660   0008EA                     l2857:
  3661                           
  3662                           ; BSR set to: 4
  3663                           ;../source/usb/usb_device.c: 2735:             RemoteWakeup = 0;
  3664   0008EA  0E00               	movlw	0
  3665   0008EC  6E31               	movwf	_RemoteWakeup^0,c
  3666   0008EE                     l446:
  3667                           
  3668                           ; BSR set to: 4
  3669                           ;../source/usb/usb_device.c: 2739:     if((SetupPkt.bFeature == 0)&&
  3670   0008EE  5122               	movf	34,w,b	;volatile
  3671   0008F0  A4D8               	btfss	status,2,c
  3672   0008F2  EF7D  F004         	goto	u1511
  3673   0008F6  EF7F  F004         	goto	u1510
  3674   0008FA                     u1511:
  3675   0008FA  EFF9  F005         	goto	l469
  3676   0008FE                     u1510:
  3677   0008FE                     
  3678                           ; BSR set to: 4
  3679   0008FE  5120               	movf	32,w,b	;volatile
  3680   000900  0B1F               	andlw	31
  3681   000902  0A02               	xorlw	2
  3682   000904  A4D8               	btfss	status,2,c
  3683   000906  EF87  F004         	goto	u1521
  3684   00090A  EF89  F004         	goto	u1520
  3685   00090E                     u1521:
  3686   00090E  EFF9  F005         	goto	l469
  3687   000912                     u1520:
  3688   000912                     
  3689                           ; BSR set to: 4
  3690   000912  5124               	movf	36,w,b	;volatile
  3691   000914  0B0F               	andlw	15
  3692   000916  0900               	iorlw	0
  3693   000918  B4D8               	btfsc	status,2,c
  3694   00091A  EF91  F004         	goto	u1531
  3695   00091E  EF93  F004         	goto	u1530
  3696   000922                     u1531:
  3697   000922  EFF9  F005         	goto	l469
  3698   000926                     u1530:
  3699   000926                     
  3700                           ; BSR set to: 4
  3701   000926  5124               	movf	36,w,b	;volatile
  3702   000928  0B0F               	andlw	15
  3703   00092A  6E50               	movwf	??_USBStdFeatureReqHandler^0,c
  3704   00092C  0E02               	movlw	2
  3705   00092E  6050               	cpfslt	??_USBStdFeatureReqHandler^0,c
  3706   000930  EF9C  F004         	goto	u1541
  3707   000934  EF9E  F004         	goto	u1540
  3708   000938                     u1541:
  3709   000938  EFF9  F005         	goto	l469
  3710   00093C                     u1540:
  3711   00093C                     
  3712                           ; BSR set to: 4
  3713   00093C  0E20               	movlw	32
  3714   00093E  1834               	xorwf	_USBDeviceState^0,w,c
  3715   000940  A4D8               	btfss	status,2,c
  3716   000942  EFA5  F004         	goto	u1551
  3717   000946  EFA7  F004         	goto	u1550
  3718   00094A                     u1551:
  3719   00094A  EFF9  F005         	goto	l469
  3720   00094E                     u1550:
  3721   00094E                     
  3722                           ; BSR set to: 4
  3723                           ;../source/usb/usb_device.c: 2743:     {;../source/usb/usb_device.c: 2746:   inPipes[0].
      +                          info.bits.busy = 1;
  3724   00094E  8E0C               	bsf	(_inPipes+3)^0,7,c
  3725                           
  3726                           ;../source/usb/usb_device.c: 2749:         if(SetupPkt.EPDir == 0)
  3727   000950  BF24               	btfsc	36,7,b	;volatile
  3728   000952  EFAD  F004         	goto	u1561
  3729   000956  EFAF  F004         	goto	u1560
  3730   00095A                     u1561:
  3731   00095A  EFCC  F004         	goto	l2873
  3732   00095E                     u1560:
  3733   00095E                     
  3734                           ; BSR set to: 4
  3735                           ;../source/usb/usb_device.c: 2750:         {;../source/usb/usb_device.c: 2751:          
      +                             p = (BDT_ENTRY*)pBDTEntryOut[SetupPkt.EPNum];
  3736   00095E  5124               	movf	36,w,b	;volatile
  3737   000960  0B0F               	andlw	15
  3738   000962  6E50               	movwf	??_USBStdFeatureReqHandler^0,c
  3739   000964  5050               	movf	??_USBStdFeatureReqHandler^0,w,c
  3740   000966  0D02               	mullw	2
  3741   000968  0E17               	movlw	low _pBDTEntryOut
  3742   00096A  24F3               	addwf	243,w,c
  3743   00096C  6ED9               	movwf	fsr2l,c
  3744   00096E  0E00               	movlw	high _pBDTEntryOut
  3745   000970  20F4               	addwfc	prodh,w,c
  3746   000972  6EDA               	movwf	fsr2h,c
  3747   000974  CFDE F055          	movff	postinc2,USBStdFeatureReqHandler@p
  3748   000978  CFDD F056          	movff	postdec2,USBStdFeatureReqHandler@p+1
  3749   00097C                     
  3750                           ; BSR set to: 4
  3751                           ;../source/usb/usb_device.c: 2752:             current_ep_data.Val = ep_data_out[SetupPk
      +                          t.EPNum].Val;
  3752   00097C  5124               	movf	36,w,b	;volatile
  3753   00097E  0B0F               	andlw	15
  3754   000980  6E50               	movwf	??_USBStdFeatureReqHandler^0,c
  3755   000982  6A51               	clrf	(??_USBStdFeatureReqHandler+1)^0,c
  3756   000984  0E1D               	movlw	low _ep_data_out
  3757   000986  2450               	addwf	??_USBStdFeatureReqHandler^0,w,c
  3758   000988  6ED9               	movwf	fsr2l,c
  3759   00098A  0E00               	movlw	high _ep_data_out
  3760   00098C  2051               	addwfc	(??_USBStdFeatureReqHandler+1)^0,w,c
  3761   00098E  6EDA               	movwf	fsr2h,c
  3762   000990  50DF               	movf	indf2,w,c
  3763   000992  6E54               	movwf	USBStdFeatureReqHandler@current_ep_data^0,c
  3764                           
  3765                           ;../source/usb/usb_device.c: 2753:         }
  3766   000994  EFE7  F004         	goto	l2877
  3767   000998                     l2873:
  3768                           
  3769                           ; BSR set to: 4
  3770                           ;../source/usb/usb_device.c: 2755:         {;../source/usb/usb_device.c: 2756:          
      +                             p = (BDT_ENTRY*)pBDTEntryIn[SetupPkt.EPNum];
  3771   000998  5124               	movf	36,w,b	;volatile
  3772   00099A  0B0F               	andlw	15
  3773   00099C  6E50               	movwf	??_USBStdFeatureReqHandler^0,c
  3774   00099E  5050               	movf	??_USBStdFeatureReqHandler^0,w,c
  3775   0009A0  0D02               	mullw	2
  3776   0009A2  0E13               	movlw	low _pBDTEntryIn
  3777   0009A4  24F3               	addwf	243,w,c
  3778   0009A6  6ED9               	movwf	fsr2l,c
  3779   0009A8  0E00               	movlw	high _pBDTEntryIn
  3780   0009AA  20F4               	addwfc	prodh,w,c
  3781   0009AC  6EDA               	movwf	fsr2h,c
  3782   0009AE  CFDE F055          	movff	postinc2,USBStdFeatureReqHandler@p
  3783   0009B2  CFDD F056          	movff	postdec2,USBStdFeatureReqHandler@p+1
  3784   0009B6                     
  3785                           ; BSR set to: 4
  3786                           ;../source/usb/usb_device.c: 2757:             current_ep_data.Val = ep_data_in[SetupPkt
      +                          .EPNum].Val;
  3787   0009B6  5124               	movf	36,w,b	;volatile
  3788   0009B8  0B0F               	andlw	15
  3789   0009BA  6E50               	movwf	??_USBStdFeatureReqHandler^0,c
  3790   0009BC  6A51               	clrf	(??_USBStdFeatureReqHandler+1)^0,c
  3791   0009BE  0E1F               	movlw	low _ep_data_in
  3792   0009C0  2450               	addwf	??_USBStdFeatureReqHandler^0,w,c
  3793   0009C2  6ED9               	movwf	fsr2l,c
  3794   0009C4  0E00               	movlw	high _ep_data_in
  3795   0009C6  2051               	addwfc	(??_USBStdFeatureReqHandler+1)^0,w,c
  3796   0009C8  6EDA               	movwf	fsr2h,c
  3797   0009CA  50DF               	movf	indf2,w,c
  3798   0009CC  6E54               	movwf	USBStdFeatureReqHandler@current_ep_data^0,c
  3799   0009CE                     l2877:
  3800                           
  3801                           ; BSR set to: 4
  3802                           ;../source/usb/usb_device.c: 2764:             if(current_ep_data.bits.ping_pong_state =
      +                          = 0)
  3803   0009CE  B054               	btfsc	USBStdFeatureReqHandler@current_ep_data^0,0,c
  3804   0009D0  EFEC  F004         	goto	u1571
  3805   0009D4  EFEE  F004         	goto	u1570
  3806   0009D8                     u1571:
  3807   0009D8  EFF6  F004         	goto	l2881
  3808   0009DC                     u1570:
  3809   0009DC                     
  3810                           ; BSR set to: 4
  3811                           ;../source/usb/usb_device.c: 2765:             {;../source/usb/usb_device.c: 2766:      
      +                                     p = (BDT_ENTRY*)(((uint16_t)p) & (~0x0004));
  3812   0009DC  0EFB               	movlw	251
  3813   0009DE  1455               	andwf	USBStdFeatureReqHandler@p^0,w,c
  3814   0009E0  6E55               	movwf	USBStdFeatureReqHandler@p^0,c
  3815   0009E2  0EFF               	movlw	255
  3816   0009E4  1456               	andwf	(USBStdFeatureReqHandler@p+1)^0,w,c
  3817   0009E6  6E56               	movwf	(USBStdFeatureReqHandler@p+1)^0,c
  3818                           
  3819                           ;../source/usb/usb_device.c: 2767:             }
  3820   0009E8  EFFB  F004         	goto	l2883
  3821   0009EC                     l2881:
  3822                           
  3823                           ; BSR set to: 4
  3824                           ;../source/usb/usb_device.c: 2769:             {;../source/usb/usb_device.c: 2770:      
      +                                     p = (BDT_ENTRY*)(((uint16_t)p) | 0x0004);
  3825   0009EC  0E04               	movlw	4
  3826   0009EE  1055               	iorwf	USBStdFeatureReqHandler@p^0,w,c
  3827   0009F0  6E55               	movwf	USBStdFeatureReqHandler@p^0,c
  3828   0009F2  5056               	movf	(USBStdFeatureReqHandler@p+1)^0,w,c
  3829   0009F4  6E56               	movwf	(USBStdFeatureReqHandler@p+1)^0,c
  3830   0009F6                     l2883:
  3831                           
  3832                           ; BSR set to: 4
  3833                           ;../source/usb/usb_device.c: 2776:         if(SetupPkt.EPDir == 0)
  3834   0009F6  BF24               	btfsc	36,7,b	;volatile
  3835   0009F8  EF00  F005         	goto	u1581
  3836   0009FC  EF02  F005         	goto	u1580
  3837   000A00                     u1581:
  3838   000A00  EF13  F005         	goto	l2887
  3839   000A04                     u1580:
  3840   000A04                     
  3841                           ; BSR set to: 4
  3842                           ;../source/usb/usb_device.c: 2777:         {;../source/usb/usb_device.c: 2778:          
      +                             pBDTEntryOut[SetupPkt.EPNum] = (volatile BDT_ENTRY *)p;
  3843   000A04  5124               	movf	36,w,b	;volatile
  3844   000A06  0B0F               	andlw	15
  3845   000A08  6E50               	movwf	??_USBStdFeatureReqHandler^0,c
  3846   000A0A  5050               	movf	??_USBStdFeatureReqHandler^0,w,c
  3847   000A0C  0D02               	mullw	2
  3848   000A0E  0E17               	movlw	low _pBDTEntryOut
  3849   000A10  24F3               	addwf	243,w,c
  3850   000A12  6ED9               	movwf	fsr2l,c
  3851   000A14  0E00               	movlw	high _pBDTEntryOut
  3852   000A16  20F4               	addwfc	prodh,w,c
  3853   000A18  6EDA               	movwf	fsr2h,c
  3854   000A1A  C055  FFDE         	movff	USBStdFeatureReqHandler@p,postinc2
  3855   000A1E  C056  FFDD         	movff	USBStdFeatureReqHandler@p+1,postdec2
  3856                           
  3857                           ;../source/usb/usb_device.c: 2779:         }
  3858   000A22  EF22  F005         	goto	l2889
  3859   000A26                     l2887:
  3860                           
  3861                           ; BSR set to: 4
  3862                           ;../source/usb/usb_device.c: 2781:         {;../source/usb/usb_device.c: 2782:          
      +                             pBDTEntryIn[SetupPkt.EPNum] = (volatile BDT_ENTRY *)p;
  3863   000A26  5124               	movf	36,w,b	;volatile
  3864   000A28  0B0F               	andlw	15
  3865   000A2A  6E50               	movwf	??_USBStdFeatureReqHandler^0,c
  3866   000A2C  5050               	movf	??_USBStdFeatureReqHandler^0,w,c
  3867   000A2E  0D02               	mullw	2
  3868   000A30  0E13               	movlw	low _pBDTEntryIn
  3869   000A32  24F3               	addwf	243,w,c
  3870   000A34  6ED9               	movwf	fsr2l,c
  3871   000A36  0E00               	movlw	high _pBDTEntryIn
  3872   000A38  20F4               	addwfc	prodh,w,c
  3873   000A3A  6EDA               	movwf	fsr2h,c
  3874   000A3C  C055  FFDE         	movff	USBStdFeatureReqHandler@p,postinc2
  3875   000A40  C056  FFDD         	movff	USBStdFeatureReqHandler@p+1,postdec2
  3876   000A44                     l2889:
  3877                           
  3878                           ; BSR set to: 4
  3879                           ;../source/usb/usb_device.c: 2786:         if(SetupPkt.bRequest == 3)
  3880   000A44  0E03               	movlw	3
  3881   000A46  1921               	xorwf	33,w,b	;volatile
  3882   000A48  A4D8               	btfss	status,2,c
  3883   000A4A  EF29  F005         	goto	u1591
  3884   000A4E  EF2B  F005         	goto	u1590
  3885   000A52                     u1591:
  3886   000A52  EF63  F005         	goto	l2899
  3887   000A56                     u1590:
  3888   000A56                     
  3889                           ; BSR set to: 4
  3890                           ;../source/usb/usb_device.c: 2787:         {;../source/usb/usb_device.c: 2788:          
      +                             if(p->STAT.UOWN == 1)
  3891   000A56  C055  FFD9         	movff	USBStdFeatureReqHandler@p,fsr2l
  3892   000A5A  C056  FFDA         	movff	USBStdFeatureReqHandler@p+1,fsr2h
  3893   000A5E  AEDF               	btfss	indf2,7,c
  3894   000A60  EF34  F005         	goto	u1601
  3895   000A64  EF36  F005         	goto	u1600
  3896   000A68                     u1601:
  3897   000A68  EF55  F005         	goto	l457
  3898   000A6C                     u1600:
  3899   000A6C                     
  3900                           ; BSR set to: 4
  3901                           ;../source/usb/usb_device.c: 2789:             {;../source/usb/usb_device.c: 2792:      
      +                                     if(SetupPkt.EPDir == 0)
  3902   000A6C  BF24               	btfsc	36,7,b	;volatile
  3903   000A6E  EF3B  F005         	goto	u1611
  3904   000A72  EF3D  F005         	goto	u1610
  3905   000A76                     u1611:
  3906   000A76  EF4A  F005         	goto	l2897
  3907   000A7A                     u1610:
  3908   000A7A                     
  3909                           ; BSR set to: 4
  3910                           ;../source/usb/usb_device.c: 2793:                 {;../source/usb/usb_device.c: 2794:  
      +                                             ep_data_out[SetupPkt.EPNum].bits.transfer_terminated = 1;
  3911   000A7A  5124               	movf	36,w,b	;volatile
  3912   000A7C  0B0F               	andlw	15
  3913   000A7E  6E50               	movwf	??_USBStdFeatureReqHandler^0,c
  3914   000A80  6A51               	clrf	(??_USBStdFeatureReqHandler+1)^0,c
  3915   000A82  0E1D               	movlw	low _ep_data_out
  3916   000A84  2450               	addwf	??_USBStdFeatureReqHandler^0,w,c
  3917   000A86  6ED9               	movwf	fsr2l,c
  3918   000A88  0E00               	movlw	high _ep_data_out
  3919   000A8A  2051               	addwfc	(??_USBStdFeatureReqHandler+1)^0,w,c
  3920   000A8C  6EDA               	movwf	fsr2h,c
  3921   000A8E  82DF               	bsf	indf2,1,c
  3922                           
  3923                           ;../source/usb/usb_device.c: 2795:                 }
  3924   000A90  EF55  F005         	goto	l457
  3925   000A94                     l2897:
  3926                           
  3927                           ; BSR set to: 4
  3928                           ;../source/usb/usb_device.c: 2797:                 {;../source/usb/usb_device.c: 2798:  
      +                                             ep_data_in[SetupPkt.EPNum].bits.transfer_terminated = 1;
  3929   000A94  5124               	movf	36,w,b	;volatile
  3930   000A96  0B0F               	andlw	15
  3931   000A98  6E50               	movwf	??_USBStdFeatureReqHandler^0,c
  3932   000A9A  6A51               	clrf	(??_USBStdFeatureReqHandler+1)^0,c
  3933   000A9C  0E1F               	movlw	low _ep_data_in
  3934   000A9E  2450               	addwf	??_USBStdFeatureReqHandler^0,w,c
  3935   000AA0  6ED9               	movwf	fsr2l,c
  3936   000AA2  0E00               	movlw	high _ep_data_in
  3937   000AA4  2051               	addwfc	(??_USBStdFeatureReqHandler+1)^0,w,c
  3938   000AA6  6EDA               	movwf	fsr2h,c
  3939   000AA8  82DF               	bsf	indf2,1,c
  3940   000AAA                     l457:
  3941                           
  3942                           ; BSR set to: 4
  3943                           ;../source/usb/usb_device.c: 2803:             p->STAT.Val |= 0x04;
  3944   000AAA  C055  FFD9         	movff	USBStdFeatureReqHandler@p,fsr2l
  3945   000AAE  C056  FFDA         	movff	USBStdFeatureReqHandler@p+1,fsr2h
  3946   000AB2  0E00               	movlw	0
  3947   000AB4  84DB               	bsf	plusw2,2,c
  3948                           
  3949                           ;../source/usb/usb_device.c: 2804:             p->STAT.Val |= 0x80;
  3950   000AB6  C055  FFD9         	movff	USBStdFeatureReqHandler@p,fsr2l
  3951   000ABA  C056  FFDA         	movff	USBStdFeatureReqHandler@p+1,fsr2h
  3952   000ABE  0E00               	movlw	0
  3953   000AC0  8EDB               	bsf	plusw2,7,c
  3954                           
  3955                           ;../source/usb/usb_device.c: 2805:         }
  3956   000AC2  EFF9  F005         	goto	l469
  3957   000AC6                     l2899:
  3958                           
  3959                           ; BSR set to: 4
  3960                           ;../source/usb/usb_device.c: 2807:         {;../source/usb/usb_device.c: 2811:          
      +                                 p = (BDT_ENTRY*)(((uint16_t)p) ^ 0x0004);
  3961   000AC6  0E04               	movlw	4
  3962   000AC8  1855               	xorwf	USBStdFeatureReqHandler@p^0,w,c
  3963   000ACA  6E55               	movwf	USBStdFeatureReqHandler@p^0,c
  3964   000ACC  5056               	movf	(USBStdFeatureReqHandler@p+1)^0,w,c
  3965   000ACE  6E56               	movwf	(USBStdFeatureReqHandler@p+1)^0,c
  3966   000AD0                     
  3967                           ; BSR set to: 4
  3968                           ;../source/usb/usb_device.c: 2813:                 if(p->STAT.UOWN == 1)
  3969   000AD0  C055  FFD9         	movff	USBStdFeatureReqHandler@p,fsr2l
  3970   000AD4  C056  FFDA         	movff	USBStdFeatureReqHandler@p+1,fsr2h
  3971   000AD8  AEDF               	btfss	indf2,7,c
  3972   000ADA  EF71  F005         	goto	u1621
  3973   000ADE  EF73  F005         	goto	u1620
  3974   000AE2                     u1621:
  3975   000AE2  EF8F  F005         	goto	l2909
  3976   000AE6                     u1620:
  3977   000AE6                     
  3978                           ; BSR set to: 4
  3979                           ;../source/usb/usb_device.c: 2814:                 {;../source/usb/usb_device.c: 2817:  
      +                                             p->STAT.Val &= (~0x80);
  3980   000AE6  C055  FFD9         	movff	USBStdFeatureReqHandler@p,fsr2l
  3981   000AEA  C056  FFDA         	movff	USBStdFeatureReqHandler@p+1,fsr2h
  3982   000AEE  0E7F               	movlw	127
  3983   000AF0  16DF               	andwf	indf2,f,c
  3984   000AF2                     
  3985                           ; BSR set to: 4
  3986                           ;../source/usb/usb_device.c: 2818:                     p->STAT.Val |= 0x40;
  3987   000AF2  C055  FFD9         	movff	USBStdFeatureReqHandler@p,fsr2l
  3988   000AF6  C056  FFDA         	movff	USBStdFeatureReqHandler@p+1,fsr2h
  3989   000AFA  0E00               	movlw	0
  3990   000AFC  8CDB               	bsf	plusw2,6,c
  3991   000AFE                     
  3992                           ; BSR set to: 4
  3993                           ;../source/usb/usb_device.c: 2819:                     USER_USB_CALLBACK_EVENT_HANDLER((
      +                          USB_EVENT)EVENT_TRANSFER_TERMINATED,p,sizeof(p));
  3994   000AFE  0E00               	movlw	0
  3995   000B00  6E49               	movwf	(USER_USB_CALLBACK_EVENT_HANDLER@event+1)^0,c
  3996   000B02  0E05               	movlw	5
  3997   000B04  6E48               	movwf	USER_USB_CALLBACK_EVENT_HANDLER@event^0,c
  3998   000B06  C055  F04A         	movff	USBStdFeatureReqHandler@p,USER_USB_CALLBACK_EVENT_HANDLER@pdata
  3999   000B0A  C056  F04B         	movff	USBStdFeatureReqHandler@p+1,USER_USB_CALLBACK_EVENT_HANDLER@pdata+1
  4000   000B0E  0E00               	movlw	0
  4001   000B10  6E4D               	movwf	(USER_USB_CALLBACK_EVENT_HANDLER@size+1)^0,c
  4002   000B12  0E02               	movlw	2
  4003   000B14  6E4C               	movwf	USER_USB_CALLBACK_EVENT_HANDLER@size^0,c
  4004   000B16  ECDE  F010         	call	_USER_USB_CALLBACK_EVENT_HANDLER	;wreg free
  4005                           
  4006                           ;../source/usb/usb_device.c: 2820:                 }
  4007   000B1A  EF95  F005         	goto	l2911
  4008   000B1E                     l2909:
  4009                           
  4010                           ; BSR set to: 4
  4011                           ;../source/usb/usb_device.c: 2822:                 {;../source/usb/usb_device.c: 2824:  
      +                              p->STAT.Val |= 0x40;
  4012   000B1E  C055  FFD9         	movff	USBStdFeatureReqHandler@p,fsr2l
  4013   000B22  C056  FFDA         	movff	USBStdFeatureReqHandler@p+1,fsr2h
  4014   000B26  0E00               	movlw	0
  4015   000B28  8CDB               	bsf	plusw2,6,c
  4016   000B2A                     l2911:
  4017                           
  4018                           ;../source/usb/usb_device.c: 2829:                 p = (BDT_ENTRY*)(((uint16_t)p) ^ 0x00
      +                          04);
  4019   000B2A  0E04               	movlw	4
  4020   000B2C  1855               	xorwf	USBStdFeatureReqHandler@p^0,w,c
  4021   000B2E  6E55               	movwf	USBStdFeatureReqHandler@p^0,c
  4022   000B30  5056               	movf	(USBStdFeatureReqHandler@p+1)^0,w,c
  4023   000B32  6E56               	movwf	(USBStdFeatureReqHandler@p+1)^0,c
  4024   000B34                     
  4025                           ;../source/usb/usb_device.c: 2835:                 if((current_ep_data.bits.transfer_ter
      +                          minated != 0) || (p->STAT.UOWN == 1))
  4026   000B34  B254               	btfsc	USBStdFeatureReqHandler@current_ep_data^0,1,c
  4027   000B36  EF9F  F005         	goto	u1631
  4028   000B3A  EFA1  F005         	goto	u1630
  4029   000B3E                     u1631:
  4030   000B3E  EFAC  F005         	goto	l465
  4031   000B42                     u1630:
  4032   000B42  C055  FFD9         	movff	USBStdFeatureReqHandler@p,fsr2l
  4033   000B46  C056  FFDA         	movff	USBStdFeatureReqHandler@p+1,fsr2h
  4034   000B4A  AEDF               	btfss	indf2,7,c
  4035   000B4C  EFAA  F005         	goto	u1641
  4036   000B50  EFAC  F005         	goto	u1640
  4037   000B54                     u1641:
  4038   000B54  EFE2  F005         	goto	l2925
  4039   000B58                     u1640:
  4040   000B58                     l465:
  4041                           
  4042                           ;../source/usb/usb_device.c: 2836:                 {;../source/usb/usb_device.c: 2837:  
      +                                             if(SetupPkt.EPDir == 0)
  4043   000B58  0104               	movlb	4	; () banked
  4044   000B5A  BF24               	btfsc	36,7,b	;volatile
  4045   000B5C  EFB2  F005         	goto	u1651
  4046   000B60  EFB4  F005         	goto	u1650
  4047   000B64                     u1651:
  4048   000B64  EFC1  F005         	goto	l2919
  4049   000B68                     u1650:
  4050   000B68                     
  4051                           ; BSR set to: 4
  4052                           ;../source/usb/usb_device.c: 2838:                     {;../source/usb/usb_device.c: 283
      +                          9:                         ep_data_out[SetupPkt.EPNum].bits.transfer_terminated = 0;
  4053   000B68  5124               	movf	36,w,b	;volatile
  4054   000B6A  0B0F               	andlw	15
  4055   000B6C  6E50               	movwf	??_USBStdFeatureReqHandler^0,c
  4056   000B6E  6A51               	clrf	(??_USBStdFeatureReqHandler+1)^0,c
  4057   000B70  0E1D               	movlw	low _ep_data_out
  4058   000B72  2450               	addwf	??_USBStdFeatureReqHandler^0,w,c
  4059   000B74  6ED9               	movwf	fsr2l,c
  4060   000B76  0E00               	movlw	high _ep_data_out
  4061   000B78  2051               	addwfc	(??_USBStdFeatureReqHandler+1)^0,w,c
  4062   000B7A  6EDA               	movwf	fsr2h,c
  4063   000B7C  92DF               	bcf	indf2,1,c
  4064                           
  4065                           ;../source/usb/usb_device.c: 2840:                     }
  4066   000B7E  EFCC  F005         	goto	l2921
  4067   000B82                     l2919:
  4068                           
  4069                           ; BSR set to: 4
  4070                           ;../source/usb/usb_device.c: 2842:                     {;../source/usb/usb_device.c: 284
      +                          3:                         ep_data_in[SetupPkt.EPNum].bits.transfer_terminated = 0;
  4071   000B82  5124               	movf	36,w,b	;volatile
  4072   000B84  0B0F               	andlw	15
  4073   000B86  6E50               	movwf	??_USBStdFeatureReqHandler^0,c
  4074   000B88  6A51               	clrf	(??_USBStdFeatureReqHandler+1)^0,c
  4075   000B8A  0E1F               	movlw	low _ep_data_in
  4076   000B8C  2450               	addwf	??_USBStdFeatureReqHandler^0,w,c
  4077   000B8E  6ED9               	movwf	fsr2l,c
  4078   000B90  0E00               	movlw	high _ep_data_in
  4079   000B92  2051               	addwfc	(??_USBStdFeatureReqHandler+1)^0,w,c
  4080   000B94  6EDA               	movwf	fsr2h,c
  4081   000B96  92DF               	bcf	indf2,1,c
  4082   000B98                     l2921:
  4083                           
  4084                           ; BSR set to: 4
  4085                           ;../source/usb/usb_device.c: 2846:                     p->STAT.Val &= ~(0x80 | 0x40 | 0x
      +                          04);
  4086   000B98  C055  FFD9         	movff	USBStdFeatureReqHandler@p,fsr2l
  4087   000B9C  C056  FFDA         	movff	USBStdFeatureReqHandler@p+1,fsr2h
  4088   000BA0  0E3B               	movlw	59
  4089   000BA2  16DF               	andwf	indf2,f,c
  4090   000BA4                     
  4091                           ; BSR set to: 4
  4092                           ;../source/usb/usb_device.c: 2849:                     USER_USB_CALLBACK_EVENT_HANDLER((
      +                          USB_EVENT)EVENT_TRANSFER_TERMINATED,p,sizeof(p));
  4093   000BA4  0E00               	movlw	0
  4094   000BA6  6E49               	movwf	(USER_USB_CALLBACK_EVENT_HANDLER@event+1)^0,c
  4095   000BA8  0E05               	movlw	5
  4096   000BAA  6E48               	movwf	USER_USB_CALLBACK_EVENT_HANDLER@event^0,c
  4097   000BAC  C055  F04A         	movff	USBStdFeatureReqHandler@p,USER_USB_CALLBACK_EVENT_HANDLER@pdata
  4098   000BB0  C056  F04B         	movff	USBStdFeatureReqHandler@p+1,USER_USB_CALLBACK_EVENT_HANDLER@pdata+1
  4099   000BB4  0E00               	movlw	0
  4100   000BB6  6E4D               	movwf	(USER_USB_CALLBACK_EVENT_HANDLER@size+1)^0,c
  4101   000BB8  0E02               	movlw	2
  4102   000BBA  6E4C               	movwf	USER_USB_CALLBACK_EVENT_HANDLER@size^0,c
  4103   000BBC  ECDE  F010         	call	_USER_USB_CALLBACK_EVENT_HANDLER	;wreg free
  4104                           
  4105                           ;../source/usb/usb_device.c: 2850:                 }
  4106   000BC0  EFE8  F005         	goto	l2927
  4107   000BC4                     l2925:
  4108                           
  4109                           ;../source/usb/usb_device.c: 2852:                 {;../source/usb/usb_device.c: 2854:  
      +                                             p->STAT.Val &= ~(0x80 | 0x40 | 0x04);
  4110   000BC4  C055  FFD9         	movff	USBStdFeatureReqHandler@p,fsr2l
  4111   000BC8  C056  FFDA         	movff	USBStdFeatureReqHandler@p+1,fsr2h
  4112   000BCC  0E3B               	movlw	59
  4113   000BCE  16DF               	andwf	indf2,f,c
  4114   000BD0                     l2927:
  4115                           
  4116                           ;../source/usb/usb_device.c: 2902:                 pUEP = (unsigned char*)(&UEP0+SetupPk
      +                          t.EPNum);
  4117   000BD0  0104               	movlb	4	; () banked
  4118   000BD2  5124               	movf	36,w,b	;volatile
  4119   000BD4  0B0F               	andlw	15
  4120   000BD6  6E50               	movwf	??_USBStdFeatureReqHandler^0,c
  4121   000BD8  6A51               	clrf	(??_USBStdFeatureReqHandler+1)^0,c
  4122   000BDA  0E70               	movlw	112
  4123   000BDC  2450               	addwf	??_USBStdFeatureReqHandler^0,w,c
  4124   000BDE  6E52               	movwf	USBStdFeatureReqHandler@pUEP^0,c
  4125   000BE0  0E0F               	movlw	15
  4126   000BE2  2051               	addwfc	(??_USBStdFeatureReqHandler+1)^0,w,c
  4127   000BE4  6E53               	movwf	(USBStdFeatureReqHandler@pUEP+1)^0,c
  4128   000BE6                     
  4129                           ; BSR set to: 4
  4130                           ;../source/usb/usb_device.c: 2906:             *pUEP &= ~0x0001;
  4131   000BE6  C052  FFD9         	movff	USBStdFeatureReqHandler@pUEP,fsr2l
  4132   000BEA  C053  FFDA         	movff	USBStdFeatureReqHandler@pUEP+1,fsr2h
  4133   000BEE  0EFE               	movlw	254
  4134   000BF0  16DF               	andwf	indf2,f,c
  4135   000BF2                     l469:
  4136                           
  4137                           ; BSR set to: 4
  4138   000BF2  0012               	return		;funcret
  4139   000BF4                     __end_of_USBStdFeatureReqHandler:
  4140                           	callstack 0
  4141                           
  4142 ;; *************** function _USER_USB_CALLBACK_EVENT_HANDLER *****************
  4143 ;; Defined at:
  4144 ;;		line 30 in file "../source/usb/usb_events.c"
  4145 ;; Parameters:    Size  Location     Type
  4146 ;;  event           2   14[COMRAM] enum E3412
  4147 ;;  pdata           2   16[COMRAM] PTR void 
  4148 ;;		 -> RAM(2047), USTATcopy(1), USBActiveConfiguration(1), NULL(0), 
  4149 ;;		 -> BDT(32), 
  4150 ;;  size            2   18[COMRAM] unsigned short 
  4151 ;; Auto vars:     Size  Location     Type
  4152 ;;		None
  4153 ;; Return value:  Size  Location     Type
  4154 ;;                  1    wreg      _Bool 
  4155 ;; Registers used:
  4156 ;;		wreg, fsr2l, fsr2h, status,2, status,0, prodl, prodh, cstack
  4157 ;; Tracked objects:
  4158 ;;		On entry : 0/0
  4159 ;;		On exit  : 0/0
  4160 ;;		Unchanged: 0/0
  4161 ;; Data sizes:     COMRAM   BANK0   BANK1   BANK2   BANK3   BANK4   BANK5   BANK6   BANK7
  4162 ;;      Params:         6       0       0       0       0       0       0       0       0
  4163 ;;      Locals:         0       0       0       0       0       0       0       0       0
  4164 ;;      Temps:          2       0       0       0       0       0       0       0       0
  4165 ;;      Totals:         8       0       0       0       0       0       0       0       0
  4166 ;;Total ram usage:        8 bytes
  4167 ;; Hardware stack levels used: 1
  4168 ;; Hardware stack levels required when called: 4
  4169 ;; This function calls:
  4170 ;;		_APP_DeviceJoystickInitialize
  4171 ;;		_SYSTEM_Initialize
  4172 ;;		_USBCheckHIDRequest
  4173 ;; This function is called by:
  4174 ;;		_USBDeviceTasks
  4175 ;;		_USBStdSetCfgHandler
  4176 ;;		_USBSuspend
  4177 ;;		_USBWakeFromSuspend
  4178 ;;		_USBCtrlTrfSetupHandler
  4179 ;;		_USBCheckStdRequest
  4180 ;;		_USBStdFeatureReqHandler
  4181 ;; This function uses a non-reentrant model
  4182 ;;
  4183                           
  4184                           	psect	text18
  4185   0021BC                     __ptext18:
  4186                           	callstack 0
  4187   0021BC                     _USER_USB_CALLBACK_EVENT_HANDLER:
  4188                           	callstack 25
  4189   0021BC                     
  4190                           ;../source/usb/usb_events.c: 30: _Bool USER_USB_CALLBACK_EVENT_HANDLER(USB_EVENT event, 
      +                          void *pdata, uint16_t size);../source/usb/usb_events.c: 31: {;../source/usb/usb_events.c
      +                          : 32:     switch( (int) event )
  4191   0021BC  EFF2  F010         	goto	l2799
  4192   0021C0                     l2789:
  4193                           
  4194                           ;../source/usb/usb_events.c: 49:             SYSTEM_Initialize(SYSTEM_STATE_USB_SUSPEND)
      +                          ;
  4195   0021C0  0E01               	movlw	1
  4196   0021C2  ECDD  F011         	call	_SYSTEM_Initialize
  4197                           
  4198                           ;../source/usb/usb_events.c: 50:             break;
  4199   0021C6  EF2B  F011         	goto	l549
  4200   0021CA                     l2791:
  4201                           
  4202                           ;../source/usb/usb_events.c: 58:             SYSTEM_Initialize(SYSTEM_STATE_USB_RESUME);
  4203   0021CA  0E02               	movlw	2
  4204   0021CC  ECDD  F011         	call	_SYSTEM_Initialize
  4205                           
  4206                           ;../source/usb/usb_events.c: 59:             break;
  4207   0021D0  EF2B  F011         	goto	l549
  4208   0021D4                     l2793:
  4209                           
  4210                           ;../source/usb/usb_events.c: 64:             APP_DeviceJoystickInitialize();
  4211   0021D4  ECE4  F012         	call	_APP_DeviceJoystickInitialize	;wreg free
  4212                           
  4213                           ;../source/usb/usb_events.c: 65:             break;
  4214   0021D8  EF2B  F011         	goto	l549
  4215   0021DC                     l2795:
  4216                           
  4217                           ;../source/usb/usb_events.c: 73:             USBCheckHIDRequest();
  4218   0021DC  ECE6  F007         	call	_USBCheckHIDRequest	;wreg free
  4219                           
  4220                           ;../source/usb/usb_events.c: 74:             break;
  4221   0021E0  EF2B  F011         	goto	l549
  4222   0021E4                     l2799:
  4223   0021E4  C048  F04E         	movff	USER_USB_CALLBACK_EVENT_HANDLER@event,??_USER_USB_CALLBACK_EVENT_HANDLER
  4224   0021E8  C049  F04F         	movff	USER_USB_CALLBACK_EVENT_HANDLER@event+1,??_USER_USB_CALLBACK_EVENT_HANDLER+1
  4225                           
  4226                           ; Switch on 2 bytes has been partitioned into a top level switch of size 1, and 2 sub-sw
      +                          itches
  4227                           ; Switch size 1, requested type "simple"
  4228                           ; Number of cases is 2, Range of values is 0 to 127
  4229                           ; switch strategies available:
  4230                           ; Name         Instructions Cycles
  4231                           ; simple_byte            7     4 (average)
  4232                           ;	Chosen strategy is simple_byte
  4233   0021EC  504F               	movf	(??_USER_USB_CALLBACK_EVENT_HANDLER+1)^0,w,c
  4234   0021EE  0A00               	xorlw	0	; case 0
  4235   0021F0  B4D8               	btfsc	status,2,c
  4236   0021F2  EF01  F011         	goto	l3639
  4237   0021F6  0A7F               	xorlw	127	; case 127
  4238   0021F8  B4D8               	btfsc	status,2,c
  4239   0021FA  EF24  F011         	goto	l3641
  4240   0021FE  EF2B  F011         	goto	l549
  4241   002202                     l3639:
  4242                           
  4243                           ; Switch size 1, requested type "simple"
  4244                           ; Number of cases is 8, Range of values is 1 to 117
  4245                           ; switch strategies available:
  4246                           ; Name         Instructions Cycles
  4247                           ; simple_byte           25    13 (average)
  4248                           ;	Chosen strategy is simple_byte
  4249   002202  504E               	movf	??_USER_USB_CALLBACK_EVENT_HANDLER^0,w,c
  4250   002204  0A01               	xorlw	1	; case 1
  4251   002206  B4D8               	btfsc	status,2,c
  4252   002208  EFEA  F010         	goto	l2793
  4253   00220C  0A03               	xorlw	3	; case 2
  4254   00220E  B4D8               	btfsc	status,2,c
  4255   002210  EF2B  F011         	goto	l549
  4256   002214  0A01               	xorlw	1	; case 3
  4257   002216  B4D8               	btfsc	status,2,c
  4258   002218  EFEE  F010         	goto	l2795
  4259   00221C  0A06               	xorlw	6	; case 5
  4260   00221E  B4D8               	btfsc	status,2,c
  4261   002220  EF2B  F011         	goto	l549
  4262   002224  0A77               	xorlw	119	; case 114
  4263   002226  B4D8               	btfsc	status,2,c
  4264   002228  EF2B  F011         	goto	l549
  4265   00222C  0A01               	xorlw	1	; case 115
  4266   00222E  B4D8               	btfsc	status,2,c
  4267   002230  EF2B  F011         	goto	l549
  4268   002234  0A07               	xorlw	7	; case 116
  4269   002236  B4D8               	btfsc	status,2,c
  4270   002238  EFE5  F010         	goto	l2791
  4271   00223C  0A01               	xorlw	1	; case 117
  4272   00223E  B4D8               	btfsc	status,2,c
  4273   002240  EFE0  F010         	goto	l2789
  4274   002244  EF2B  F011         	goto	l549
  4275   002248                     l3641:
  4276                           
  4277                           ; Switch size 1, requested type "simple"
  4278                           ; Number of cases is 1, Range of values is 255 to 255
  4279                           ; switch strategies available:
  4280                           ; Name         Instructions Cycles
  4281                           ; simple_byte            4     3 (average)
  4282                           ;	Chosen strategy is simple_byte
  4283   002248  504E               	movf	??_USER_USB_CALLBACK_EVENT_HANDLER^0,w,c
  4284   00224A  0AFF               	xorlw	255	; case 255
  4285   00224C  B4D8               	btfsc	status,2,c
  4286   00224E  EF2B  F011         	goto	l549
  4287   002252  EF2B  F011         	goto	l549
  4288   002256                     l549:
  4289   002256  0012               	return		;funcret
  4290   002258                     __end_of_USER_USB_CALLBACK_EVENT_HANDLER:
  4291                           	callstack 0
  4292                           
  4293 ;; *************** function _USBCheckHIDRequest *****************
  4294 ;; Defined at:
  4295 ;;		line 118 in file "../source/usb/usb_device_hid.c"
  4296 ;; Parameters:    Size  Location     Type
  4297 ;;		None
  4298 ;; Auto vars:     Size  Location     Type
  4299 ;;		None
  4300 ;; Return value:  Size  Location     Type
  4301 ;;                  1    wreg      void 
  4302 ;; Registers used:
  4303 ;;		wreg, status,2, status,0
  4304 ;; Tracked objects:
  4305 ;;		On entry : 0/0
  4306 ;;		On exit  : 0/0
  4307 ;;		Unchanged: 0/0
  4308 ;; Data sizes:     COMRAM   BANK0   BANK1   BANK2   BANK3   BANK4   BANK5   BANK6   BANK7
  4309 ;;      Params:         0       0       0       0       0       0       0       0       0
  4310 ;;      Locals:         0       0       0       0       0       0       0       0       0
  4311 ;;      Temps:          2       0       0       0       0       0       0       0       0
  4312 ;;      Totals:         2       0       0       0       0       0       0       0       0
  4313 ;;Total ram usage:        2 bytes
  4314 ;; Hardware stack levels used: 1
  4315 ;; Hardware stack levels required when called: 1
  4316 ;; This function calls:
  4317 ;;		Nothing
  4318 ;; This function is called by:
  4319 ;;		_USER_USB_CALLBACK_EVENT_HANDLER
  4320 ;; This function uses a non-reentrant model
  4321 ;;
  4322                           
  4323                           	psect	text19
  4324   000FCC                     __ptext19:
  4325                           	callstack 0
  4326   000FCC                     _USBCheckHIDRequest:
  4327                           	callstack 27
  4328   000FCC                     
  4329                           ;../source/usb/usb_device_hid.c: 120:     if(SetupPkt.Recipient != (0x01)) return;
  4330   000FCC  0104               	movlb	4	; () banked
  4331   000FCE  5120               	movf	32,w,b	;volatile
  4332   000FD0  0B1F               	andlw	31
  4333   000FD2  06E8               	decf	wreg,f,c
  4334   000FD4  B4D8               	btfsc	status,2,c
  4335   000FD6  EFEF  F007         	goto	u51
  4336   000FDA  EFF1  F007         	goto	u50
  4337   000FDE                     u51:
  4338   000FDE  EFF3  F007         	goto	l1359
  4339   000FE2                     u50:
  4340   000FE2  EF95  F008         	goto	l511
  4341   000FE6                     l1359:
  4342                           
  4343                           ; BSR set to: 4
  4344                           ;../source/usb/usb_device_hid.c: 121:     if(SetupPkt.bIntfID != 0x00) return;
  4345   000FE6  5124               	movf	36,w,b	;volatile
  4346   000FE8  B4D8               	btfsc	status,2,c
  4347   000FEA  EFF9  F007         	goto	u61
  4348   000FEE  EFFB  F007         	goto	u60
  4349   000FF2                     u61:
  4350   000FF2  EFFD  F007         	goto	l1363
  4351   000FF6                     u60:
  4352   000FF6  EF95  F008         	goto	l511
  4353   000FFA                     l1363:
  4354                           
  4355                           ; BSR set to: 4
  4356                           ;../source/usb/usb_device_hid.c: 128:     if(SetupPkt.bRequest == 6)
  4357   000FFA  0E06               	movlw	6
  4358   000FFC  1921               	xorwf	33,w,b	;volatile
  4359   000FFE  A4D8               	btfss	status,2,c
  4360   001000  EF04  F008         	goto	u71
  4361   001004  EF06  F008         	goto	u70
  4362   001008                     u71:
  4363   001008  EF3F  F008         	goto	l1385
  4364   00100C                     u70:
  4365   00100C  EF26  F008         	goto	l1383
  4366   001010                     l1367:
  4367                           
  4368                           ; BSR set to: 4
  4369                           ;../source/usb/usb_device_hid.c: 133:                 if(USBActiveConfiguration == 1)
  4370   001010  0439               	decf	_USBActiveConfiguration^0,w,c
  4371   001012  A4D8               	btfss	status,2,c
  4372   001014  EF0E  F008         	goto	u81
  4373   001018  EF10  F008         	goto	u80
  4374   00101C                     u81:
  4375   00101C  EF3F  F008         	goto	l1385
  4376   001020                     u80:
  4377   001020                     
  4378                           ; BSR set to: 4
  4379                           ;../source/usb/usb_device_hid.c: 134:                 {;../source/usb/usb_device_hid.c: 
      +                          135:                     { inPipes[0].pSrc.bRom = (const uint8_t*)&configDescriptor1 + 1
      +                          8; inPipes[0].wCount.Val = sizeof(USB_HID_DSC)+3; inPipes[0].info.Val = 0x40 | 0x80 | 0x
      +                          00; };
  4380   001020  0E67               	movlw	low (_configDescriptor1+18)
  4381   001022  6E09               	movwf	_inPipes^0,c
  4382   001024  0E08               	movlw	high (_configDescriptor1+18)
  4383   001026  6E0A               	movwf	(_inPipes+1)^0,c
  4384   001028                     
  4385                           ; BSR set to: 4
  4386   001028  0E00               	movlw	0
  4387   00102A  6E0E               	movwf	(_inPipes+5)^0,c
  4388   00102C  0E09               	movlw	9
  4389   00102E  6E0D               	movwf	(_inPipes+4)^0,c
  4390   001030                     l1373:
  4391                           
  4392                           ; BSR set to: 4
  4393   001030  0EC0               	movlw	192
  4394   001032  6E0C               	movwf	(_inPipes+3)^0,c
  4395   001034  EF3F  F008         	goto	l1385
  4396   001038                     l1375:
  4397                           
  4398                           ; BSR set to: 4
  4399                           ;../source/usb/usb_device_hid.c: 143:                 {;../source/usb/usb_device_hid.c: 
      +                          144:                     { inPipes[0].pSrc.bRom = (const uint8_t*)&hid_rpt01; inPipes[0]
      +                          .wCount.Val = 25; inPipes[0].info.Val = 0x40 | 0x80 | 0x00; };
  4400   001038  0E77               	movlw	low _hid_rpt01
  4401   00103A  6E09               	movwf	_inPipes^0,c
  4402   00103C  0E08               	movlw	high _hid_rpt01
  4403   00103E  6E0A               	movwf	(_inPipes+1)^0,c
  4404   001040                     
  4405                           ; BSR set to: 4
  4406   001040  0E00               	movlw	0
  4407   001042  6E0E               	movwf	(_inPipes+5)^0,c
  4408   001044  0E19               	movlw	25
  4409   001046  6E0D               	movwf	(_inPipes+4)^0,c
  4410   001048  EF18  F008         	goto	l1373
  4411   00104C                     l1383:
  4412                           
  4413                           ; BSR set to: 4
  4414   00104C  5123               	movf	35,w,b	;volatile
  4415   00104E  6E3A               	movwf	??_USBCheckHIDRequest^0,c
  4416   001050  6A3B               	clrf	(??_USBCheckHIDRequest+1)^0,c
  4417                           
  4418                           ; Switch on 2 bytes has been partitioned into a top level switch of size 1, and 1 sub-sw
      +                          itches
  4419                           ; Switch size 1, requested type "simple"
  4420                           ; Number of cases is 1, Range of values is 0 to 0
  4421                           ; switch strategies available:
  4422                           ; Name         Instructions Cycles
  4423                           ; simple_byte            4     3 (average)
  4424                           ;	Chosen strategy is simple_byte
  4425   001052  503B               	movf	(??_USBCheckHIDRequest+1)^0,w,c
  4426   001054  0A00               	xorlw	0	; case 0
  4427   001056  B4D8               	btfsc	status,2,c
  4428   001058  EF30  F008         	goto	l3643
  4429   00105C  EF3F  F008         	goto	l1385
  4430   001060                     l3643:
  4431                           
  4432                           ; BSR set to: 4
  4433                           ; Switch size 1, requested type "simple"
  4434                           ; Number of cases is 3, Range of values is 33 to 35
  4435                           ; switch strategies available:
  4436                           ; Name         Instructions Cycles
  4437                           ; simple_byte           10     6 (average)
  4438                           ;	Chosen strategy is simple_byte
  4439   001060  503A               	movf	??_USBCheckHIDRequest^0,w,c
  4440   001062  0A21               	xorlw	33	; case 33
  4441   001064  B4D8               	btfsc	status,2,c
  4442   001066  EF08  F008         	goto	l1367
  4443   00106A  0A03               	xorlw	3	; case 34
  4444   00106C  B4D8               	btfsc	status,2,c
  4445   00106E  EF1C  F008         	goto	l1375
  4446   001072  0A01               	xorlw	1	; case 35
  4447   001074  B4D8               	btfsc	status,2,c
  4448   001076  EF3F  F008         	goto	l1385
  4449   00107A  EF3F  F008         	goto	l1385
  4450   00107E                     l1385:
  4451                           
  4452                           ; BSR set to: 4
  4453                           ;../source/usb/usb_device_hid.c: 166:     if(SetupPkt.RequestType != (0x20>>5))
  4454   00107E  3920               	swapf	32,w,b	;volatile
  4455   001080  32E8               	rrcf	wreg,f,c
  4456   001082  0B03               	andlw	3
  4457   001084  06E8               	decf	wreg,f,c
  4458   001086  B4D8               	btfsc	status,2,c
  4459   001088  EF48  F008         	goto	u91
  4460   00108C  EF4A  F008         	goto	u90
  4461   001090                     u91:
  4462   001090  EF70  F008         	goto	l1411
  4463   001094                     u90:
  4464   001094  EF95  F008         	goto	l511
  4465   001098                     l1389:
  4466                           
  4467                           ; BSR set to: 4
  4468                           ;../source/usb/usb_device_hid.c: 184:             { inPipes[0].pSrc.bRam = (uint8_t*)&id
      +                          le_rate; inPipes[0].wCount.Val = 1; inPipes[0].info.Val = 0x40 | 0x80 | 0x01; };
  4469   001098  0E36               	movlw	low _idle_rate
  4470   00109A  6E09               	movwf	_inPipes^0,c
  4471   00109C  0E00               	movlw	high _idle_rate
  4472   00109E  6E0A               	movwf	(_inPipes+1)^0,c
  4473   0010A0                     
  4474                           ; BSR set to: 4
  4475   0010A0  0E00               	movlw	0
  4476   0010A2  6E0E               	movwf	(_inPipes+5)^0,c
  4477   0010A4  0E01               	movlw	1
  4478   0010A6  6E0D               	movwf	(_inPipes+4)^0,c
  4479   0010A8                     
  4480                           ; BSR set to: 4
  4481   0010A8  0EC1               	movlw	193
  4482   0010AA  6E0C               	movwf	(_inPipes+3)^0,c
  4483                           
  4484                           ;../source/usb/usb_device_hid.c: 188:             break;
  4485   0010AC  EF95  F008         	goto	l511
  4486   0010B0                     l1395:
  4487                           
  4488                           ; BSR set to: 4
  4489                           ;../source/usb/usb_device_hid.c: 190:             inPipes[0].info.Val = 0x00 | 0x80;
  4490   0010B0  0E80               	movlw	128
  4491   0010B2  6E0C               	movwf	(_inPipes+3)^0,c
  4492   0010B4                     
  4493                           ; BSR set to: 4
  4494                           ;../source/usb/usb_device_hid.c: 191:             idle_rate = SetupPkt.W_Value.byte.HB;
  4495   0010B4  C423 F036          	movff	1059,_idle_rate	;volatile
  4496                           
  4497                           ;../source/usb/usb_device_hid.c: 193:             break;
  4498   0010B8  EF95  F008         	goto	l511
  4499   0010BC                     l1399:
  4500                           
  4501                           ; BSR set to: 4
  4502                           ;../source/usb/usb_device_hid.c: 195:             { inPipes[0].pSrc.bRam = (uint8_t*)&ac
      +                          tive_protocol; inPipes[0].wCount.Val = 1; inPipes[0].info.Val = 0x00 | 0x80 | 0x01; };
  4503   0010BC  0E35               	movlw	low _active_protocol
  4504   0010BE  6E09               	movwf	_inPipes^0,c
  4505   0010C0  0E00               	movlw	high _active_protocol
  4506   0010C2  6E0A               	movwf	(_inPipes+1)^0,c
  4507   0010C4                     
  4508                           ; BSR set to: 4
  4509   0010C4  0E00               	movlw	0
  4510   0010C6  6E0E               	movwf	(_inPipes+5)^0,c
  4511   0010C8  0E01               	movlw	1
  4512   0010CA  6E0D               	movwf	(_inPipes+4)^0,c
  4513   0010CC                     
  4514                           ; BSR set to: 4
  4515   0010CC  0E81               	movlw	129
  4516   0010CE  6E0C               	movwf	(_inPipes+3)^0,c
  4517                           
  4518                           ;../source/usb/usb_device_hid.c: 199:             break;
  4519   0010D0  EF95  F008         	goto	l511
  4520   0010D4                     l1405:
  4521                           
  4522                           ; BSR set to: 4
  4523                           ;../source/usb/usb_device_hid.c: 201:             inPipes[0].info.Val = 0x00 | 0x80;
  4524   0010D4  0E80               	movlw	128
  4525   0010D6  6E0C               	movwf	(_inPipes+3)^0,c
  4526   0010D8                     
  4527                           ; BSR set to: 4
  4528                           ;../source/usb/usb_device_hid.c: 202:             active_protocol = SetupPkt.W_Value.byt
      +                          e.LB;
  4529   0010D8  C422 F035          	movff	1058,_active_protocol	;volatile
  4530                           
  4531                           ;../source/usb/usb_device_hid.c: 203:             break;
  4532   0010DC  EF95  F008         	goto	l511
  4533   0010E0                     l1411:
  4534                           
  4535                           ; BSR set to: 4
  4536   0010E0  5121               	movf	33,w,b	;volatile
  4537   0010E2  6E3A               	movwf	??_USBCheckHIDRequest^0,c
  4538   0010E4  6A3B               	clrf	(??_USBCheckHIDRequest+1)^0,c
  4539                           
  4540                           ; Switch on 2 bytes has been partitioned into a top level switch of size 1, and 1 sub-sw
      +                          itches
  4541                           ; Switch size 1, requested type "simple"
  4542                           ; Number of cases is 1, Range of values is 0 to 0
  4543                           ; switch strategies available:
  4544                           ; Name         Instructions Cycles
  4545                           ; simple_byte            4     3 (average)
  4546                           ;	Chosen strategy is simple_byte
  4547   0010E6  503B               	movf	(??_USBCheckHIDRequest+1)^0,w,c
  4548   0010E8  0A00               	xorlw	0	; case 0
  4549   0010EA  B4D8               	btfsc	status,2,c
  4550   0010EC  EF7A  F008         	goto	l3645
  4551   0010F0  EF95  F008         	goto	l511
  4552   0010F4                     l3645:
  4553                           
  4554                           ; BSR set to: 4
  4555                           ; Switch size 1, requested type "simple"
  4556                           ; Number of cases is 6, Range of values is 1 to 11
  4557                           ; switch strategies available:
  4558                           ; Name         Instructions Cycles
  4559                           ; simple_byte           19    10 (average)
  4560                           ;	Chosen strategy is simple_byte
  4561   0010F4  503A               	movf	??_USBCheckHIDRequest^0,w,c
  4562   0010F6  0A01               	xorlw	1	; case 1
  4563   0010F8  B4D8               	btfsc	status,2,c
  4564   0010FA  EF95  F008         	goto	l511
  4565   0010FE  0A03               	xorlw	3	; case 2
  4566   001100  B4D8               	btfsc	status,2,c
  4567   001102  EF4C  F008         	goto	l1389
  4568   001106  0A01               	xorlw	1	; case 3
  4569   001108  B4D8               	btfsc	status,2,c
  4570   00110A  EF5E  F008         	goto	l1399
  4571   00110E  0A0A               	xorlw	10	; case 9
  4572   001110  B4D8               	btfsc	status,2,c
  4573   001112  EF95  F008         	goto	l511
  4574   001116  0A03               	xorlw	3	; case 10
  4575   001118  B4D8               	btfsc	status,2,c
  4576   00111A  EF58  F008         	goto	l1395
  4577   00111E  0A01               	xorlw	1	; case 11
  4578   001120  B4D8               	btfsc	status,2,c
  4579   001122  EF6A  F008         	goto	l1405
  4580   001126  EF95  F008         	goto	l511
  4581   00112A                     l511:
  4582                           
  4583                           ; BSR set to: 4
  4584   00112A  0012               	return		;funcret
  4585   00112C                     __end_of_USBCheckHIDRequest:
  4586                           	callstack 0
  4587                           
  4588 ;; *************** function _SYSTEM_Initialize *****************
  4589 ;; Defined at:
  4590 ;;		line 57 in file "system.c"
  4591 ;; Parameters:    Size  Location     Type
  4592 ;;  state           1    wreg     enum E3889
  4593 ;; Auto vars:     Size  Location     Type
  4594 ;;  state           1    5[COMRAM] enum E3889
  4595 ;; Return value:  Size  Location     Type
  4596 ;;                  1    wreg      void 
  4597 ;; Registers used:
  4598 ;;		wreg, status,2, status,0, cstack
  4599 ;; Tracked objects:
  4600 ;;		On entry : 0/0
  4601 ;;		On exit  : 0/0
  4602 ;;		Unchanged: 0/0
  4603 ;; Data sizes:     COMRAM   BANK0   BANK1   BANK2   BANK3   BANK4   BANK5   BANK6   BANK7
  4604 ;;      Params:         0       0       0       0       0       0       0       0       0
  4605 ;;      Locals:         1       0       0       0       0       0       0       0       0
  4606 ;;      Temps:          2       0       0       0       0       0       0       0       0
  4607 ;;      Totals:         3       0       0       0       0       0       0       0       0
  4608 ;;Total ram usage:        3 bytes
  4609 ;; Hardware stack levels used: 1
  4610 ;; Hardware stack levels required when called: 2
  4611 ;; This function calls:
  4612 ;;		_ADC_Enable
  4613 ;;		_ADC_SetConfiguration
  4614 ;; This function is called by:
  4615 ;;		_USER_USB_CALLBACK_EVENT_HANDLER
  4616 ;;		_main
  4617 ;; This function uses a non-reentrant model
  4618 ;;
  4619                           
  4620                           	psect	text20
  4621   0023BA                     __ptext20:
  4622                           	callstack 0
  4623   0023BA                     _SYSTEM_Initialize:
  4624                           	callstack 26
  4625                           
  4626                           ; BSR set to: 4
  4627                           ;incstack = 0
  4628                           ;SYSTEM_Initialize@state stored from wreg
  4629   0023BA  6E3F               	movwf	SYSTEM_Initialize@state^0,c
  4630   0023BC                     
  4631                           ;system.c: 57: void SYSTEM_Initialize( SYSTEM_STATE state );system.c: 58: {;system.c: 59
      +                          :     switch(state)
  4632   0023BC  EFEE  F011         	goto	l1441
  4633   0023C0                     l1431:
  4634                           
  4635                           ;system.c: 65:             ADC_SetConfiguration(ADC_CONFIGURATION_DEFAULT);
  4636   0023C0  0E00               	movlw	0
  4637   0023C2  ECC4  F012         	call	_ADC_SetConfiguration
  4638   0023C6                     
  4639                           ;system.c: 66:             ADC_Enable(ADC_CHANNEL_0);
  4640   0023C6  0E00               	movlw	0
  4641   0023C8  EC31  F010         	call	_ADC_Enable
  4642   0023CC                     
  4643                           ;system.c: 67:             ADC_Enable(ADC_CHANNEL_1);
  4644   0023CC  0E01               	movlw	1
  4645   0023CE  EC31  F010         	call	_ADC_Enable
  4646   0023D2                     
  4647                           ;system.c: 68:             ADC_Enable(ADC_CHANNEL_2);
  4648   0023D2  0E02               	movlw	2
  4649   0023D4  EC31  F010         	call	_ADC_Enable
  4650                           
  4651                           ;system.c: 70:             break;
  4652   0023D8  EF07  F012         	goto	l583
  4653   0023DC                     l1441:
  4654   0023DC  503F               	movf	SYSTEM_Initialize@state^0,w,c
  4655   0023DE  6E3D               	movwf	??_SYSTEM_Initialize^0,c
  4656   0023E0  6A3E               	clrf	(??_SYSTEM_Initialize+1)^0,c
  4657                           
  4658                           ; Switch on 2 bytes has been partitioned into a top level switch of size 1, and 1 sub-sw
      +                          itches
  4659                           ; Switch size 1, requested type "simple"
  4660                           ; Number of cases is 1, Range of values is 0 to 0
  4661                           ; switch strategies available:
  4662                           ; Name         Instructions Cycles
  4663                           ; simple_byte            4     3 (average)
  4664                           ;	Chosen strategy is simple_byte
  4665   0023E2  503E               	movf	(??_SYSTEM_Initialize+1)^0,w,c
  4666   0023E4  0A00               	xorlw	0	; case 0
  4667   0023E6  B4D8               	btfsc	status,2,c
  4668   0023E8  EFF8  F011         	goto	l3647
  4669   0023EC  EF07  F012         	goto	l583
  4670   0023F0                     l3647:
  4671                           
  4672                           ; Switch size 1, requested type "simple"
  4673                           ; Number of cases is 3, Range of values is 0 to 2
  4674                           ; switch strategies available:
  4675                           ; Name         Instructions Cycles
  4676                           ; simple_byte           10     6 (average)
  4677                           ;	Chosen strategy is simple_byte
  4678   0023F0  503D               	movf	??_SYSTEM_Initialize^0,w,c
  4679   0023F2  0A00               	xorlw	0	; case 0
  4680   0023F4  B4D8               	btfsc	status,2,c
  4681   0023F6  EFE0  F011         	goto	l1431
  4682   0023FA  0A01               	xorlw	1	; case 1
  4683   0023FC  B4D8               	btfsc	status,2,c
  4684   0023FE  EF07  F012         	goto	l583
  4685   002402  0A03               	xorlw	3	; case 2
  4686   002404  B4D8               	btfsc	status,2,c
  4687   002406  EF07  F012         	goto	l583
  4688   00240A  EF07  F012         	goto	l583
  4689   00240E                     l583:
  4690   00240E  0012               	return		;funcret
  4691   002410                     __end_of_SYSTEM_Initialize:
  4692                           	callstack 0
  4693                           
  4694 ;; *************** function _ADC_SetConfiguration *****************
  4695 ;; Defined at:
  4696 ;;		line 175 in file "../source/adc.c"
  4697 ;; Parameters:    Size  Location     Type
  4698 ;;  configuratio    1    wreg     enum E48
  4699 ;; Auto vars:     Size  Location     Type
  4700 ;;  configuratio    1    0[COMRAM] enum E48
  4701 ;; Return value:  Size  Location     Type
  4702 ;;                  1    wreg      _Bool 
  4703 ;; Registers used:
  4704 ;;		wreg, status,2
  4705 ;; Tracked objects:
  4706 ;;		On entry : 0/0
  4707 ;;		On exit  : 0/0
  4708 ;;		Unchanged: 0/0
  4709 ;; Data sizes:     COMRAM   BANK0   BANK1   BANK2   BANK3   BANK4   BANK5   BANK6   BANK7
  4710 ;;      Params:         0       0       0       0       0       0       0       0       0
  4711 ;;      Locals:         1       0       0       0       0       0       0       0       0
  4712 ;;      Temps:          0       0       0       0       0       0       0       0       0
  4713 ;;      Totals:         1       0       0       0       0       0       0       0       0
  4714 ;;Total ram usage:        1 bytes
  4715 ;; Hardware stack levels used: 1
  4716 ;; Hardware stack levels required when called: 1
  4717 ;; This function calls:
  4718 ;;		Nothing
  4719 ;; This function is called by:
  4720 ;;		_SYSTEM_Initialize
  4721 ;; This function uses a non-reentrant model
  4722 ;;
  4723                           
  4724                           	psect	text21
  4725   002588                     __ptext21:
  4726                           	callstack 0
  4727   002588                     _ADC_SetConfiguration:
  4728                           	callstack 26
  4729                           
  4730                           ;incstack = 0
  4731                           ;ADC_SetConfiguration@configuration stored from wreg
  4732   002588  6E3A               	movwf	ADC_SetConfiguration@configuration^0,c
  4733   00258A                     
  4734                           ;../source/adc.c: 175: _Bool ADC_SetConfiguration(ADC_CONFIGURATION configuration);../so
      +                          urce/adc.c: 176: {;../source/adc.c: 177:     if(configuration == ADC_CONFIGURATION_DEFAU
      +                          LT)
  4735   00258A  503A               	movf	ADC_SetConfiguration@configuration^0,w,c
  4736   00258C  A4D8               	btfss	status,2,c
  4737   00258E  EFCB  F012         	goto	u21
  4738   002592  EFCD  F012         	goto	u20
  4739   002596                     u21:
  4740   002596  EFD6  F012         	goto	l92
  4741   00259A                     u20:
  4742   00259A                     
  4743                           ;../source/adc.c: 178:     {;../source/adc.c: 179:         ADCON0=0x01;
  4744   00259A  0E01               	movlw	1
  4745   00259C  6EC2               	movwf	194,c	;volatile
  4746   00259E                     
  4747                           ;../source/adc.c: 180:         ADCON1bits.PCFG = 0b0101;
  4748   00259E  50C1               	movf	193,w,c	;volatile
  4749   0025A0  0BF0               	andlw	-16
  4750   0025A2  0905               	iorlw	5
  4751   0025A4  6EC1               	movwf	193,c	;volatile
  4752   0025A6                     
  4753                           ;../source/adc.c: 181:         ADCON2=0x3C;
  4754   0025A6  0E3C               	movlw	60
  4755   0025A8  6EC0               	movwf	192,c	;volatile
  4756   0025AA                     
  4757                           ;../source/adc.c: 182:         ADCON2bits.ADFM = 1;
  4758   0025AA  8EC0               	bsf	192,7,c	;volatile
  4759   0025AC                     l92:
  4760   0025AC  0012               	return		;funcret
  4761   0025AE                     __end_of_ADC_SetConfiguration:
  4762                           	callstack 0
  4763                           
  4764 ;; *************** function _ADC_Enable *****************
  4765 ;; Defined at:
  4766 ;;		line 123 in file "../source/adc.c"
  4767 ;; Parameters:    Size  Location     Type
  4768 ;;  channel         1    wreg     enum E36
  4769 ;; Auto vars:     Size  Location     Type
  4770 ;;  channel         1    2[COMRAM] enum E36
  4771 ;; Return value:  Size  Location     Type
  4772 ;;                  1    wreg      _Bool 
  4773 ;; Registers used:
  4774 ;;		wreg, status,2, status,0
  4775 ;; Tracked objects:
  4776 ;;		On entry : 0/0
  4777 ;;		On exit  : 0/0
  4778 ;;		Unchanged: 0/0
  4779 ;; Data sizes:     COMRAM   BANK0   BANK1   BANK2   BANK3   BANK4   BANK5   BANK6   BANK7
  4780 ;;      Params:         0       0       0       0       0       0       0       0       0
  4781 ;;      Locals:         1       0       0       0       0       0       0       0       0
  4782 ;;      Temps:          2       0       0       0       0       0       0       0       0
  4783 ;;      Totals:         3       0       0       0       0       0       0       0       0
  4784 ;;Total ram usage:        3 bytes
  4785 ;; Hardware stack levels used: 1
  4786 ;; Hardware stack levels required when called: 1
  4787 ;; This function calls:
  4788 ;;		Nothing
  4789 ;; This function is called by:
  4790 ;;		_SYSTEM_Initialize
  4791 ;; This function uses a non-reentrant model
  4792 ;;
  4793                           
  4794                           	psect	text22
  4795   002062                     __ptext22:
  4796                           	callstack 0
  4797   002062                     _ADC_Enable:
  4798                           	callstack 26
  4799                           
  4800                           ;incstack = 0
  4801                           ;ADC_Enable@channel stored from wreg
  4802   002062  6E3C               	movwf	ADC_Enable@channel^0,c
  4803   002064                     
  4804                           ;../source/adc.c: 123: _Bool ADC_Enable(ADC_CHANNEL channel);../source/adc.c: 124: {;../
      +                          source/adc.c: 125:     switch(channel)
  4805   002064  EF52  F010         	goto	l1325
  4806   002068                     l76:
  4807                           
  4808                           ;../source/adc.c: 128:             TRISAbits.TRISA0 = 1;
  4809   002068  8092               	bsf	146,0,c	;volatile
  4810                           
  4811                           ;../source/adc.c: 129:             return 1;;	Return value of _ADC_Enable is never used
  4812   00206A  EF87  F010         	goto	l77
  4813   00206E                     l78:
  4814                           
  4815                           ;../source/adc.c: 131:             TRISAbits.TRISA1 = 1;
  4816   00206E  8292               	bsf	146,1,c	;volatile
  4817                           
  4818                           ;../source/adc.c: 132:             return 1;;	Return value of _ADC_Enable is never used
  4819   002070  EF87  F010         	goto	l77
  4820   002074                     l79:
  4821                           
  4822                           ;../source/adc.c: 134:             TRISAbits.TRISA2 = 1;
  4823   002074  8492               	bsf	146,2,c	;volatile
  4824                           
  4825                           ;../source/adc.c: 135:             return 1;;	Return value of _ADC_Enable is never used
  4826   002076  EF87  F010         	goto	l77
  4827   00207A                     l80:
  4828                           
  4829                           ;../source/adc.c: 137:             TRISAbits.TRISA3 = 1;
  4830   00207A  8692               	bsf	146,3,c	;volatile
  4831                           
  4832                           ;../source/adc.c: 138:             return 1;;	Return value of _ADC_Enable is never used
  4833   00207C  EF87  F010         	goto	l77
  4834   002080                     l81:
  4835                           
  4836                           ;../source/adc.c: 140:             TRISAbits.TRISA5 = 1;
  4837   002080  8A92               	bsf	146,5,c	;volatile
  4838                           
  4839                           ;../source/adc.c: 141:             return 1;;	Return value of _ADC_Enable is never used
  4840   002082  EF87  F010         	goto	l77
  4841   002086                     l82:
  4842                           
  4843                           ;../source/adc.c: 143:             TRISEbits.TRISE0 = 1;
  4844   002086  8096               	bsf	150,0,c	;volatile
  4845                           
  4846                           ;../source/adc.c: 144:             return 1;;	Return value of _ADC_Enable is never used
  4847   002088  EF87  F010         	goto	l77
  4848   00208C                     l83:
  4849                           
  4850                           ;../source/adc.c: 146:             TRISEbits.TRISE1 = 1;
  4851   00208C  8296               	bsf	150,1,c	;volatile
  4852                           
  4853                           ;../source/adc.c: 147:             return 1;;	Return value of _ADC_Enable is never used
  4854   00208E  EF87  F010         	goto	l77
  4855   002092                     l84:
  4856                           
  4857                           ;../source/adc.c: 149:             TRISEbits.TRISE2 = 1;
  4858   002092  8496               	bsf	150,2,c	;volatile
  4859                           
  4860                           ;../source/adc.c: 150:             return 1;;	Return value of _ADC_Enable is never used
  4861   002094  EF87  F010         	goto	l77
  4862   002098                     l85:
  4863                           
  4864                           ;../source/adc.c: 152:             TRISBbits.TRISB2 = 1;
  4865   002098  8493               	bsf	147,2,c	;volatile
  4866                           
  4867                           ;../source/adc.c: 153:             return 1;;	Return value of _ADC_Enable is never used
  4868   00209A  EF87  F010         	goto	l77
  4869   00209E                     l86:
  4870                           
  4871                           ;../source/adc.c: 155:             TRISBbits.TRISB3 = 1;
  4872   00209E  8693               	bsf	147,3,c	;volatile
  4873                           
  4874                           ;../source/adc.c: 156:             return 1;;	Return value of _ADC_Enable is never used
  4875   0020A0  EF87  F010         	goto	l77
  4876   0020A4                     l1325:
  4877   0020A4  503C               	movf	ADC_Enable@channel^0,w,c
  4878   0020A6  6E3A               	movwf	??_ADC_Enable^0,c
  4879   0020A8  6A3B               	clrf	(??_ADC_Enable+1)^0,c
  4880                           
  4881                           ; Switch on 2 bytes has been partitioned into a top level switch of size 1, and 1 sub-sw
      +                          itches
  4882                           ; Switch size 1, requested type "simple"
  4883                           ; Number of cases is 1, Range of values is 0 to 0
  4884                           ; switch strategies available:
  4885                           ; Name         Instructions Cycles
  4886                           ; simple_byte            4     3 (average)
  4887                           ;	Chosen strategy is simple_byte
  4888   0020AA  503B               	movf	(??_ADC_Enable+1)^0,w,c
  4889   0020AC  0A00               	xorlw	0	; case 0
  4890   0020AE  B4D8               	btfsc	status,2,c
  4891   0020B0  EF5C  F010         	goto	l3649
  4892   0020B4  EF87  F010         	goto	l77
  4893   0020B8                     l3649:
  4894                           
  4895                           ; Switch size 1, requested type "simple"
  4896                           ; Number of cases is 10, Range of values is 0 to 9
  4897                           ; switch strategies available:
  4898                           ; Name         Instructions Cycles
  4899                           ; simple_byte           31    16 (average)
  4900                           ;	Chosen strategy is simple_byte
  4901   0020B8  503A               	movf	??_ADC_Enable^0,w,c
  4902   0020BA  0A00               	xorlw	0	; case 0
  4903   0020BC  B4D8               	btfsc	status,2,c
  4904   0020BE  EF34  F010         	goto	l76
  4905   0020C2  0A01               	xorlw	1	; case 1
  4906   0020C4  B4D8               	btfsc	status,2,c
  4907   0020C6  EF37  F010         	goto	l78
  4908   0020CA  0A03               	xorlw	3	; case 2
  4909   0020CC  B4D8               	btfsc	status,2,c
  4910   0020CE  EF3A  F010         	goto	l79
  4911   0020D2  0A01               	xorlw	1	; case 3
  4912   0020D4  B4D8               	btfsc	status,2,c
  4913   0020D6  EF3D  F010         	goto	l80
  4914   0020DA  0A07               	xorlw	7	; case 4
  4915   0020DC  B4D8               	btfsc	status,2,c
  4916   0020DE  EF40  F010         	goto	l81
  4917   0020E2  0A01               	xorlw	1	; case 5
  4918   0020E4  B4D8               	btfsc	status,2,c
  4919   0020E6  EF43  F010         	goto	l82
  4920   0020EA  0A03               	xorlw	3	; case 6
  4921   0020EC  B4D8               	btfsc	status,2,c
  4922   0020EE  EF46  F010         	goto	l83
  4923   0020F2  0A01               	xorlw	1	; case 7
  4924   0020F4  B4D8               	btfsc	status,2,c
  4925   0020F6  EF49  F010         	goto	l84
  4926   0020FA  0A0F               	xorlw	15	; case 8
  4927   0020FC  B4D8               	btfsc	status,2,c
  4928   0020FE  EF4C  F010         	goto	l85
  4929   002102  0A01               	xorlw	1	; case 9
  4930   002104  B4D8               	btfsc	status,2,c
  4931   002106  EF4F  F010         	goto	l86
  4932   00210A  EF87  F010         	goto	l77
  4933   00210E                     l77:
  4934   00210E  0012               	return		;funcret
  4935   002110                     __end_of_ADC_Enable:
  4936                           	callstack 0
  4937                           
  4938 ;; *************** function _APP_DeviceJoystickInitialize *****************
  4939 ;; Defined at:
  4940 ;;		line 102 in file "../source/app_device_joystick.c"
  4941 ;; Parameters:    Size  Location     Type
  4942 ;;		None
  4943 ;; Auto vars:     Size  Location     Type
  4944 ;;		None
  4945 ;; Return value:  Size  Location     Type
  4946 ;;                  1    wreg      void 
  4947 ;; Registers used:
  4948 ;;		wreg, fsr2l, fsr2h, status,2, status,0, prodl, prodh, cstack
  4949 ;; Tracked objects:
  4950 ;;		On entry : 0/0
  4951 ;;		On exit  : 0/0
  4952 ;;		Unchanged: 0/0
  4953 ;; Data sizes:     COMRAM   BANK0   BANK1   BANK2   BANK3   BANK4   BANK5   BANK6   BANK7
  4954 ;;      Params:         0       0       0       0       0       0       0       0       0
  4955 ;;      Locals:         0       0       0       0       0       0       0       0       0
  4956 ;;      Temps:          0       0       0       0       0       0       0       0       0
  4957 ;;      Totals:         0       0       0       0       0       0       0       0       0
  4958 ;;Total ram usage:        0 bytes
  4959 ;; Hardware stack levels used: 1
  4960 ;; Hardware stack levels required when called: 3
  4961 ;; This function calls:
  4962 ;;		_USBEnableEndpoint
  4963 ;; This function is called by:
  4964 ;;		_USER_USB_CALLBACK_EVENT_HANDLER
  4965 ;; This function uses a non-reentrant model
  4966 ;;
  4967                           
  4968                           	psect	text23
  4969   0025C8                     __ptext23:
  4970                           	callstack 0
  4971   0025C8                     _APP_DeviceJoystickInitialize:
  4972                           	callstack 25
  4973   0025C8                     
  4974                           ;../source/app_device_joystick.c: 106:     lastTransmission = 0;
  4975   0025C8  0E00               	movlw	0
  4976   0025CA  6E1B               	movwf	_lastTransmission^0,c
  4977   0025CC  0E00               	movlw	0
  4978   0025CE  6E1C               	movwf	(_lastTransmission+1)^0,c
  4979   0025D0                     
  4980                           ;../source/app_device_joystick.c: 109:     USBEnableEndpoint(1,0x02|0x10|0x08);
  4981   0025D0  0E1A               	movlw	26
  4982   0025D2  6E44               	movwf	USBEnableEndpoint@options^0,c
  4983   0025D4  0E01               	movlw	1
  4984   0025D6  EC30  F012         	call	_USBEnableEndpoint
  4985   0025DA  0012               	return		;funcret
  4986   0025DC                     __end_of_APP_DeviceJoystickInitialize:
  4987                           	callstack 0
  4988                           
  4989 ;; *************** function _USBEnableEndpoint *****************
  4990 ;; Defined at:
  4991 ;;		line 838 in file "../source/usb/usb_device.c"
  4992 ;; Parameters:    Size  Location     Type
  4993 ;;  ep              1    wreg     unsigned char 
  4994 ;;  options         1   10[COMRAM] unsigned char 
  4995 ;; Auto vars:     Size  Location     Type
  4996 ;;  ep              1   13[COMRAM] unsigned char 
  4997 ;;  p               2   11[COMRAM] PTR unsigned char 
  4998 ;;		 -> UEP0(1), 
  4999 ;; Return value:  Size  Location     Type
  5000 ;;                  1    wreg      void 
  5001 ;; Registers used:
  5002 ;;		wreg, fsr2l, fsr2h, status,2, status,0, prodl, prodh, cstack
  5003 ;; Tracked objects:
  5004 ;;		On entry : 0/0
  5005 ;;		On exit  : 0/0
  5006 ;;		Unchanged: 0/0
  5007 ;; Data sizes:     COMRAM   BANK0   BANK1   BANK2   BANK3   BANK4   BANK5   BANK6   BANK7
  5008 ;;      Params:         1       0       0       0       0       0       0       0       0
  5009 ;;      Locals:         3       0       0       0       0       0       0       0       0
  5010 ;;      Temps:          0       0       0       0       0       0       0       0       0
  5011 ;;      Totals:         4       0       0       0       0       0       0       0       0
  5012 ;;Total ram usage:        4 bytes
  5013 ;; Hardware stack levels used: 1
  5014 ;; Hardware stack levels required when called: 2
  5015 ;; This function calls:
  5016 ;;		_USBConfigureEndpoint
  5017 ;; This function is called by:
  5018 ;;		_APP_DeviceJoystickInitialize
  5019 ;; This function uses a non-reentrant model
  5020 ;;
  5021                           
  5022                           	psect	text24
  5023   002460                     __ptext24:
  5024                           	callstack 0
  5025   002460                     _USBEnableEndpoint:
  5026                           	callstack 25
  5027                           
  5028                           ;incstack = 0
  5029                           ;USBEnableEndpoint@ep stored from wreg
  5030   002460  6E47               	movwf	USBEnableEndpoint@ep^0,c
  5031   002462                     
  5032                           ;../source/usb/usb_device.c: 838: void USBEnableEndpoint(uint8_t ep, uint8_t options);..
      +                          /source/usb/usb_device.c: 839: {;../source/usb/usb_device.c: 840:     unsigned char* p;;
      +                          ../source/usb/usb_device.c: 844:     if(options & 0x04)
  5033   002462  A444               	btfss	USBEnableEndpoint@options^0,2,c
  5034   002464  EF36  F012         	goto	u1391
  5035   002468  EF38  F012         	goto	u1390
  5036   00246C                     u1391:
  5037   00246C  EF3D  F012         	goto	l2743
  5038   002470                     u1390:
  5039   002470                     
  5040                           ;../source/usb/usb_device.c: 845:     {;../source/usb/usb_device.c: 846:         USBConf
      +                          igureEndpoint(ep, 0);
  5041   002470  0E00               	movlw	0
  5042   002472  6E3A               	movwf	USBConfigureEndpoint@direction^0,c
  5043   002474  5047               	movf	USBEnableEndpoint@ep^0,w,c
  5044   002476  ECD9  F00F         	call	_USBConfigureEndpoint
  5045   00247A                     l2743:
  5046                           
  5047                           ;../source/usb/usb_device.c: 848:     if(options & 0x02)
  5048   00247A  A244               	btfss	USBEnableEndpoint@options^0,1,c
  5049   00247C  EF42  F012         	goto	u1401
  5050   002480  EF44  F012         	goto	u1400
  5051   002484                     u1401:
  5052   002484  EF49  F012         	goto	l2747
  5053   002488                     u1400:
  5054   002488                     
  5055                           ;../source/usb/usb_device.c: 849:     {;../source/usb/usb_device.c: 850:         USBConf
      +                          igureEndpoint(ep, 1);
  5056   002488  0E01               	movlw	1
  5057   00248A  6E3A               	movwf	USBConfigureEndpoint@direction^0,c
  5058   00248C  5047               	movf	USBEnableEndpoint@ep^0,w,c
  5059   00248E  ECD9  F00F         	call	_USBConfigureEndpoint
  5060   002492                     l2747:
  5061                           
  5062                           ;../source/usb/usb_device.c: 859:         p = (unsigned char*)(&UEP0+ep);
  5063   002492  0E70               	movlw	112
  5064   002494  2447               	addwf	USBEnableEndpoint@ep^0,w,c
  5065   002496  6E45               	movwf	USBEnableEndpoint@p^0,c
  5066   002498  6A46               	clrf	(USBEnableEndpoint@p+1)^0,c
  5067   00249A  0E0F               	movlw	15
  5068   00249C  2246               	addwfc	(USBEnableEndpoint@p+1)^0,f,c
  5069   00249E                     
  5070                           ;../source/usb/usb_device.c: 861:     *p = options;
  5071   00249E  C045  FFD9         	movff	USBEnableEndpoint@p,fsr2l
  5072   0024A2  C046  FFDA         	movff	USBEnableEndpoint@p+1,fsr2h
  5073   0024A6  C044  FFDF         	movff	USBEnableEndpoint@options,indf2
  5074   0024AA  0012               	return		;funcret
  5075   0024AC                     __end_of_USBEnableEndpoint:
  5076                           	callstack 0
  5077                           
  5078 ;; *************** function _USBConfigureEndpoint *****************
  5079 ;; Defined at:
  5080 ;;		line 1503 in file "../source/usb/usb_device.c"
  5081 ;; Parameters:    Size  Location     Type
  5082 ;;  EPNum           1    wreg     unsigned char 
  5083 ;;  direction       1    0[COMRAM] unsigned char 
  5084 ;; Auto vars:     Size  Location     Type
  5085 ;;  EPNum           1    7[COMRAM] unsigned char 
  5086 ;;  handle          2    8[COMRAM] PTR volatile struct __BD
  5087 ;;		 -> BDT(32), 
  5088 ;; Return value:  Size  Location     Type
  5089 ;;                  1    wreg      void 
  5090 ;; Registers used:
  5091 ;;		wreg, fsr2l, fsr2h, status,2, status,0, prodl, prodh
  5092 ;; Tracked objects:
  5093 ;;		On entry : 0/0
  5094 ;;		On exit  : 0/0
  5095 ;;		Unchanged: 0/0
  5096 ;; Data sizes:     COMRAM   BANK0   BANK1   BANK2   BANK3   BANK4   BANK5   BANK6   BANK7
  5097 ;;      Params:         1       0       0       0       0       0       0       0       0
  5098 ;;      Locals:         3       0       0       0       0       0       0       0       0
  5099 ;;      Temps:          6       0       0       0       0       0       0       0       0
  5100 ;;      Totals:        10       0       0       0       0       0       0       0       0
  5101 ;;Total ram usage:       10 bytes
  5102 ;; Hardware stack levels used: 1
  5103 ;; Hardware stack levels required when called: 1
  5104 ;; This function calls:
  5105 ;;		Nothing
  5106 ;; This function is called by:
  5107 ;;		_USBEnableEndpoint
  5108 ;; This function uses a non-reentrant model
  5109 ;;
  5110                           
  5111                           	psect	text25
  5112   001FB2                     __ptext25:
  5113                           	callstack 0
  5114   001FB2                     _USBConfigureEndpoint:
  5115                           	callstack 25
  5116                           
  5117                           ;incstack = 0
  5118                           ;USBConfigureEndpoint@EPNum stored from wreg
  5119   001FB2  6E41               	movwf	USBConfigureEndpoint@EPNum^0,c
  5120   001FB4                     
  5121                           ;../source/usb/usb_device.c: 1503: static void USBConfigureEndpoint(uint8_t EPNum, uint8
      +                          _t direction);../source/usb/usb_device.c: 1504: {;../source/usb/usb_device.c: 1505:     
      +                          volatile BDT_ENTRY* handle;;../source/usb/usb_device.c: 1509:     handle = (volatile BDT
      +                          _ENTRY*)&BDT[0];
  5122   001FB4  0E00               	movlw	0
  5123   001FB6  6E42               	movwf	USBConfigureEndpoint@handle^0,c
  5124   001FB8  0E04               	movlw	4
  5125   001FBA  6E43               	movwf	(USBConfigureEndpoint@handle+1)^0,c
  5126   001FBC                     
  5127                           ;../source/usb/usb_device.c: 1510:     handle += (4*EPNum+2*direction+0u);
  5128   001FBC  503A               	movf	USBConfigureEndpoint@direction^0,w,c
  5129   001FBE  6E3B               	movwf	??_USBConfigureEndpoint^0,c
  5130   001FC0  6A3C               	clrf	(??_USBConfigureEndpoint+1)^0,c
  5131   001FC2  90D8               	bcf	status,0,c
  5132   001FC4  363B               	rlcf	??_USBConfigureEndpoint^0,f,c
  5133   001FC6  363C               	rlcf	(??_USBConfigureEndpoint+1)^0,f,c
  5134   001FC8  5041               	movf	USBConfigureEndpoint@EPNum^0,w,c
  5135   001FCA  6E3D               	movwf	(??_USBConfigureEndpoint+2)^0,c
  5136   001FCC  6A3E               	clrf	(??_USBConfigureEndpoint+3)^0,c
  5137   001FCE  90D8               	bcf	status,0,c
  5138   001FD0  363D               	rlcf	(??_USBConfigureEndpoint+2)^0,f,c
  5139   001FD2  363E               	rlcf	(??_USBConfigureEndpoint+3)^0,f,c
  5140   001FD4  90D8               	bcf	status,0,c
  5141   001FD6  363D               	rlcf	(??_USBConfigureEndpoint+2)^0,f,c
  5142   001FD8  363E               	rlcf	(??_USBConfigureEndpoint+3)^0,f,c
  5143   001FDA  503B               	movf	??_USBConfigureEndpoint^0,w,c
  5144   001FDC  243D               	addwf	(??_USBConfigureEndpoint+2)^0,w,c
  5145   001FDE  6E3F               	movwf	(??_USBConfigureEndpoint+4)^0,c
  5146   001FE0  503C               	movf	(??_USBConfigureEndpoint+1)^0,w,c
  5147   001FE2  203E               	addwfc	(??_USBConfigureEndpoint+3)^0,w,c
  5148   001FE4  6E40               	movwf	(??_USBConfigureEndpoint+5)^0,c
  5149   001FE6  90D8               	bcf	status,0,c
  5150   001FE8  363F               	rlcf	(??_USBConfigureEndpoint+4)^0,f,c
  5151   001FEA  3640               	rlcf	(??_USBConfigureEndpoint+5)^0,f,c
  5152   001FEC  90D8               	bcf	status,0,c
  5153   001FEE  363F               	rlcf	(??_USBConfigureEndpoint+4)^0,f,c
  5154   001FF0  3640               	rlcf	(??_USBConfigureEndpoint+5)^0,f,c
  5155   001FF2  503F               	movf	(??_USBConfigureEndpoint+4)^0,w,c
  5156   001FF4  2642               	addwf	USBConfigureEndpoint@handle^0,f,c
  5157   001FF6  5040               	movf	(??_USBConfigureEndpoint+5)^0,w,c
  5158   001FF8  2243               	addwfc	(USBConfigureEndpoint@handle+1)^0,f,c
  5159   001FFA                     
  5160                           ;../source/usb/usb_device.c: 1512:     handle->STAT.UOWN = 0;
  5161   001FFA  C042  FFD9         	movff	USBConfigureEndpoint@handle,fsr2l
  5162   001FFE  C043  FFDA         	movff	USBConfigureEndpoint@handle+1,fsr2h
  5163   002002  9EDF               	bcf	indf2,7,c
  5164   002004                     
  5165                           ;../source/usb/usb_device.c: 1517:     if(direction == 0)
  5166   002004  503A               	movf	USBConfigureEndpoint@direction^0,w,c
  5167   002006  A4D8               	btfss	status,2,c
  5168   002008  EF08  F010         	goto	u1381
  5169   00200C  EF0A  F010         	goto	u1380
  5170   002010                     u1381:
  5171   002010  EF18  F010         	goto	l2733
  5172   002014                     u1380:
  5173   002014                     
  5174                           ;../source/usb/usb_device.c: 1518:     {;../source/usb/usb_device.c: 1519:         pBDTE
      +                          ntryOut[EPNum] = handle;
  5175   002014  5041               	movf	USBConfigureEndpoint@EPNum^0,w,c
  5176   002016  0D02               	mullw	2
  5177   002018  0E17               	movlw	low _pBDTEntryOut
  5178   00201A  24F3               	addwf	243,w,c
  5179   00201C  6ED9               	movwf	fsr2l,c
  5180   00201E  0E00               	movlw	high _pBDTEntryOut
  5181   002020  20F4               	addwfc	prodh,w,c
  5182   002022  6EDA               	movwf	fsr2h,c
  5183   002024  C042  FFDE         	movff	USBConfigureEndpoint@handle,postinc2
  5184   002028  C043  FFDD         	movff	USBConfigureEndpoint@handle+1,postdec2
  5185                           
  5186                           ;../source/usb/usb_device.c: 1520:     }
  5187   00202C  EF24  F010         	goto	l2735
  5188   002030                     l2733:
  5189                           
  5190                           ;../source/usb/usb_device.c: 1522:     {;../source/usb/usb_device.c: 1523:         pBDTE
      +                          ntryIn[EPNum] = handle;
  5191   002030  5041               	movf	USBConfigureEndpoint@EPNum^0,w,c
  5192   002032  0D02               	mullw	2
  5193   002034  0E13               	movlw	low _pBDTEntryIn
  5194   002036  24F3               	addwf	243,w,c
  5195   002038  6ED9               	movwf	fsr2l,c
  5196   00203A  0E00               	movlw	high _pBDTEntryIn
  5197   00203C  20F4               	addwfc	prodh,w,c
  5198   00203E  6EDA               	movwf	fsr2h,c
  5199   002040  C042  FFDE         	movff	USBConfigureEndpoint@handle,postinc2
  5200   002044  C043  FFDD         	movff	USBConfigureEndpoint@handle+1,postdec2
  5201   002048                     l2735:
  5202                           
  5203                           ;../source/usb/usb_device.c: 1527:         handle->STAT.DTS = 0;
  5204   002048  C042  FFD9         	movff	USBConfigureEndpoint@handle,fsr2l
  5205   00204C  C043  FFDA         	movff	USBConfigureEndpoint@handle+1,fsr2h
  5206   002050  9CDF               	bcf	indf2,6,c
  5207   002052                     
  5208                           ;../source/usb/usb_device.c: 1528:         (handle+1)->STAT.DTS = 1;
  5209   002052  EE20 F004          	lfsr	2,4
  5210   002056  5042               	movf	USBConfigureEndpoint@handle^0,w,c
  5211   002058  26D9               	addwf	fsr2l,f,c
  5212   00205A  5043               	movf	(USBConfigureEndpoint@handle+1)^0,w,c
  5213   00205C  22DA               	addwfc	fsr2h,f,c
  5214   00205E  8CDF               	bsf	indf2,6,c
  5215   002060  0012               	return		;funcret
  5216   002062                     __end_of_USBConfigureEndpoint:
  5217                           	callstack 0
  5218                           
  5219 ;; *************** function _USBCtrlTrfOutHandler *****************
  5220 ;; Defined at:
  5221 ;;		line 2501 in file "../source/usb/usb_device.c"
  5222 ;; Parameters:    Size  Location     Type
  5223 ;;		None
  5224 ;; Auto vars:     Size  Location     Type
  5225 ;;		None
  5226 ;; Return value:  Size  Location     Type
  5227 ;;                  1    wreg      void 
  5228 ;; Registers used:
  5229 ;;		wreg, fsr1l, fsr1h, fsr2l, fsr2h, status,2, status,0, cstack
  5230 ;; Tracked objects:
  5231 ;;		On entry : 0/0
  5232 ;;		On exit  : 0/0
  5233 ;;		Unchanged: 0/0
  5234 ;; Data sizes:     COMRAM   BANK0   BANK1   BANK2   BANK3   BANK4   BANK5   BANK6   BANK7
  5235 ;;      Params:         0       0       0       0       0       0       0       0       0
  5236 ;;      Locals:         0       0       0       0       0       0       0       0       0
  5237 ;;      Temps:          0       0       0       0       0       0       0       0       0
  5238 ;;      Totals:         0       0       0       0       0       0       0       0       0
  5239 ;;Total ram usage:        0 bytes
  5240 ;; Hardware stack levels used: 1
  5241 ;; Hardware stack levels required when called: 3
  5242 ;; This function calls:
  5243 ;;		_USBCtrlTrfRxService
  5244 ;; This function is called by:
  5245 ;;		_USBCtrlEPService
  5246 ;; This function uses a non-reentrant model
  5247 ;;
  5248                           
  5249                           	psect	text26
  5250   0022E6                     __ptext26:
  5251                           	callstack 0
  5252   0022E6                     _USBCtrlTrfOutHandler:
  5253                           	callstack 25
  5254   0022E6                     
  5255                           ;../source/usb/usb_device.c: 2503:     if(controlTransferState == 2)
  5256   0022E6  0E02               	movlw	2
  5257   0022E8  1832               	xorwf	_controlTransferState^0,w,c
  5258   0022EA  A4D8               	btfss	status,2,c
  5259   0022EC  EF7A  F011         	goto	u751
  5260   0022F0  EF7C  F011         	goto	u750
  5261   0022F4                     u751:
  5262   0022F4  EF80  F011         	goto	l1983
  5263   0022F8                     u750:
  5264   0022F8                     
  5265                           ;../source/usb/usb_device.c: 2504:     {;../source/usb/usb_device.c: 2505:         USBCt
      +                          rlTrfRxService();
  5266   0022F8  ECE1  F009         	call	_USBCtrlTrfRxService	;wreg free
  5267                           
  5268                           ;../source/usb/usb_device.c: 2506:     }
  5269   0022FC  EFAC  F011         	goto	l411
  5270   002300                     l1983:
  5271                           
  5272                           ;../source/usb/usb_device.c: 2508:     {;../source/usb/usb_device.c: 2511:         contr
      +                          olTransferState = 0;
  5273   002300  0E00               	movlw	0
  5274   002302  6E32               	movwf	_controlTransferState^0,c
  5275                           
  5276                           ;../source/usb/usb_device.c: 2518:         if(BothEP0OutUOWNsSet == 0)
  5277   002304  502E               	movf	_BothEP0OutUOWNsSet^0,w,c
  5278   002306  A4D8               	btfss	status,2,c
  5279   002308  EF88  F011         	goto	u761
  5280   00230C  EF8A  F011         	goto	u760
  5281   002310                     u761:
  5282   002310  EFAA  F011         	goto	l1991
  5283   002314                     u760:
  5284   002314                     
  5285                           ;../source/usb/usb_device.c: 2519:         {;../source/usb/usb_device.c: 2520:          
      +                             pBDTEntryEP0OutNext->CNT = 8;
  5286   002314  EE20 F001          	lfsr	2,1
  5287   002318  5023               	movf	_pBDTEntryEP0OutNext^0,w,c
  5288   00231A  26D9               	addwf	fsr2l,f,c
  5289   00231C  5024               	movf	(_pBDTEntryEP0OutNext+1)^0,w,c
  5290   00231E  22DA               	addwfc	fsr2h,f,c
  5291   002320  0E08               	movlw	8
  5292   002322  6EDF               	movwf	indf2,c
  5293                           
  5294                           ;../source/usb/usb_device.c: 2521:             pBDTEntryEP0OutNext->ADR = ((uint16_t)(&S
      +                          etupPkt));
  5295   002324  EE20 F002          	lfsr	2,2
  5296   002328  5023               	movf	_pBDTEntryEP0OutNext^0,w,c
  5297   00232A  26D9               	addwf	fsr2l,f,c
  5298   00232C  5024               	movf	(_pBDTEntryEP0OutNext+1)^0,w,c
  5299   00232E  22DA               	addwfc	fsr2h,f,c
  5300   002330  0E20               	movlw	32
  5301   002332  6EDE               	movwf	postinc2,c
  5302   002334  0E04               	movlw	4
  5303   002336  6EDD               	movwf	postdec2,c
  5304   002338                     
  5305                           ;../source/usb/usb_device.c: 2522:             pBDTEntryEP0OutNext->STAT.Val = 0x00|(0x0
      +                          8 & 0x08)|0x04;
  5306   002338  C023  FFD9         	movff	_pBDTEntryEP0OutNext,fsr2l
  5307   00233C  C024  FFDA         	movff	_pBDTEntryEP0OutNext+1,fsr2h
  5308   002340  0E0C               	movlw	12
  5309   002342  6EDF               	movwf	indf2,c
  5310   002344                     
  5311                           ;../source/usb/usb_device.c: 2523:             pBDTEntryEP0OutNext->STAT.Val |= 0x80;
  5312   002344  C023  FFD9         	movff	_pBDTEntryEP0OutNext,fsr2l
  5313   002348  C024  FFDA         	movff	_pBDTEntryEP0OutNext+1,fsr2h
  5314   00234C  0E00               	movlw	0
  5315   00234E  8EDB               	bsf	plusw2,7,c
  5316                           
  5317                           ;../source/usb/usb_device.c: 2524:         }
  5318   002350  EFAC  F011         	goto	l411
  5319   002354                     l1991:
  5320                           
  5321                           ;../source/usb/usb_device.c: 2526:         {;../source/usb/usb_device.c: 2527:          
      +                             BothEP0OutUOWNsSet = 0;
  5322   002354  0E00               	movlw	0
  5323   002356  6E2E               	movwf	_BothEP0OutUOWNsSet^0,c
  5324   002358                     l411:
  5325   002358  0012               	return		;funcret
  5326   00235A                     __end_of_USBCtrlTrfOutHandler:
  5327                           	callstack 0
  5328                           
  5329 ;; *************** function _USBCtrlTrfRxService *****************
  5330 ;; Defined at:
  5331 ;;		line 1812 in file "../source/usb/usb_device.c"
  5332 ;; Parameters:    Size  Location     Type
  5333 ;;		None
  5334 ;; Auto vars:     Size  Location     Type
  5335 ;;  byteToRead      1    1[COMRAM] unsigned char 
  5336 ;;  i               1    0[COMRAM] unsigned char 
  5337 ;; Return value:  Size  Location     Type
  5338 ;;                  1    wreg      void 
  5339 ;; Registers used:
  5340 ;;		wreg, fsr1l, fsr1h, fsr2l, fsr2h, status,2, status,0, cstack
  5341 ;; Tracked objects:
  5342 ;;		On entry : 0/0
  5343 ;;		On exit  : 0/0
  5344 ;;		Unchanged: 0/0
  5345 ;; Data sizes:     COMRAM   BANK0   BANK1   BANK2   BANK3   BANK4   BANK5   BANK6   BANK7
  5346 ;;      Params:         0       0       0       0       0       0       0       0       0
  5347 ;;      Locals:         2       0       0       0       0       0       0       0       0
  5348 ;;      Temps:          0       0       0       0       0       0       0       0       0
  5349 ;;      Totals:         2       0       0       0       0       0       0       0       0
  5350 ;;Total ram usage:        2 bytes
  5351 ;; Hardware stack levels used: 1
  5352 ;; Hardware stack levels required when called: 2
  5353 ;; This function calls:
  5354 ;;		_USBCtrlEPAllowStatusStage
  5355 ;; This function is called by:
  5356 ;;		_USBCtrlTrfOutHandler
  5357 ;; This function uses a non-reentrant model
  5358 ;;
  5359                           
  5360                           	psect	text27
  5361   0013C2                     __ptext27:
  5362                           	callstack 0
  5363   0013C2                     _USBCtrlTrfRxService:
  5364                           	callstack 25
  5365   0013C2                     
  5366                           ;../source/usb/usb_device.c: 1814:     uint8_t byteToRead;;../source/usb/usb_device.c: 1
      +                          815:     uint8_t i;;../source/usb/usb_device.c: 1819:     byteToRead = pBDTEntryEP0OutCu
      +                          rrent->CNT;
  5367   0013C2  EE20 F001          	lfsr	2,1
  5368   0013C6  5025               	movf	_pBDTEntryEP0OutCurrent^0,w,c
  5369   0013C8  26D9               	addwf	fsr2l,f,c
  5370   0013CA  5026               	movf	(_pBDTEntryEP0OutCurrent+1)^0,w,c
  5371   0013CC  22DA               	addwfc	fsr2h,f,c
  5372   0013CE  50DF               	movf	indf2,w,c
  5373   0013D0  6E3B               	movwf	USBCtrlTrfRxService@byteToRead^0,c
  5374   0013D2                     
  5375                           ;../source/usb/usb_device.c: 1825:     if(byteToRead > outPipes[0].wCount.Val)
  5376   0013D2  503B               	movf	USBCtrlTrfRxService@byteToRead^0,w,c
  5377   0013D4  5C05               	subwf	(_outPipes+4)^0,w,c
  5378   0013D6  0E00               	movlw	0
  5379   0013D8  5806               	subwfb	(_outPipes+5)^0,w,c
  5380   0013DA  B0D8               	btfsc	status,0,c
  5381   0013DC  EFF2  F009         	goto	u681
  5382   0013E0  EFF4  F009         	goto	u680
  5383   0013E4                     u681:
  5384   0013E4  EFF6  F009         	goto	l1859
  5385   0013E8                     u680:
  5386   0013E8                     
  5387                           ;../source/usb/usb_device.c: 1826:     {;../source/usb/usb_device.c: 1827:         byteT
      +                          oRead = outPipes[0].wCount.Val;
  5388   0013E8  C005  F03B         	movff	_outPipes+4,USBCtrlTrfRxService@byteToRead
  5389   0013EC                     l1859:
  5390                           
  5391                           ;../source/usb/usb_device.c: 1830:     outPipes[0].wCount.Val -= byteToRead;
  5392   0013EC  503B               	movf	USBCtrlTrfRxService@byteToRead^0,w,c
  5393   0013EE  5E05               	subwf	(_outPipes+4)^0,f,c
  5394   0013F0  0E00               	movlw	0
  5395   0013F2  5A06               	subwfb	(_outPipes+5)^0,f,c
  5396   0013F4                     
  5397                           ;../source/usb/usb_device.c: 1834:     for(i=0;i<byteToRead;i++)
  5398   0013F4  0E00               	movlw	0
  5399   0013F6  6E3A               	movwf	USBCtrlTrfRxService@i^0,c
  5400   0013F8  EF0D  F00A         	goto	l1869
  5401   0013FC                     l1863:
  5402                           
  5403                           ;../source/usb/usb_device.c: 1835:     {;../source/usb/usb_device.c: 1836:         *outP
      +                          ipes[0].pDst.bRam++ = CtrlTrfData[i];
  5404   0013FC  0E28               	movlw	40
  5405   0013FE  243A               	addwf	USBCtrlTrfRxService@i^0,w,c
  5406   001400  6ED9               	movwf	fsr2l,c
  5407   001402  6ADA               	clrf	fsr2h,c
  5408   001404  0E04               	movlw	4
  5409   001406  22DA               	addwfc	fsr2h,f,c
  5410   001408  C001  FFE1         	movff	_outPipes,fsr1l
  5411   00140C  C002  FFE2         	movff	_outPipes+1,fsr1h
  5412   001410  CFDF FFE7          	movff	indf2,indf1
  5413   001414  4A01               	infsnz	_outPipes^0,f,c
  5414   001416  2A02               	incf	(_outPipes+1)^0,f,c
  5415   001418                     
  5416                           ;../source/usb/usb_device.c: 1837:     }
  5417   001418  2A3A               	incf	USBCtrlTrfRxService@i^0,f,c
  5418   00141A                     l1869:
  5419   00141A  503B               	movf	USBCtrlTrfRxService@byteToRead^0,w,c
  5420   00141C  5C3A               	subwf	USBCtrlTrfRxService@i^0,w,c
  5421   00141E  A0D8               	btfss	status,0,c
  5422   001420  EF14  F00A         	goto	u691
  5423   001424  EF16  F00A         	goto	u690
  5424   001428                     u691:
  5425   001428  EFFE  F009         	goto	l1863
  5426   00142C                     u690:
  5427   00142C                     
  5428                           ;../source/usb/usb_device.c: 1841:     if(outPipes[0].wCount.Val > 0)
  5429   00142C  5005               	movf	(_outPipes+4)^0,w,c
  5430   00142E  1006               	iorwf	(_outPipes+5)^0,w,c
  5431   001430  B4D8               	btfsc	status,2,c
  5432   001432  EF1D  F00A         	goto	u701
  5433   001436  EF1F  F00A         	goto	u700
  5434   00143A                     u701:
  5435   00143A  EF58  F00A         	goto	l1885
  5436   00143E                     u700:
  5437   00143E                     
  5438                           ;../source/usb/usb_device.c: 1842:     {;../source/usb/usb_device.c: 1843:         pBDTE
      +                          ntryEP0OutNext->CNT = 8;
  5439   00143E  EE20 F001          	lfsr	2,1
  5440   001442  5023               	movf	_pBDTEntryEP0OutNext^0,w,c
  5441   001444  26D9               	addwf	fsr2l,f,c
  5442   001446  5024               	movf	(_pBDTEntryEP0OutNext+1)^0,w,c
  5443   001448  22DA               	addwfc	fsr2h,f,c
  5444   00144A  0E08               	movlw	8
  5445   00144C  6EDF               	movwf	indf2,c
  5446                           
  5447                           ;../source/usb/usb_device.c: 1844:         pBDTEntryEP0OutNext->ADR = ((uint16_t)(&CtrlT
      +                          rfData));
  5448   00144E  EE20 F002          	lfsr	2,2
  5449   001452  5023               	movf	_pBDTEntryEP0OutNext^0,w,c
  5450   001454  26D9               	addwf	fsr2l,f,c
  5451   001456  5024               	movf	(_pBDTEntryEP0OutNext+1)^0,w,c
  5452   001458  22DA               	addwfc	fsr2h,f,c
  5453   00145A  0E28               	movlw	40
  5454   00145C  6EDE               	movwf	postinc2,c
  5455   00145E  0E04               	movlw	4
  5456   001460  6EDD               	movwf	postdec2,c
  5457   001462                     
  5458                           ;../source/usb/usb_device.c: 1845:         if(pBDTEntryEP0OutCurrent->STAT.DTS == 0)
  5459   001462  C025  FFD9         	movff	_pBDTEntryEP0OutCurrent,fsr2l
  5460   001466  C026  FFDA         	movff	_pBDTEntryEP0OutCurrent+1,fsr2h
  5461   00146A  BCDF               	btfsc	indf2,6,c
  5462   00146C  EF3A  F00A         	goto	u711
  5463   001470  EF3C  F00A         	goto	u710
  5464   001474                     u711:
  5465   001474  EF4A  F00A         	goto	l1881
  5466   001478                     u710:
  5467   001478                     
  5468                           ;../source/usb/usb_device.c: 1846:         {;../source/usb/usb_device.c: 1847:          
      +                             pBDTEntryEP0OutNext->STAT.Val = 0x40|(0x08 & 0x08);
  5469   001478  C023  FFD9         	movff	_pBDTEntryEP0OutNext,fsr2l
  5470   00147C  C024  FFDA         	movff	_pBDTEntryEP0OutNext+1,fsr2h
  5471   001480  0E48               	movlw	72
  5472   001482  6EDF               	movwf	indf2,c
  5473   001484                     
  5474                           ;../source/usb/usb_device.c: 1848:             pBDTEntryEP0OutNext->STAT.Val |= 0x80;
  5475   001484  C023  FFD9         	movff	_pBDTEntryEP0OutNext,fsr2l
  5476   001488  C024  FFDA         	movff	_pBDTEntryEP0OutNext+1,fsr2h
  5477   00148C  0E00               	movlw	0
  5478   00148E  8EDB               	bsf	plusw2,7,c
  5479                           
  5480                           ;../source/usb/usb_device.c: 1849:         }
  5481   001490  EF81  F00A         	goto	l343
  5482   001494                     l1881:
  5483                           
  5484                           ;../source/usb/usb_device.c: 1851:         {;../source/usb/usb_device.c: 1852:          
      +                             pBDTEntryEP0OutNext->STAT.Val = 0x00|(0x08 & 0x08);
  5485   001494  C023  FFD9         	movff	_pBDTEntryEP0OutNext,fsr2l
  5486   001498  C024  FFDA         	movff	_pBDTEntryEP0OutNext+1,fsr2h
  5487   00149C  0E08               	movlw	8
  5488   00149E  6EDF               	movwf	indf2,c
  5489   0014A0                     
  5490                           ;../source/usb/usb_device.c: 1853:             pBDTEntryEP0OutNext->STAT.Val |= 0x80;
  5491   0014A0  C023  FFD9         	movff	_pBDTEntryEP0OutNext,fsr2l
  5492   0014A4  C024  FFDA         	movff	_pBDTEntryEP0OutNext+1,fsr2h
  5493   0014A8  0E00               	movlw	0
  5494   0014AA  8EDB               	bsf	plusw2,7,c
  5495   0014AC  EF81  F00A         	goto	l343
  5496   0014B0                     l1885:
  5497                           
  5498                           ;../source/usb/usb_device.c: 1857:     {;../source/usb/usb_device.c: 1861:         pBDTE
      +                          ntryEP0OutNext->CNT = 8;
  5499   0014B0  EE20 F001          	lfsr	2,1
  5500   0014B4  5023               	movf	_pBDTEntryEP0OutNext^0,w,c
  5501   0014B6  26D9               	addwf	fsr2l,f,c
  5502   0014B8  5024               	movf	(_pBDTEntryEP0OutNext+1)^0,w,c
  5503   0014BA  22DA               	addwfc	fsr2h,f,c
  5504   0014BC  0E08               	movlw	8
  5505   0014BE  6EDF               	movwf	indf2,c
  5506                           
  5507                           ;../source/usb/usb_device.c: 1862:         pBDTEntryEP0OutNext->ADR = ((uint16_t)(&Setup
      +                          Pkt));
  5508   0014C0  EE20 F002          	lfsr	2,2
  5509   0014C4  5023               	movf	_pBDTEntryEP0OutNext^0,w,c
  5510   0014C6  26D9               	addwf	fsr2l,f,c
  5511   0014C8  5024               	movf	(_pBDTEntryEP0OutNext+1)^0,w,c
  5512   0014CA  22DA               	addwfc	fsr2h,f,c
  5513   0014CC  0E20               	movlw	32
  5514   0014CE  6EDE               	movwf	postinc2,c
  5515   0014D0  0E04               	movlw	4
  5516   0014D2  6EDD               	movwf	postdec2,c
  5517   0014D4                     
  5518                           ;../source/usb/usb_device.c: 1866:         pBDTEntryEP0OutNext->STAT.Val = 0x04;
  5519   0014D4  C023  FFD9         	movff	_pBDTEntryEP0OutNext,fsr2l
  5520   0014D8  C024  FFDA         	movff	_pBDTEntryEP0OutNext+1,fsr2h
  5521   0014DC  0E04               	movlw	4
  5522   0014DE  6EDF               	movwf	indf2,c
  5523   0014E0                     
  5524                           ;../source/usb/usb_device.c: 1867:         pBDTEntryEP0OutNext->STAT.Val |= 0x80;
  5525   0014E0  C023  FFD9         	movff	_pBDTEntryEP0OutNext,fsr2l
  5526   0014E4  C024  FFDA         	movff	_pBDTEntryEP0OutNext+1,fsr2h
  5527   0014E8  0E00               	movlw	0
  5528   0014EA  8EDB               	bsf	plusw2,7,c
  5529   0014EC  9E04               	bcf	(_outPipes+3)^0,7,c
  5530   0014EE                     
  5531                           ;../source/usb/usb_device.c: 1901:         if(USBDeferStatusStagePacket == 0)
  5532   0014EE  502C               	movf	_USBDeferStatusStagePacket^0,w,c	;volatile
  5533   0014F0  A4D8               	btfss	status,2,c
  5534   0014F2  EF7D  F00A         	goto	u721
  5535   0014F6  EF7F  F00A         	goto	u720
  5536   0014FA                     u721:
  5537   0014FA  EF81  F00A         	goto	l343
  5538   0014FE                     u720:
  5539   0014FE                     
  5540                           ;../source/usb/usb_device.c: 1902:         {;../source/usb/usb_device.c: 1903:          
      +                             USBCtrlEPAllowStatusStage();
  5541   0014FE  ECDD  F00D         	call	_USBCtrlEPAllowStatusStage	;wreg free
  5542   001502                     l343:
  5543   001502  0012               	return		;funcret
  5544   001504                     __end_of_USBCtrlTrfRxService:
  5545                           	callstack 0
  5546                           
  5547 ;; *************** function _USBCtrlEPAllowStatusStage *****************
  5548 ;; Defined at:
  5549 ;;		line 1376 in file "../source/usb/usb_device.c"
  5550 ;; Parameters:    Size  Location     Type
  5551 ;;		None
  5552 ;; Auto vars:     Size  Location     Type
  5553 ;;		None
  5554 ;; Return value:  Size  Location     Type
  5555 ;;                  1    wreg      void 
  5556 ;; Registers used:
  5557 ;;		wreg, fsr2l, fsr2h, status,2, status,0
  5558 ;; Tracked objects:
  5559 ;;		On entry : 0/0
  5560 ;;		On exit  : 0/0
  5561 ;;		Unchanged: 0/0
  5562 ;; Data sizes:     COMRAM   BANK0   BANK1   BANK2   BANK3   BANK4   BANK5   BANK6   BANK7
  5563 ;;      Params:         0       0       0       0       0       0       0       0       0
  5564 ;;      Locals:         0       0       0       0       0       0       0       0       0
  5565 ;;      Temps:          0       0       0       0       0       0       0       0       0
  5566 ;;      Totals:         0       0       0       0       0       0       0       0       0
  5567 ;;Total ram usage:        0 bytes
  5568 ;; Hardware stack levels used: 1
  5569 ;; Hardware stack levels required when called: 1
  5570 ;; This function calls:
  5571 ;;		Nothing
  5572 ;; This function is called by:
  5573 ;;		_USBDeviceTasks
  5574 ;;		_USBCtrlEPServiceComplete
  5575 ;;		_USBCtrlTrfRxService
  5576 ;; This function uses a non-reentrant model
  5577 ;;
  5578                           
  5579                           	psect	text28
  5580   001BBA                     __ptext28:
  5581                           	callstack 0
  5582   001BBA                     _USBCtrlEPAllowStatusStage:
  5583                           	callstack 25
  5584   001BBA                     
  5585                           ;../source/usb/usb_device.c: 1383:     if(USBStatusStageEnabledFlag1 == 0)
  5586   001BBA  502B               	movf	_USBStatusStageEnabledFlag1^0,w,c	;volatile
  5587   001BBC  A4D8               	btfss	status,2,c
  5588   001BBE  EFE3  F00D         	goto	u231
  5589   001BC2  EFE5  F00D         	goto	u230
  5590   001BC6                     u231:
  5591   001BC6  EF54  F00E         	goto	l291
  5592   001BCA                     u230:
  5593   001BCA                     
  5594                           ;../source/usb/usb_device.c: 1384:     {;../source/usb/usb_device.c: 1385:         USBSt
      +                          atusStageEnabledFlag1 = 1;
  5595   001BCA  0E01               	movlw	1
  5596   001BCC  6E2B               	movwf	_USBStatusStageEnabledFlag1^0,c	;volatile
  5597                           
  5598                           ;../source/usb/usb_device.c: 1386:         if(USBStatusStageEnabledFlag2 == 0)
  5599   001BCE  502A               	movf	_USBStatusStageEnabledFlag2^0,w,c	;volatile
  5600   001BD0  A4D8               	btfss	status,2,c
  5601   001BD2  EFED  F00D         	goto	u241
  5602   001BD6  EFEF  F00D         	goto	u240
  5603   001BDA                     u241:
  5604   001BDA  EF54  F00E         	goto	l291
  5605   001BDE                     u240:
  5606   001BDE                     
  5607                           ;../source/usb/usb_device.c: 1387:         {;../source/usb/usb_device.c: 1388:          
      +                             USBStatusStageEnabledFlag2 = 1;
  5608   001BDE  0E01               	movlw	1
  5609   001BE0  6E2A               	movwf	_USBStatusStageEnabledFlag2^0,c	;volatile
  5610   001BE2                     
  5611                           ;../source/usb/usb_device.c: 1392:             if(controlTransferState == 2)
  5612   001BE2  0E02               	movlw	2
  5613   001BE4  1832               	xorwf	_controlTransferState^0,w,c
  5614   001BE6  A4D8               	btfss	status,2,c
  5615   001BE8  EFF8  F00D         	goto	u251
  5616   001BEC  EFFA  F00D         	goto	u250
  5617   001BF0                     u251:
  5618   001BF0  EF10  F00E         	goto	l1563
  5619   001BF4                     u250:
  5620   001BF4                     
  5621                           ;../source/usb/usb_device.c: 1393:             {;../source/usb/usb_device.c: 1394:      
      +                                     pBDTEntryIn[0]->CNT = 0;
  5622   001BF4  EE20 F001          	lfsr	2,1
  5623   001BF8  5013               	movf	_pBDTEntryIn^0,w,c
  5624   001BFA  26D9               	addwf	fsr2l,f,c
  5625   001BFC  5014               	movf	(_pBDTEntryIn+1)^0,w,c
  5626   001BFE  22DA               	addwfc	fsr2h,f,c
  5627   001C00  0E00               	movlw	0
  5628   001C02  6EDF               	movwf	indf2,c
  5629   001C04                     
  5630                           ;../source/usb/usb_device.c: 1395:                 pBDTEntryIn[0]->STAT.Val = 0x40|(0x08
      +                           & 0x08);
  5631   001C04  C013  FFD9         	movff	_pBDTEntryIn,fsr2l
  5632   001C08  C014  FFDA         	movff	_pBDTEntryIn+1,fsr2h
  5633   001C0C  0E48               	movlw	72
  5634   001C0E  6EDF               	movwf	indf2,c
  5635   001C10                     
  5636                           ;../source/usb/usb_device.c: 1396:                 pBDTEntryIn[0]->STAT.Val |= 0x80;
  5637   001C10  C013  FFD9         	movff	_pBDTEntryIn,fsr2l
  5638   001C14  C014  FFDA         	movff	_pBDTEntryIn+1,fsr2h
  5639   001C18  0E00               	movlw	0
  5640   001C1A  8EDB               	bsf	plusw2,7,c
  5641                           
  5642                           ;../source/usb/usb_device.c: 1397:             }
  5643   001C1C  EF54  F00E         	goto	l291
  5644   001C20                     l1563:
  5645   001C20  0432               	decf	_controlTransferState^0,w,c
  5646   001C22  A4D8               	btfss	status,2,c
  5647   001C24  EF16  F00E         	goto	u261
  5648   001C28  EF18  F00E         	goto	u260
  5649   001C2C                     u261:
  5650   001C2C  EF54  F00E         	goto	l287
  5651   001C30                     u260:
  5652   001C30                     
  5653                           ;../source/usb/usb_device.c: 1399:             {;../source/usb/usb_device.c: 1400:      
      +                                     BothEP0OutUOWNsSet = 0;
  5654   001C30  0E00               	movlw	0
  5655   001C32  6E2E               	movwf	_BothEP0OutUOWNsSet^0,c
  5656   001C34                     
  5657                           ;../source/usb/usb_device.c: 1405:                     pBDTEntryEP0OutCurrent->CNT = 8;
  5658   001C34  EE20 F001          	lfsr	2,1
  5659   001C38  5025               	movf	_pBDTEntryEP0OutCurrent^0,w,c
  5660   001C3A  26D9               	addwf	fsr2l,f,c
  5661   001C3C  5026               	movf	(_pBDTEntryEP0OutCurrent+1)^0,w,c
  5662   001C3E  22DA               	addwfc	fsr2h,f,c
  5663   001C40  0E08               	movlw	8
  5664   001C42  6EDF               	movwf	indf2,c
  5665   001C44                     
  5666                           ;../source/usb/usb_device.c: 1406:                     pBDTEntryEP0OutCurrent->ADR = ((u
      +                          int16_t)(&SetupPkt));
  5667   001C44  EE20 F002          	lfsr	2,2
  5668   001C48  5025               	movf	_pBDTEntryEP0OutCurrent^0,w,c
  5669   001C4A  26D9               	addwf	fsr2l,f,c
  5670   001C4C  5026               	movf	(_pBDTEntryEP0OutCurrent+1)^0,w,c
  5671   001C4E  22DA               	addwfc	fsr2h,f,c
  5672   001C50  0E20               	movlw	32
  5673   001C52  6EDE               	movwf	postinc2,c
  5674   001C54  0E04               	movlw	4
  5675   001C56  6EDD               	movwf	postdec2,c
  5676   001C58                     
  5677                           ;../source/usb/usb_device.c: 1407:                     pBDTEntryEP0OutCurrent->STAT.Val 
      +                          = 0x04;
  5678   001C58  C025  FFD9         	movff	_pBDTEntryEP0OutCurrent,fsr2l
  5679   001C5C  C026  FFDA         	movff	_pBDTEntryEP0OutCurrent+1,fsr2h
  5680   001C60  0E04               	movlw	4
  5681   001C62  6EDF               	movwf	indf2,c
  5682   001C64                     
  5683                           ;../source/usb/usb_device.c: 1408:                     pBDTEntryEP0OutCurrent->STAT.Val 
      +                          |= 0x80;
  5684   001C64  C025  FFD9         	movff	_pBDTEntryEP0OutCurrent,fsr2l
  5685   001C68  C026  FFDA         	movff	_pBDTEntryEP0OutCurrent+1,fsr2h
  5686   001C6C  0E00               	movlw	0
  5687   001C6E  8EDB               	bsf	plusw2,7,c
  5688   001C70                     
  5689                           ;../source/usb/usb_device.c: 1409:                     BothEP0OutUOWNsSet = 1;
  5690   001C70  0E01               	movlw	1
  5691   001C72  6E2E               	movwf	_BothEP0OutUOWNsSet^0,c
  5692   001C74                     
  5693                           ;../source/usb/usb_device.c: 1413:                 pBDTEntryEP0OutNext->CNT = 8;
  5694   001C74  EE20 F001          	lfsr	2,1
  5695   001C78  5023               	movf	_pBDTEntryEP0OutNext^0,w,c
  5696   001C7A  26D9               	addwf	fsr2l,f,c
  5697   001C7C  5024               	movf	(_pBDTEntryEP0OutNext+1)^0,w,c
  5698   001C7E  22DA               	addwfc	fsr2h,f,c
  5699   001C80  0E08               	movlw	8
  5700   001C82  6EDF               	movwf	indf2,c
  5701   001C84                     
  5702                           ;../source/usb/usb_device.c: 1414:                 pBDTEntryEP0OutNext->ADR = ((uint16_t
      +                          )(&SetupPkt));
  5703   001C84  EE20 F002          	lfsr	2,2
  5704   001C88  5023               	movf	_pBDTEntryEP0OutNext^0,w,c
  5705   001C8A  26D9               	addwf	fsr2l,f,c
  5706   001C8C  5024               	movf	(_pBDTEntryEP0OutNext+1)^0,w,c
  5707   001C8E  22DA               	addwfc	fsr2h,f,c
  5708   001C90  0E20               	movlw	32
  5709   001C92  6EDE               	movwf	postinc2,c
  5710   001C94  0E04               	movlw	4
  5711   001C96  6EDD               	movwf	postdec2,c
  5712   001C98                     
  5713                           ;../source/usb/usb_device.c: 1415:                 pBDTEntryEP0OutNext->STAT.Val = 0x80;
  5714   001C98  C023  FFD9         	movff	_pBDTEntryEP0OutNext,fsr2l
  5715   001C9C  C024  FFDA         	movff	_pBDTEntryEP0OutNext+1,fsr2h
  5716   001CA0  0E80               	movlw	128
  5717   001CA2  6EDF               	movwf	indf2,c
  5718   001CA4  EF54  F00E         	goto	l291
  5719   001CA8                     l287:
  5720   001CA8                     l291:
  5721   001CA8  0012               	return		;funcret
  5722   001CAA                     __end_of_USBCtrlEPAllowStatusStage:
  5723                           	callstack 0
  5724                           
  5725 ;; *************** function _USBCtrlTrfInHandler *****************
  5726 ;; Defined at:
  5727 ;;		line 2555 in file "../source/usb/usb_device.c"
  5728 ;; Parameters:    Size  Location     Type
  5729 ;;		None
  5730 ;; Auto vars:     Size  Location     Type
  5731 ;;  lastDTS         1    1[COMRAM] unsigned char 
  5732 ;; Return value:  Size  Location     Type
  5733 ;;                  1    wreg      void 
  5734 ;; Registers used:
  5735 ;;		wreg, fsr1l, fsr1h, fsr2l, fsr2h, status,2, status,0, tblptrl, tblptrh, tblptru, cstack
  5736 ;; Tracked objects:
  5737 ;;		On entry : 0/0
  5738 ;;		On exit  : 0/0
  5739 ;;		Unchanged: 0/0
  5740 ;; Data sizes:     COMRAM   BANK0   BANK1   BANK2   BANK3   BANK4   BANK5   BANK6   BANK7
  5741 ;;      Params:         0       0       0       0       0       0       0       0       0
  5742 ;;      Locals:         1       0       0       0       0       0       0       0       0
  5743 ;;      Temps:          0       0       0       0       0       0       0       0       0
  5744 ;;      Totals:         1       0       0       0       0       0       0       0       0
  5745 ;;Total ram usage:        1 bytes
  5746 ;; Hardware stack levels used: 1
  5747 ;; Hardware stack levels required when called: 2
  5748 ;; This function calls:
  5749 ;;		_USBCtrlTrfTxService
  5750 ;; This function is called by:
  5751 ;;		_USBCtrlEPService
  5752 ;; This function uses a non-reentrant model
  5753 ;;
  5754                           
  5755                           	psect	text29
  5756   001AB6                     __ptext29:
  5757                           	callstack 0
  5758   001AB6                     _USBCtrlTrfInHandler:
  5759                           	callstack 26
  5760   001AB6                     
  5761                           ;../source/usb/usb_device.c: 2557:     uint8_t lastDTS;;../source/usb/usb_device.c: 2559
      +                          :     lastDTS = pBDTEntryIn[0]->STAT.DTS;
  5762   001AB6  C013  FFD9         	movff	_pBDTEntryIn,fsr2l
  5763   001ABA  C014  FFDA         	movff	_pBDTEntryIn+1,fsr2h
  5764   001ABE  0E00               	movlw	0
  5765   001AC0  BCDF               	btfsc	indf2,6,c
  5766   001AC2  0E01               	movlw	1
  5767   001AC4  6E3B               	movwf	USBCtrlTrfInHandler@lastDTS^0,c
  5768   001AC6                     
  5769                           ;../source/usb/usb_device.c: 2562:     pBDTEntryIn[0] = (volatile BDT_ENTRY*)(((uint16_t
      +                          )pBDTEntryIn[0]) ^ 0x0004);
  5770   001AC6  0E04               	movlw	4
  5771   001AC8  1813               	xorwf	_pBDTEntryIn^0,w,c
  5772   001ACA  6E13               	movwf	_pBDTEntryIn^0,c
  5773   001ACC  5014               	movf	(_pBDTEntryIn+1)^0,w,c
  5774   001ACE  6E14               	movwf	(_pBDTEntryIn+1)^0,c
  5775   001AD0                     
  5776                           ;../source/usb/usb_device.c: 2567:     if(USBDeviceState == ADR_PENDING_STATE)
  5777   001AD0  0E08               	movlw	8
  5778   001AD2  1834               	xorwf	_USBDeviceState^0,w,c
  5779   001AD4  A4D8               	btfss	status,2,c
  5780   001AD6  EF6F  F00D         	goto	u771
  5781   001ADA  EF71  F00D         	goto	u770
  5782   001ADE                     u771:
  5783   001ADE  EF83  F00D         	goto	l2007
  5784   001AE2                     u770:
  5785   001AE2                     
  5786                           ;../source/usb/usb_device.c: 2568:     {;../source/usb/usb_device.c: 2569:         UADDR
      +                           = (SetupPkt.bDevADR & 0x7F);
  5787   001AE2  0104               	movlb	4	; () banked
  5788   001AE4  5122               	movf	34,w,b	;volatile
  5789   001AE6  0B7F               	andlw	127
  5790   001AE8  6E6E               	movwf	110,c	;volatile
  5791   001AEA                     
  5792                           ; BSR set to: 4
  5793                           ;../source/usb/usb_device.c: 2570:         if(UADDR != 0u)
  5794   001AEA  506E               	movf	110,w,c	;volatile
  5795   001AEC  B4D8               	btfsc	status,2,c
  5796   001AEE  EF7B  F00D         	goto	u781
  5797   001AF2  EF7D  F00D         	goto	u780
  5798   001AF6                     u781:
  5799   001AF6  EF81  F00D         	goto	l2005
  5800   001AFA                     u780:
  5801   001AFA                     
  5802                           ; BSR set to: 4
  5803                           ;../source/usb/usb_device.c: 2571:         {;../source/usb/usb_device.c: 2572:          
      +                             USBDeviceState=ADDRESS_STATE;
  5804   001AFA  0E10               	movlw	16
  5805   001AFC  6E34               	movwf	_USBDeviceState^0,c
  5806                           
  5807                           ;../source/usb/usb_device.c: 2573:         }
  5808   001AFE  EF83  F00D         	goto	l2007
  5809   001B02                     l2005:
  5810                           
  5811                           ; BSR set to: 4
  5812                           ;../source/usb/usb_device.c: 2575:         {;../source/usb/usb_device.c: 2576:          
      +                             USBDeviceState=DEFAULT_STATE;
  5813   001B02  0E04               	movlw	4
  5814   001B04  6E34               	movwf	_USBDeviceState^0,c
  5815   001B06                     l2007:
  5816                           
  5817                           ;../source/usb/usb_device.c: 2581:     if(controlTransferState == 1)
  5818   001B06  0432               	decf	_controlTransferState^0,w,c
  5819   001B08  A4D8               	btfss	status,2,c
  5820   001B0A  EF89  F00D         	goto	u791
  5821   001B0E  EF8B  F00D         	goto	u790
  5822   001B12                     u791:
  5823   001B12  EFD2  F00D         	goto	l417
  5824   001B16                     u790:
  5825   001B16                     
  5826                           ;../source/usb/usb_device.c: 2582:     {;../source/usb/usb_device.c: 2583:         pBDTE
      +                          ntryIn[0]->ADR = ((uint16_t)(CtrlTrfData));
  5827   001B16  EE20 F002          	lfsr	2,2
  5828   001B1A  5013               	movf	_pBDTEntryIn^0,w,c
  5829   001B1C  26D9               	addwf	fsr2l,f,c
  5830   001B1E  5014               	movf	(_pBDTEntryIn+1)^0,w,c
  5831   001B20  22DA               	addwfc	fsr2h,f,c
  5832   001B22  0E28               	movlw	40
  5833   001B24  6EDE               	movwf	postinc2,c
  5834   001B26  0E04               	movlw	4
  5835   001B28  6EDD               	movwf	postdec2,c
  5836   001B2A                     
  5837                           ;../source/usb/usb_device.c: 2584:         USBCtrlTrfTxService();
  5838   001B2A  ECD6  F00C         	call	_USBCtrlTrfTxService	;wreg free
  5839   001B2E                     
  5840                           ;../source/usb/usb_device.c: 2590:         if(shortPacketStatus == 2)
  5841   001B2E  0E02               	movlw	2
  5842   001B30  1833               	xorwf	_shortPacketStatus^0,w,c
  5843   001B32  A4D8               	btfss	status,2,c
  5844   001B34  EF9E  F00D         	goto	u801
  5845   001B38  EFA0  F00D         	goto	u800
  5846   001B3C                     u801:
  5847   001B3C  EFAE  F00D         	goto	l2019
  5848   001B40                     u800:
  5849   001B40                     
  5850                           ;../source/usb/usb_device.c: 2591:         {;../source/usb/usb_device.c: 2594:          
      +                             pBDTEntryIn[0]->STAT.Val = 0x04;
  5851   001B40  C013  FFD9         	movff	_pBDTEntryIn,fsr2l
  5852   001B44  C014  FFDA         	movff	_pBDTEntryIn+1,fsr2h
  5853   001B48  0E04               	movlw	4
  5854   001B4A  6EDF               	movwf	indf2,c
  5855   001B4C                     
  5856                           ;../source/usb/usb_device.c: 2595:             pBDTEntryIn[0]->STAT.Val |= 0x80;
  5857   001B4C  C013  FFD9         	movff	_pBDTEntryIn,fsr2l
  5858   001B50  C014  FFDA         	movff	_pBDTEntryIn+1,fsr2h
  5859   001B54  0E00               	movlw	0
  5860   001B56  8EDB               	bsf	plusw2,7,c
  5861                           
  5862                           ;../source/usb/usb_device.c: 2596:         }
  5863   001B58  EFDC  F00D         	goto	l425
  5864   001B5C                     l2019:
  5865                           
  5866                           ;../source/usb/usb_device.c: 2598:         {;../source/usb/usb_device.c: 2599:          
      +                             if(lastDTS == 0)
  5867   001B5C  503B               	movf	USBCtrlTrfInHandler@lastDTS^0,w,c
  5868   001B5E  A4D8               	btfss	status,2,c
  5869   001B60  EFB4  F00D         	goto	u811
  5870   001B64  EFB6  F00D         	goto	u810
  5871   001B68                     u811:
  5872   001B68  EFC4  F00D         	goto	l2025
  5873   001B6C                     u810:
  5874   001B6C                     
  5875                           ;../source/usb/usb_device.c: 2600:             {;../source/usb/usb_device.c: 2601:      
      +                                     pBDTEntryIn[0]->STAT.Val = 0x40|(0x08 & 0x08);
  5876   001B6C  C013  FFD9         	movff	_pBDTEntryIn,fsr2l
  5877   001B70  C014  FFDA         	movff	_pBDTEntryIn+1,fsr2h
  5878   001B74  0E48               	movlw	72
  5879   001B76  6EDF               	movwf	indf2,c
  5880   001B78                     
  5881                           ;../source/usb/usb_device.c: 2602:                 pBDTEntryIn[0]->STAT.Val |= 0x80;
  5882   001B78  C013  FFD9         	movff	_pBDTEntryIn,fsr2l
  5883   001B7C  C014  FFDA         	movff	_pBDTEntryIn+1,fsr2h
  5884   001B80  0E00               	movlw	0
  5885   001B82  8EDB               	bsf	plusw2,7,c
  5886                           
  5887                           ;../source/usb/usb_device.c: 2603:             }
  5888   001B84  EFDC  F00D         	goto	l425
  5889   001B88                     l2025:
  5890                           
  5891                           ;../source/usb/usb_device.c: 2605:             {;../source/usb/usb_device.c: 2606:      
      +                                     pBDTEntryIn[0]->STAT.Val = 0x00|(0x08 & 0x08);
  5892   001B88  C013  FFD9         	movff	_pBDTEntryIn,fsr2l
  5893   001B8C  C014  FFDA         	movff	_pBDTEntryIn+1,fsr2h
  5894   001B90  0E08               	movlw	8
  5895   001B92  6EDF               	movwf	indf2,c
  5896   001B94                     
  5897                           ;../source/usb/usb_device.c: 2607:                 pBDTEntryIn[0]->STAT.Val |= 0x80;
  5898   001B94  C013  FFD9         	movff	_pBDTEntryIn,fsr2l
  5899   001B98  C014  FFDA         	movff	_pBDTEntryIn+1,fsr2h
  5900   001B9C  0E00               	movlw	0
  5901   001B9E  8EDB               	bsf	plusw2,7,c
  5902   001BA0  EFDC  F00D         	goto	l425
  5903   001BA4                     l417:
  5904                           
  5905                           ;../source/usb/usb_device.c: 2612:  {;../source/usb/usb_device.c: 2616:         if(outPi
      +                          pes[0].info.bits.busy == 1)
  5906   001BA4  AE04               	btfss	(_outPipes+3)^0,7,c
  5907   001BA6  EFD7  F00D         	goto	u821
  5908   001BAA  EFD9  F00D         	goto	u820
  5909   001BAE                     u821:
  5910   001BAE  EFDA  F00D         	goto	l2031
  5911   001BB2                     u820:
  5912   001BB2                     
  5913                           ;../source/usb/usb_device.c: 2622:             outPipes[0].info.bits.busy = 0;
  5914   001BB2  9E04               	bcf	(_outPipes+3)^0,7,c
  5915   001BB4                     l2031:
  5916                           
  5917                           ;../source/usb/usb_device.c: 2625:         controlTransferState = 0;
  5918   001BB4  0E00               	movlw	0
  5919   001BB6  6E32               	movwf	_controlTransferState^0,c
  5920   001BB8                     l425:
  5921   001BB8  0012               	return		;funcret
  5922   001BBA                     __end_of_USBCtrlTrfInHandler:
  5923                           	callstack 0
  5924                           
  5925 ;; *************** function _USBCtrlTrfTxService *****************
  5926 ;; Defined at:
  5927 ;;		line 1731 in file "../source/usb/usb_device.c"
  5928 ;; Parameters:    Size  Location     Type
  5929 ;;		None
  5930 ;; Auto vars:     Size  Location     Type
  5931 ;;  byteToSend      1    0[COMRAM] unsigned char 
  5932 ;; Return value:  Size  Location     Type
  5933 ;;                  1    wreg      void 
  5934 ;; Registers used:
  5935 ;;		wreg, fsr1l, fsr1h, fsr2l, fsr2h, status,2, status,0, tblptrl, tblptrh, tblptru
  5936 ;; Tracked objects:
  5937 ;;		On entry : 0/0
  5938 ;;		On exit  : 0/0
  5939 ;;		Unchanged: 0/0
  5940 ;; Data sizes:     COMRAM   BANK0   BANK1   BANK2   BANK3   BANK4   BANK5   BANK6   BANK7
  5941 ;;      Params:         0       0       0       0       0       0       0       0       0
  5942 ;;      Locals:         1       0       0       0       0       0       0       0       0
  5943 ;;      Temps:          0       0       0       0       0       0       0       0       0
  5944 ;;      Totals:         1       0       0       0       0       0       0       0       0
  5945 ;;Total ram usage:        1 bytes
  5946 ;; Hardware stack levels used: 1
  5947 ;; Hardware stack levels required when called: 1
  5948 ;; This function calls:
  5949 ;;		Nothing
  5950 ;; This function is called by:
  5951 ;;		_USBCtrlEPAllowDataStage
  5952 ;;		_USBCtrlTrfInHandler
  5953 ;; This function uses a non-reentrant model
  5954 ;;
  5955                           
  5956                           	psect	text30
  5957   0019AC                     __ptext30:
  5958                           	callstack 0
  5959   0019AC                     _USBCtrlTrfTxService:
  5960                           	callstack 24
  5961   0019AC                     
  5962                           ;../source/usb/usb_device.c: 1733:     uint8_t byteToSend;;../source/usb/usb_device.c: 1
      +                          737:     byteToSend = 8;
  5963   0019AC  0E08               	movlw	8
  5964   0019AE  6E3A               	movwf	USBCtrlTrfTxService@byteToSend^0,c
  5965   0019B0                     
  5966                           ;../source/usb/usb_device.c: 1738:     if(inPipes[0].wCount.Val < (uint8_t)8)
  5967   0019B0  500E               	movf	(_inPipes+5)^0,w,c
  5968   0019B2  E107               	bnz	u151
  5969   0019B4  0E08               	movlw	8
  5970   0019B6  5C0D               	subwf	(_inPipes+4)^0,w,c
  5971   0019B8  B0D8               	btfsc	status,0,c
  5972   0019BA  EFE1  F00C         	goto	u151
  5973   0019BE  EFE3  F00C         	goto	u150
  5974   0019C2                     u151:
  5975   0019C2  EFFB  F00C         	goto	l1519
  5976   0019C6                     u150:
  5977   0019C6                     
  5978                           ;../source/usb/usb_device.c: 1739:     {;../source/usb/usb_device.c: 1740:         byteT
      +                          oSend = inPipes[0].wCount.Val;
  5979   0019C6  C00D  F03A         	movff	_inPipes+4,USBCtrlTrfTxService@byteToSend
  5980   0019CA                     
  5981                           ;../source/usb/usb_device.c: 1747:         if(shortPacketStatus == 0)
  5982   0019CA  5033               	movf	_shortPacketStatus^0,w,c
  5983   0019CC  A4D8               	btfss	status,2,c
  5984   0019CE  EFEB  F00C         	goto	u161
  5985   0019D2  EFED  F00C         	goto	u160
  5986   0019D6                     u161:
  5987   0019D6  EFF1  F00C         	goto	l1515
  5988   0019DA                     u160:
  5989   0019DA                     
  5990                           ;../source/usb/usb_device.c: 1748:         {;../source/usb/usb_device.c: 1749:          
      +                             shortPacketStatus = 1;
  5991   0019DA  0E01               	movlw	1
  5992   0019DC  6E33               	movwf	_shortPacketStatus^0,c
  5993                           
  5994                           ;../source/usb/usb_device.c: 1750:         }
  5995   0019DE  EFFB  F00C         	goto	l1519
  5996   0019E2                     l1515:
  5997   0019E2  0433               	decf	_shortPacketStatus^0,w,c
  5998   0019E4  A4D8               	btfss	status,2,c
  5999   0019E6  EFF7  F00C         	goto	u171
  6000   0019EA  EFF9  F00C         	goto	u170
  6001   0019EE                     u171:
  6002   0019EE  EFFB  F00C         	goto	l1519
  6003   0019F2                     u170:
  6004   0019F2                     
  6005                           ;../source/usb/usb_device.c: 1752:         {;../source/usb/usb_device.c: 1753:          
      +                             shortPacketStatus = 2;
  6006   0019F2  0E02               	movlw	2
  6007   0019F4  6E33               	movwf	_shortPacketStatus^0,c
  6008   0019F6                     l1519:
  6009                           
  6010                           ;../source/usb/usb_device.c: 1759:     inPipes[0].wCount.Val -= byteToSend;
  6011   0019F6  503A               	movf	USBCtrlTrfTxService@byteToSend^0,w,c
  6012   0019F8  5E0D               	subwf	(_inPipes+4)^0,f,c
  6013   0019FA  0E00               	movlw	0
  6014   0019FC  5A0E               	subwfb	(_inPipes+5)^0,f,c
  6015   0019FE                     
  6016                           ;../source/usb/usb_device.c: 1764:     pBDTEntryIn[0]->CNT = byteToSend;
  6017   0019FE  EE20 F001          	lfsr	2,1
  6018   001A02  5013               	movf	_pBDTEntryIn^0,w,c
  6019   001A04  26D9               	addwf	fsr2l,f,c
  6020   001A06  5014               	movf	(_pBDTEntryIn+1)^0,w,c
  6021   001A08  22DA               	addwfc	fsr2h,f,c
  6022   001A0A  C03A  FFDF         	movff	USBCtrlTrfTxService@byteToSend,indf2
  6023   001A0E                     
  6024                           ;../source/usb/usb_device.c: 1768:     pDst = ( uint8_t*)CtrlTrfData;
  6025   001A0E  0E28               	movlw	40
  6026   001A10  6E21               	movwf	_pDst^0,c
  6027   001A12  0E04               	movlw	4
  6028   001A14  6E22               	movwf	(_pDst+1)^0,c
  6029   001A16                     
  6030                           ;../source/usb/usb_device.c: 1769:     if(inPipes[0].info.bits.ctrl_trf_mem == 0x00)
  6031   001A16  B00C               	btfsc	(_inPipes+3)^0,0,c
  6032   001A18  EF10  F00D         	goto	u181
  6033   001A1C  EF12  F00D         	goto	u180
  6034   001A20                     u181:
  6035   001A20  EF52  F00D         	goto	l1547
  6036   001A24                     u180:
  6037   001A24  EF2E  F00D         	goto	l1537
  6038   001A28                     l1529:
  6039                           
  6040                           ;../source/usb/usb_device.c: 1772:         {;../source/usb/usb_device.c: 1773:          
      +                             *pDst++ = *inPipes[0].pSrc.bRom++;
  6041   001A28  C009  FFF6         	movff	_inPipes,tblptrl
  6042   001A2C  C00A  FFF7         	movff	_inPipes+1,tblptrh
  6043   001A30  6AF8               	clrf	tblptru,c
  6044   001A32  C021  FFE1         	movff	_pDst,fsr1l
  6045   001A36  C022  FFE2         	movff	_pDst+1,fsr1h
  6046   001A3A  0E07               	movlw	(high __ramtop+-1)
  6047   001A3C  64F7               	cpfsgt	tblptrh,c
  6048   001A3E  D003               	bra	u197
  6049   001A40  0008               	tblrd		*
  6050   001A42  50F5               	movf	tablat,w,c
  6051   001A44  D005               	bra	u190
  6052   001A46                     u197:
  6053   001A46  CFF6 FFD9          	movff	tblptrl,fsr2l
  6054   001A4A  CFF7 FFDA          	movff	tblptrh,fsr2h
  6055   001A4E  50DF               	movf	indf2,w,c
  6056   001A50                     u190:
  6057   001A50  6EE7               	movwf	indf1,c
  6058   001A52  4A09               	infsnz	_inPipes^0,f,c
  6059   001A54  2A0A               	incf	(_inPipes+1)^0,f,c
  6060   001A56  4A21               	infsnz	_pDst^0,f,c
  6061   001A58  2A22               	incf	(_pDst+1)^0,f,c
  6062   001A5A                     
  6063                           ;../source/usb/usb_device.c: 1774:             byteToSend--;
  6064   001A5A  063A               	decf	USBCtrlTrfTxService@byteToSend^0,f,c
  6065   001A5C                     l1537:
  6066                           
  6067                           ;../source/usb/usb_device.c: 1771:         while(byteToSend)
  6068   001A5C  503A               	movf	USBCtrlTrfTxService@byteToSend^0,w,c
  6069   001A5E  A4D8               	btfss	status,2,c
  6070   001A60  EF34  F00D         	goto	u201
  6071   001A64  EF36  F00D         	goto	u200
  6072   001A68                     u201:
  6073   001A68  EF14  F00D         	goto	l1529
  6074   001A6C                     u200:
  6075   001A6C  EF5A  F00D         	goto	l330
  6076   001A70                     l1539:
  6077                           
  6078                           ;../source/usb/usb_device.c: 1780:         {;../source/usb/usb_device.c: 1781:          
      +                             *pDst++ = *inPipes[0].pSrc.bRam++;
  6079   001A70  C009  FFF6         	movff	_inPipes,tblptrl
  6080   001A74  C00A  FFF7         	movff	_inPipes+1,tblptrh
  6081   001A78  6AF8               	clrf	tblptru,c
  6082   001A7A  C021  FFE1         	movff	_pDst,fsr1l
  6083   001A7E  C022  FFE2         	movff	_pDst+1,fsr1h
  6084   001A82  0E07               	movlw	(high __ramtop+-1)
  6085   001A84  64F7               	cpfsgt	tblptrh,c
  6086   001A86  D003               	bra	u217
  6087   001A88  0008               	tblrd		*
  6088   001A8A  50F5               	movf	tablat,w,c
  6089   001A8C  D005               	bra	u210
  6090   001A8E                     u217:
  6091   001A8E  CFF6 FFD9          	movff	tblptrl,fsr2l
  6092   001A92  CFF7 FFDA          	movff	tblptrh,fsr2h
  6093   001A96  50DF               	movf	indf2,w,c
  6094   001A98                     u210:
  6095   001A98  6EE7               	movwf	indf1,c
  6096   001A9A  4A09               	infsnz	_inPipes^0,f,c
  6097   001A9C  2A0A               	incf	(_inPipes+1)^0,f,c
  6098   001A9E  4A21               	infsnz	_pDst^0,f,c
  6099   001AA0  2A22               	incf	(_pDst+1)^0,f,c
  6100   001AA2                     
  6101                           ;../source/usb/usb_device.c: 1782:             byteToSend--;
  6102   001AA2  063A               	decf	USBCtrlTrfTxService@byteToSend^0,f,c
  6103   001AA4                     l1547:
  6104                           
  6105                           ;../source/usb/usb_device.c: 1779:         while(byteToSend)
  6106   001AA4  503A               	movf	USBCtrlTrfTxService@byteToSend^0,w,c
  6107   001AA6  A4D8               	btfss	status,2,c
  6108   001AA8  EF58  F00D         	goto	u221
  6109   001AAC  EF5A  F00D         	goto	u220
  6110   001AB0                     u221:
  6111   001AB0  EF38  F00D         	goto	l1539
  6112   001AB4                     u220:
  6113   001AB4                     l330:
  6114   001AB4  0012               	return		;funcret
  6115   001AB6                     __end_of_USBCtrlTrfTxService:
  6116                           	callstack 0
  6117                           
  6118 ;; *************** function _APP_DeviceJoystickTasks *****************
  6119 ;; Defined at:
  6120 ;;		line 126 in file "../source/app_device_joystick.c"
  6121 ;; Parameters:    Size  Location     Type
  6122 ;;		None
  6123 ;; Auto vars:     Size  Location     Type
  6124 ;;		None
  6125 ;; Return value:  Size  Location     Type
  6126 ;;                  1    wreg      void 
  6127 ;; Registers used:
  6128 ;;		wreg, fsr2l, fsr2h, status,2, status,0, prodl, prodh, cstack
  6129 ;; Tracked objects:
  6130 ;;		On entry : 0/0
  6131 ;;		On exit  : 0/0
  6132 ;;		Unchanged: 0/0
  6133 ;; Data sizes:     COMRAM   BANK0   BANK1   BANK2   BANK3   BANK4   BANK5   BANK6   BANK7
  6134 ;;      Params:         0       0       0       0       0       0       0       0       0
  6135 ;;      Locals:         0       0       0       0       0       0       0       0       0
  6136 ;;      Temps:          0       0       0       0       0       0       0       0       0
  6137 ;;      Totals:         0       0       0       0       0       0       0       0       0
  6138 ;;Total ram usage:        0 bytes
  6139 ;; Hardware stack levels used: 1
  6140 ;; Hardware stack levels required when called: 2
  6141 ;; This function calls:
  6142 ;;		_ADC_Readbits
  6143 ;;		_USBTransferOnePacket
  6144 ;; This function is called by:
  6145 ;;		_main
  6146 ;; This function uses a non-reentrant model
  6147 ;;
  6148                           
  6149                           	psect	text31
  6150   001E48                     __ptext31:
  6151                           	callstack 0
  6152   001E48                     _APP_DeviceJoystickTasks:
  6153                           	callstack 28
  6154   001E48                     
  6155                           ;../source/app_device_joystick.c: 131:     if( USBDeviceState < CONFIGURED_STATE )
  6156   001E48  0E20               	movlw	32
  6157   001E4A  6034               	cpfslt	_USBDeviceState^0,c
  6158   001E4C  EF2A  F00F         	goto	u2041
  6159   001E50  EF2C  F00F         	goto	u2040
  6160   001E54                     u2041:
  6161   001E54  EF2E  F00F         	goto	l608
  6162   001E58                     u2040:
  6163   001E58  EF7E  F00F         	goto	l609
  6164   001E5C                     l608:
  6165                           
  6166                           ;../source/app_device_joystick.c: 141:     if( UCONbits.SUSPND == 1 )
  6167   001E5C  A26D               	btfss	109,1,c	;volatile
  6168   001E5E  EF33  F00F         	goto	u2051
  6169   001E62  EF35  F00F         	goto	u2050
  6170   001E66                     u2051:
  6171   001E66  EF37  F00F         	goto	l3309
  6172   001E6A                     u2050:
  6173   001E6A  EF7E  F00F         	goto	l609
  6174   001E6E                     l3309:
  6175                           
  6176                           ;../source/app_device_joystick.c: 148:     if(!((lastTransmission != 0x0000) && ((*(vola
      +                          tile uint8_t*)lastTransmission & 0x80) != 0x00)))
  6177   001E6E  501B               	movf	_lastTransmission^0,w,c
  6178   001E70  101C               	iorwf	(_lastTransmission+1)^0,w,c
  6179   001E72  B4D8               	btfsc	status,2,c
  6180   001E74  EF3E  F00F         	goto	u2061
  6181   001E78  EF40  F00F         	goto	u2060
  6182   001E7C                     u2061:
  6183   001E7C  EF4B  F00F         	goto	l3313
  6184   001E80                     u2060:
  6185   001E80  C01B  FFD9         	movff	_lastTransmission,fsr2l
  6186   001E84  C01C  FFDA         	movff	_lastTransmission+1,fsr2h
  6187   001E88  BEDF               	btfsc	indf2,7,c
  6188   001E8A  EF49  F00F         	goto	u2071
  6189   001E8E  EF4B  F00F         	goto	u2070
  6190   001E92                     u2071:
  6191   001E92  EF7E  F00F         	goto	l609
  6192   001E96                     u2070:
  6193   001E96                     l3313:
  6194                           
  6195                           ;../source/app_device_joystick.c: 149:     {;../source/app_device_joystick.c: 178:      
      +                             joystick_input.members.analog_stick.Z = ADC_Readbits(ADC_CHANNEL_0)/4;
  6196   001E96  0E00               	movlw	0
  6197   001E98  EC7F  F00F         	call	_ADC_Readbits
  6198   001E9C  90D8               	bcf	status,0,c
  6199   001E9E  323B               	rrcf	(?_ADC_Readbits+1)^0,f,c
  6200   001EA0  323A               	rrcf	?_ADC_Readbits^0,f,c
  6201   001EA2  90D8               	bcf	status,0,c
  6202   001EA4  323B               	rrcf	(?_ADC_Readbits+1)^0,f,c
  6203   001EA6  323A               	rrcf	?_ADC_Readbits^0,f,c
  6204   001EA8  503A               	movf	?_ADC_Readbits^0,w,c
  6205   001EAA  0105               	movlb	5	; () banked
  6206   001EAC  6F00               	movwf	0,b
  6207                           
  6208                           ;../source/app_device_joystick.c: 179:         joystick_input.members.analog_stick.Rx = 
      +                          ADC_Readbits(ADC_CHANNEL_1)/4;
  6209   001EAE  0E01               	movlw	1
  6210   001EB0  EC7F  F00F         	call	_ADC_Readbits
  6211   001EB4  90D8               	bcf	status,0,c
  6212   001EB6  323B               	rrcf	(?_ADC_Readbits+1)^0,f,c
  6213   001EB8  323A               	rrcf	?_ADC_Readbits^0,f,c
  6214   001EBA  90D8               	bcf	status,0,c
  6215   001EBC  323B               	rrcf	(?_ADC_Readbits+1)^0,f,c
  6216   001EBE  323A               	rrcf	?_ADC_Readbits^0,f,c
  6217   001EC0  503A               	movf	?_ADC_Readbits^0,w,c
  6218   001EC2  0105               	movlb	5	; () banked
  6219   001EC4  6F01               	movwf	1,b
  6220                           
  6221                           ;../source/app_device_joystick.c: 180:         joystick_input.members.analog_stick.Rz = 
      +                          ADC_Readbits(ADC_CHANNEL_2)/4;
  6222   001EC6  0E02               	movlw	2
  6223   001EC8  EC7F  F00F         	call	_ADC_Readbits
  6224   001ECC  90D8               	bcf	status,0,c
  6225   001ECE  323B               	rrcf	(?_ADC_Readbits+1)^0,f,c
  6226   001ED0  323A               	rrcf	?_ADC_Readbits^0,f,c
  6227   001ED2  90D8               	bcf	status,0,c
  6228   001ED4  323B               	rrcf	(?_ADC_Readbits+1)^0,f,c
  6229   001ED6  323A               	rrcf	?_ADC_Readbits^0,f,c
  6230   001ED8  503A               	movf	?_ADC_Readbits^0,w,c
  6231   001EDA  0105               	movlb	5	; () banked
  6232   001EDC  6F02               	movwf	2,b
  6233   001EDE                     
  6234                           ; BSR set to: 5
  6235                           ;../source/app_device_joystick.c: 183:         lastTransmission = USBTransferOnePacket(1
      +                          ,1,(uint8_t*)&joystick_input,sizeof(joystick_input));
  6236   001EDE  0E01               	movlw	1
  6237   001EE0  6E3A               	movwf	USBTransferOnePacket@dir^0,c
  6238   001EE2  0E00               	movlw	0
  6239   001EE4  6E3B               	movwf	USBTransferOnePacket@data^0,c
  6240   001EE6  0E05               	movlw	5
  6241   001EE8  6E3C               	movwf	(USBTransferOnePacket@data+1)^0,c
  6242   001EEA  0E03               	movlw	3
  6243   001EEC  6E3D               	movwf	USBTransferOnePacket@len^0,c
  6244   001EEE  0E01               	movlw	1
  6245   001EF0  EC22  F00B         	call	_USBTransferOnePacket
  6246   001EF4  C03A  F01B         	movff	?_USBTransferOnePacket,_lastTransmission
  6247   001EF8  C03B  F01C         	movff	?_USBTransferOnePacket+1,_lastTransmission+1
  6248   001EFC                     l609:
  6249   001EFC  0012               	return		;funcret
  6250   001EFE                     __end_of_APP_DeviceJoystickTasks:
  6251                           	callstack 0
  6252                           
  6253 ;; *************** function _USBTransferOnePacket *****************
  6254 ;; Defined at:
  6255 ;;		line 955 in file "../source/usb/usb_device.c"
  6256 ;; Parameters:    Size  Location     Type
  6257 ;;  ep              1    wreg     unsigned char 
  6258 ;;  dir             1    0[COMRAM] unsigned char 
  6259 ;;  data            2    1[COMRAM] PTR unsigned char 
  6260 ;;		 -> joystick_input(3), 
  6261 ;;  len             1    3[COMRAM] unsigned char 
  6262 ;; Auto vars:     Size  Location     Type
  6263 ;;  ep              1    8[COMRAM] unsigned char 
  6264 ;;  handle          2    9[COMRAM] PTR volatile struct __BD
  6265 ;;		 -> RAM(2047), NULL(0), BDT(32), 
  6266 ;; Return value:  Size  Location     Type
  6267 ;;                  2    0[COMRAM] PTR void 
  6268 ;; Registers used:
  6269 ;;		wreg, fsr2l, fsr2h, status,2, status,0, prodl, prodh
  6270 ;; Tracked objects:
  6271 ;;		On entry : 0/0
  6272 ;;		On exit  : 0/0
  6273 ;;		Unchanged: 0/0
  6274 ;; Data sizes:     COMRAM   BANK0   BANK1   BANK2   BANK3   BANK4   BANK5   BANK6   BANK7
  6275 ;;      Params:         4       0       0       0       0       0       0       0       0
  6276 ;;      Locals:         3       0       0       0       0       0       0       0       0
  6277 ;;      Temps:          4       0       0       0       0       0       0       0       0
  6278 ;;      Totals:        11       0       0       0       0       0       0       0       0
  6279 ;;Total ram usage:       11 bytes
  6280 ;; Hardware stack levels used: 1
  6281 ;; Hardware stack levels required when called: 1
  6282 ;; This function calls:
  6283 ;;		Nothing
  6284 ;; This function is called by:
  6285 ;;		_APP_DeviceJoystickTasks
  6286 ;; This function uses a non-reentrant model
  6287 ;;
  6288                           
  6289                           	psect	text32
  6290   001644                     __ptext32:
  6291                           	callstack 0
  6292   001644                     _USBTransferOnePacket:
  6293                           	callstack 28
  6294                           
  6295                           ;incstack = 0
  6296                           ;USBTransferOnePacket@ep stored from wreg
  6297   001644  6E42               	movwf	USBTransferOnePacket@ep^0,c
  6298   001646                     
  6299                           ;../source/usb/usb_device.c: 955: void* USBTransferOnePacket(uint8_t ep,uint8_t dir,uint
      +                          8_t* data,uint8_t len);../source/usb/usb_device.c: 956: {;../source/usb/usb_device.c: 95
      +                          7:     volatile BDT_ENTRY* handle;;../source/usb/usb_device.c: 960:     if(dir != 0)
  6300   001646  503A               	movf	USBTransferOnePacket@dir^0,w,c
  6301   001648  B4D8               	btfsc	status,2,c
  6302   00164A  EF29  F00B         	goto	u1761
  6303   00164E  EF2B  F00B         	goto	u1760
  6304   001652                     u1761:
  6305   001652  EF39  F00B         	goto	l3163
  6306   001656                     u1760:
  6307   001656                     
  6308                           ;../source/usb/usb_device.c: 961:     {;../source/usb/usb_device.c: 963:         handle 
      +                          = pBDTEntryIn[ep];
  6309   001656  5042               	movf	USBTransferOnePacket@ep^0,w,c
  6310   001658  0D02               	mullw	2
  6311   00165A  0E13               	movlw	low _pBDTEntryIn
  6312   00165C  24F3               	addwf	243,w,c
  6313   00165E  6ED9               	movwf	fsr2l,c
  6314   001660  0E00               	movlw	high _pBDTEntryIn
  6315   001662  20F4               	addwfc	prodh,w,c
  6316   001664  6EDA               	movwf	fsr2h,c
  6317   001666  CFDE F043          	movff	postinc2,USBTransferOnePacket@handle
  6318   00166A  CFDD F044          	movff	postdec2,USBTransferOnePacket@handle+1
  6319                           
  6320                           ;../source/usb/usb_device.c: 964:     }
  6321   00166E  EF45  F00B         	goto	l3165
  6322   001672                     l3163:
  6323                           
  6324                           ;../source/usb/usb_device.c: 966:     {;../source/usb/usb_device.c: 968:         handle 
      +                          = pBDTEntryOut[ep];
  6325   001672  5042               	movf	USBTransferOnePacket@ep^0,w,c
  6326   001674  0D02               	mullw	2
  6327   001676  0E17               	movlw	low _pBDTEntryOut
  6328   001678  24F3               	addwf	243,w,c
  6329   00167A  6ED9               	movwf	fsr2l,c
  6330   00167C  0E00               	movlw	high _pBDTEntryOut
  6331   00167E  20F4               	addwfc	prodh,w,c
  6332   001680  6EDA               	movwf	fsr2h,c
  6333   001682  CFDE F043          	movff	postinc2,USBTransferOnePacket@handle
  6334   001686  CFDD F044          	movff	postdec2,USBTransferOnePacket@handle+1
  6335   00168A                     l3165:
  6336                           
  6337                           ;../source/usb/usb_device.c: 973:     if(handle == 0)
  6338   00168A  5043               	movf	USBTransferOnePacket@handle^0,w,c
  6339   00168C  1044               	iorwf	(USBTransferOnePacket@handle+1)^0,w,c
  6340   00168E  A4D8               	btfss	status,2,c
  6341   001690  EF4C  F00B         	goto	u1771
  6342   001694  EF4E  F00B         	goto	u1770
  6343   001698                     u1771:
  6344   001698  EF54  F00B         	goto	l3171
  6345   00169C                     u1770:
  6346   00169C                     
  6347                           ;../source/usb/usb_device.c: 974:     {;../source/usb/usb_device.c: 975:         return 
      +                          0;
  6348   00169C  0E00               	movlw	0
  6349   00169E  6E3A               	movwf	?_USBTransferOnePacket^0,c
  6350   0016A0  0E00               	movlw	0
  6351   0016A2  6E3B               	movwf	(?_USBTransferOnePacket+1)^0,c
  6352   0016A4  EFC0  F00B         	goto	l272
  6353   0016A8                     l3171:
  6354                           
  6355                           ;../source/usb/usb_device.c: 989:     handle->ADR = ((uint16_t)(data));
  6356   0016A8  EE20 F002          	lfsr	2,2
  6357   0016AC  5043               	movf	USBTransferOnePacket@handle^0,w,c
  6358   0016AE  26D9               	addwf	fsr2l,f,c
  6359   0016B0  5044               	movf	(USBTransferOnePacket@handle+1)^0,w,c
  6360   0016B2  22DA               	addwfc	fsr2h,f,c
  6361   0016B4  C03B  FFDE         	movff	USBTransferOnePacket@data,postinc2
  6362   0016B8  C03C  FFDD         	movff	USBTransferOnePacket@data+1,postdec2
  6363                           
  6364                           ;../source/usb/usb_device.c: 990:     handle->CNT = len;
  6365   0016BC  EE20 F001          	lfsr	2,1
  6366   0016C0  5043               	movf	USBTransferOnePacket@handle^0,w,c
  6367   0016C2  26D9               	addwf	fsr2l,f,c
  6368   0016C4  5044               	movf	(USBTransferOnePacket@handle+1)^0,w,c
  6369   0016C6  22DA               	addwfc	fsr2h,f,c
  6370   0016C8  C03D  FFDF         	movff	USBTransferOnePacket@len,indf2
  6371   0016CC                     
  6372                           ;../source/usb/usb_device.c: 991:     handle->STAT.Val &= 0x40;
  6373   0016CC  C043  FFD9         	movff	USBTransferOnePacket@handle,fsr2l
  6374   0016D0  C044  FFDA         	movff	USBTransferOnePacket@handle+1,fsr2h
  6375   0016D4  0E40               	movlw	64
  6376   0016D6  16DF               	andwf	indf2,f,c
  6377   0016D8                     
  6378                           ;../source/usb/usb_device.c: 992:     handle->STAT.Val |= (0x08 & 0x08);
  6379   0016D8  C043  FFD9         	movff	USBTransferOnePacket@handle,fsr2l
  6380   0016DC  C044  FFDA         	movff	USBTransferOnePacket@handle+1,fsr2h
  6381   0016E0  0E00               	movlw	0
  6382   0016E2  86DB               	bsf	plusw2,3,c
  6383   0016E4                     
  6384                           ;../source/usb/usb_device.c: 993:     handle->STAT.Val |= 0x80;
  6385   0016E4  C043  FFD9         	movff	USBTransferOnePacket@handle,fsr2l
  6386   0016E8  C044  FFDA         	movff	USBTransferOnePacket@handle+1,fsr2h
  6387   0016EC  0E00               	movlw	0
  6388   0016EE  8EDB               	bsf	plusw2,7,c
  6389   0016F0                     
  6390                           ;../source/usb/usb_device.c: 996:     if(dir != 0)
  6391   0016F0  503A               	movf	USBTransferOnePacket@dir^0,w,c
  6392   0016F2  B4D8               	btfsc	status,2,c
  6393   0016F4  EF7E  F00B         	goto	u1781
  6394   0016F8  EF80  F00B         	goto	u1780
  6395   0016FC                     u1781:
  6396   0016FC  EF9F  F00B         	goto	l3183
  6397   001700                     u1780:
  6398   001700                     
  6399                           ;../source/usb/usb_device.c: 997:     {;../source/usb/usb_device.c: 999:         pBDTEnt
      +                          ryIn[ep] = (BDT_ENTRY*)(((uint16_t)pBDTEntryIn[ep]) ^ 0x0004);
  6400   001700  5042               	movf	USBTransferOnePacket@ep^0,w,c
  6401   001702  0D02               	mullw	2
  6402   001704  0E13               	movlw	low _pBDTEntryIn
  6403   001706  24F3               	addwf	243,w,c
  6404   001708  6ED9               	movwf	fsr2l,c
  6405   00170A  0E00               	movlw	high _pBDTEntryIn
  6406   00170C  20F4               	addwfc	prodh,w,c
  6407   00170E  6EDA               	movwf	fsr2h,c
  6408   001710  CFDE F03E          	movff	postinc2,??_USBTransferOnePacket
  6409   001714  CFDD F03F          	movff	postdec2,??_USBTransferOnePacket+1
  6410   001718  0E04               	movlw	4
  6411   00171A  183E               	xorwf	??_USBTransferOnePacket^0,w,c
  6412   00171C  6E40               	movwf	(??_USBTransferOnePacket+2)^0,c
  6413   00171E  503F               	movf	(??_USBTransferOnePacket+1)^0,w,c
  6414   001720  6E41               	movwf	(??_USBTransferOnePacket+3)^0,c
  6415   001722  5042               	movf	USBTransferOnePacket@ep^0,w,c
  6416   001724  0D02               	mullw	2
  6417   001726  0E13               	movlw	low _pBDTEntryIn
  6418   001728  24F3               	addwf	243,w,c
  6419   00172A  6ED9               	movwf	fsr2l,c
  6420   00172C  0E00               	movlw	high _pBDTEntryIn
  6421   00172E  20F4               	addwfc	prodh,w,c
  6422   001730  6EDA               	movwf	fsr2h,c
  6423   001732  C040  FFDE         	movff	??_USBTransferOnePacket+2,postinc2
  6424   001736  C041  FFDD         	movff	??_USBTransferOnePacket+3,postdec2
  6425                           
  6426                           ;../source/usb/usb_device.c: 1000:     }
  6427   00173A  EFBC  F00B         	goto	l3185
  6428   00173E                     l3183:
  6429                           
  6430                           ;../source/usb/usb_device.c: 1002:     {;../source/usb/usb_device.c: 1004:         pBDTE
      +                          ntryOut[ep] = (BDT_ENTRY*)(((uint16_t)pBDTEntryOut[ep]) ^ 0x0004);
  6431   00173E  5042               	movf	USBTransferOnePacket@ep^0,w,c
  6432   001740  0D02               	mullw	2
  6433   001742  0E17               	movlw	low _pBDTEntryOut
  6434   001744  24F3               	addwf	243,w,c
  6435   001746  6ED9               	movwf	fsr2l,c
  6436   001748  0E00               	movlw	high _pBDTEntryOut
  6437   00174A  20F4               	addwfc	prodh,w,c
  6438   00174C  6EDA               	movwf	fsr2h,c
  6439   00174E  CFDE F03E          	movff	postinc2,??_USBTransferOnePacket
  6440   001752  CFDD F03F          	movff	postdec2,??_USBTransferOnePacket+1
  6441   001756  0E04               	movlw	4
  6442   001758  183E               	xorwf	??_USBTransferOnePacket^0,w,c
  6443   00175A  6E40               	movwf	(??_USBTransferOnePacket+2)^0,c
  6444   00175C  503F               	movf	(??_USBTransferOnePacket+1)^0,w,c
  6445   00175E  6E41               	movwf	(??_USBTransferOnePacket+3)^0,c
  6446   001760  5042               	movf	USBTransferOnePacket@ep^0,w,c
  6447   001762  0D02               	mullw	2
  6448   001764  0E17               	movlw	low _pBDTEntryOut
  6449   001766  24F3               	addwf	243,w,c
  6450   001768  6ED9               	movwf	fsr2l,c
  6451   00176A  0E00               	movlw	high _pBDTEntryOut
  6452   00176C  20F4               	addwfc	prodh,w,c
  6453   00176E  6EDA               	movwf	fsr2h,c
  6454   001770  C040  FFDE         	movff	??_USBTransferOnePacket+2,postinc2
  6455   001774  C041  FFDD         	movff	??_USBTransferOnePacket+3,postdec2
  6456   001778                     l3185:
  6457                           
  6458                           ;../source/usb/usb_device.c: 1006:     return (void*)handle;
  6459   001778  C043  F03A         	movff	USBTransferOnePacket@handle,?_USBTransferOnePacket
  6460   00177C  C044  F03B         	movff	USBTransferOnePacket@handle+1,?_USBTransferOnePacket+1
  6461   001780                     l272:
  6462   001780  0012               	return		;funcret
  6463   001782                     __end_of_USBTransferOnePacket:
  6464                           	callstack 0
  6465                           
  6466 ;; *************** function _ADC_Readbits *****************
  6467 ;; Defined at:
  6468 ;;		line 68 in file "../source/adc.c"
  6469 ;; Parameters:    Size  Location     Type
  6470 ;;  channel         1    wreg     enum E36
  6471 ;; Auto vars:     Size  Location     Type
  6472 ;;  channel         1    6[COMRAM] enum E36
  6473 ;;  result          2    4[COMRAM] unsigned short 
  6474 ;; Return value:  Size  Location     Type
  6475 ;;                  2    0[COMRAM] unsigned short 
  6476 ;; Registers used:
  6477 ;;		wreg, status,2, status,0
  6478 ;; Tracked objects:
  6479 ;;		On entry : 0/0
  6480 ;;		On exit  : 0/0
  6481 ;;		Unchanged: 0/0
  6482 ;; Data sizes:     COMRAM   BANK0   BANK1   BANK2   BANK3   BANK4   BANK5   BANK6   BANK7
  6483 ;;      Params:         2       0       0       0       0       0       0       0       0
  6484 ;;      Locals:         3       0       0       0       0       0       0       0       0
  6485 ;;      Temps:          2       0       0       0       0       0       0       0       0
  6486 ;;      Totals:         7       0       0       0       0       0       0       0       0
  6487 ;;Total ram usage:        7 bytes
  6488 ;; Hardware stack levels used: 1
  6489 ;; Hardware stack levels required when called: 1
  6490 ;; This function calls:
  6491 ;;		Nothing
  6492 ;; This function is called by:
  6493 ;;		_APP_DeviceJoystickTasks
  6494 ;;		_ADC_HatSwitch
  6495 ;; This function uses a non-reentrant model
  6496 ;;
  6497                           
  6498                           	psect	text33
  6499   001EFE                     __ptext33:
  6500                           	callstack 0
  6501   001EFE                     _ADC_Readbits:
  6502                           	callstack 28
  6503                           
  6504                           ;incstack = 0
  6505                           ;ADC_Readbits@channel stored from wreg
  6506   001EFE  6E40               	movwf	ADC_Readbits@channel^0,c
  6507   001F00                     
  6508                           ;../source/adc.c: 68: uint16_t ADC_Readbits(ADC_CHANNEL channel);../source/adc.c: 69: {;
      +                          ../source/adc.c: 70:     uint16_t result;;../source/adc.c: 72:     switch(channel)
  6509   001F00  EF86  F00F         	goto	l3017
  6510   001F04                     l68:
  6511                           
  6512                           ;../source/adc.c: 95:             return 0xFFFF;
  6513   001F04  683A               	setf	?_ADC_Readbits^0,c
  6514   001F06  683B               	setf	(?_ADC_Readbits+1)^0,c
  6515   001F08  EFD8  F00F         	goto	l69
  6516   001F0C                     l3017:
  6517   001F0C  5040               	movf	ADC_Readbits@channel^0,w,c
  6518   001F0E  6E3C               	movwf	??_ADC_Readbits^0,c
  6519   001F10  6A3D               	clrf	(??_ADC_Readbits+1)^0,c
  6520                           
  6521                           ; Switch on 2 bytes has been partitioned into a top level switch of size 1, and 1 sub-sw
      +                          itches
  6522                           ; Switch size 1, requested type "simple"
  6523                           ; Number of cases is 1, Range of values is 0 to 0
  6524                           ; switch strategies available:
  6525                           ; Name         Instructions Cycles
  6526                           ; simple_byte            4     3 (average)
  6527                           ;	Chosen strategy is simple_byte
  6528   001F12  503D               	movf	(??_ADC_Readbits+1)^0,w,c
  6529   001F14  0A00               	xorlw	0	; case 0
  6530   001F16  B4D8               	btfsc	status,2,c
  6531   001F18  EF90  F00F         	goto	l3651
  6532   001F1C  EF82  F00F         	goto	l68
  6533   001F20                     l3651:
  6534                           
  6535                           ; Switch size 1, requested type "simple"
  6536                           ; Number of cases is 10, Range of values is 0 to 9
  6537                           ; switch strategies available:
  6538                           ; Name         Instructions Cycles
  6539                           ; simple_byte           31    16 (average)
  6540                           ;	Chosen strategy is simple_byte
  6541   001F20  503C               	movf	??_ADC_Readbits^0,w,c
  6542   001F22  0A00               	xorlw	0	; case 0
  6543   001F24  B4D8               	btfsc	status,2,c
  6544   001F26  EFBB  F00F         	goto	l3019
  6545   001F2A  0A01               	xorlw	1	; case 1
  6546   001F2C  B4D8               	btfsc	status,2,c
  6547   001F2E  EFBB  F00F         	goto	l3019
  6548   001F32  0A03               	xorlw	3	; case 2
  6549   001F34  B4D8               	btfsc	status,2,c
  6550   001F36  EFBB  F00F         	goto	l3019
  6551   001F3A  0A01               	xorlw	1	; case 3
  6552   001F3C  B4D8               	btfsc	status,2,c
  6553   001F3E  EFBB  F00F         	goto	l3019
  6554   001F42  0A07               	xorlw	7	; case 4
  6555   001F44  B4D8               	btfsc	status,2,c
  6556   001F46  EFBB  F00F         	goto	l3019
  6557   001F4A  0A01               	xorlw	1	; case 5
  6558   001F4C  B4D8               	btfsc	status,2,c
  6559   001F4E  EFBB  F00F         	goto	l3019
  6560   001F52  0A03               	xorlw	3	; case 6
  6561   001F54  B4D8               	btfsc	status,2,c
  6562   001F56  EFBB  F00F         	goto	l3019
  6563   001F5A  0A01               	xorlw	1	; case 7
  6564   001F5C  B4D8               	btfsc	status,2,c
  6565   001F5E  EFBB  F00F         	goto	l3019
  6566   001F62  0A0F               	xorlw	15	; case 8
  6567   001F64  B4D8               	btfsc	status,2,c
  6568   001F66  EFBB  F00F         	goto	l3019
  6569   001F6A  0A01               	xorlw	1	; case 9
  6570   001F6C  B4D8               	btfsc	status,2,c
  6571   001F6E  EFBB  F00F         	goto	l3019
  6572   001F72  EF82  F00F         	goto	l68
  6573   001F76                     l3019:
  6574                           
  6575                           ;../source/adc.c: 98:     ADCON0bits.CHS = channel;
  6576   001F76  C040  F03C         	movff	ADC_Readbits@channel,??_ADC_Readbits
  6577   001F7A  463C               	rlncf	??_ADC_Readbits^0,f,c
  6578   001F7C  463C               	rlncf	??_ADC_Readbits^0,f,c
  6579   001F7E  50C2               	movf	194,w,c	;volatile
  6580   001F80  183C               	xorwf	??_ADC_Readbits^0,w,c
  6581   001F82  0BC3               	andlw	-61
  6582   001F84  183C               	xorwf	??_ADC_Readbits^0,w,c
  6583   001F86  6EC2               	movwf	194,c	;volatile
  6584   001F88                     
  6585                           ;../source/adc.c: 100:     ADCON0bits.GO = 1;
  6586   001F88  82C2               	bsf	194,1,c	;volatile
  6587   001F8A                     l70:
  6588   001F8A  B2C2               	btfsc	194,1,c	;volatile
  6589   001F8C  EFCA  F00F         	goto	u1681
  6590   001F90  EFCC  F00F         	goto	u1680
  6591   001F94                     u1681:
  6592   001F94  EFC5  F00F         	goto	l70
  6593   001F98                     u1680:
  6594   001F98                     
  6595                           ;../source/adc.c: 103:     result = ADRESH;
  6596   001F98  CFC4 F03E          	movff	4036,ADC_Readbits@result	;volatile
  6597   001F9C  6A3F               	clrf	(ADC_Readbits@result+1)^0,c
  6598   001F9E                     
  6599                           ;../source/adc.c: 104:     result <<=8;
  6600   001F9E  503E               	movf	ADC_Readbits@result^0,w,c
  6601   001FA0  6E3F               	movwf	(ADC_Readbits@result+1)^0,c
  6602   001FA2  6A3E               	clrf	ADC_Readbits@result^0,c
  6603   001FA4                     
  6604                           ;../source/adc.c: 105:     result |= ADRESL;
  6605   001FA4  50C3               	movf	195,w,c	;volatile
  6606   001FA6  123E               	iorwf	ADC_Readbits@result^0,f,c
  6607   001FA8                     
  6608                           ;../source/adc.c: 107:     return result;
  6609   001FA8  C03E  F03A         	movff	ADC_Readbits@result,?_ADC_Readbits
  6610   001FAC  C03F  F03B         	movff	ADC_Readbits@result+1,?_ADC_Readbits+1
  6611   001FB0                     l69:
  6612   001FB0  0012               	return		;funcret
  6613   001FB2                     __end_of_ADC_Readbits:
  6614                           	callstack 0
  6615                           
  6616 ;; *************** function _SYS_InterruptHigh *****************
  6617 ;; Defined at:
  6618 ;;		line 87 in file "system.c"
  6619 ;; Parameters:    Size  Location     Type
  6620 ;;		None
  6621 ;; Auto vars:     Size  Location     Type
  6622 ;;		None
  6623 ;; Return value:  Size  Location     Type
  6624 ;;                  1    wreg      void 
  6625 ;; Registers used:
  6626 ;;		None
  6627 ;; Tracked objects:
  6628 ;;		On entry : 0/0
  6629 ;;		On exit  : 0/0
  6630 ;;		Unchanged: 0/0
  6631 ;; Data sizes:     COMRAM   BANK0   BANK1   BANK2   BANK3   BANK4   BANK5   BANK6   BANK7
  6632 ;;      Params:         0       0       0       0       0       0       0       0       0
  6633 ;;      Locals:         0       0       0       0       0       0       0       0       0
  6634 ;;      Temps:          0       0       0       0       0       0       0       0       0
  6635 ;;      Totals:         0       0       0       0       0       0       0       0       0
  6636 ;;Total ram usage:        0 bytes
  6637 ;; Hardware stack levels used: 1
  6638 ;; This function calls:
  6639 ;;		Nothing
  6640 ;; This function is called by:
  6641 ;;		Interrupt level 2
  6642 ;; This function uses a non-reentrant model
  6643 ;;
  6644                           
  6645                           	psect	intcode
  6646   000008                     __pintcode:
  6647                           	callstack 0
  6648   000008                     _SYS_InterruptHigh:
  6649                           	callstack 21
  6650                           
  6651                           ;incstack = 0
  6652   000008  825B               	bsf	int$flags,1,c	;set compiler interrupt flag (level 2)
  6653   00000A  EDEE  F012         	call	int_func,f	;refresh shadow registers
  6654                           
  6655                           	psect	intcode_body
  6656   0025DC                     __pintcode_body:
  6657                           	callstack 21
  6658   0025DC                     int_func:
  6659                           	callstack 21
  6660   0025DC  0006               	pop		; remove dummy address from shadow register refresh
  6661   0025DE  925B               	bcf	int$flags,1,c	;clear compiler interrupt flag (level 2)
  6662   0025E0  0011               	retfie		f
  6663   0025E2                     __end_of_SYS_InterruptHigh:
  6664                           	callstack 0
  6665                           
  6666                           	psect	rparam
  6667   000000                     
  6668                           	psect	temp
  6669   00005B                     btemp:
  6670                           	callstack 0
  6671   00005B                     	ds	1
  6672   000000                     int$flags	set	btemp
  6673   000000                     wtemp8	set	btemp+1
  6674   000000                     ttemp5	set	btemp+1
  6675   000000                     ttemp6	set	btemp+4
  6676   000000                     ttemp7	set	btemp+8
  6677                           
  6678                           	psect	idloc
  6679                           
  6680                           ;Config register IDLOC0 @ 0x200000
  6681                           ;	unspecified, using default values
  6682   200000                     	org	2097152
  6683   200000  FF                 	db	255
  6684                           
  6685                           ;Config register IDLOC1 @ 0x200001
  6686                           ;	unspecified, using default values
  6687   200001                     	org	2097153
  6688   200001  FF                 	db	255
  6689                           
  6690                           ;Config register IDLOC2 @ 0x200002
  6691                           ;	unspecified, using default values
  6692   200002                     	org	2097154
  6693   200002  FF                 	db	255
  6694                           
  6695                           ;Config register IDLOC3 @ 0x200003
  6696                           ;	unspecified, using default values
  6697   200003                     	org	2097155
  6698   200003  FF                 	db	255
  6699                           
  6700                           ;Config register IDLOC4 @ 0x200004
  6701                           ;	unspecified, using default values
  6702   200004                     	org	2097156
  6703   200004  FF                 	db	255
  6704                           
  6705                           ;Config register IDLOC5 @ 0x200005
  6706                           ;	unspecified, using default values
  6707   200005                     	org	2097157
  6708   200005  FF                 	db	255
  6709                           
  6710                           ;Config register IDLOC6 @ 0x200006
  6711                           ;	unspecified, using default values
  6712   200006                     	org	2097158
  6713   200006  FF                 	db	255
  6714                           
  6715                           ;Config register IDLOC7 @ 0x200007
  6716                           ;	unspecified, using default values
  6717   200007                     	org	2097159
  6718   200007  FF                 	db	255
  6719                           
  6720                           	psect	config
  6721                           
  6722                           ;Config register CONFIG1L @ 0x300000
  6723                           ;	PLL Prescaler Selection bits
  6724                           ;	PLLDIV = 5, Divide by 5 (20 MHz oscillator input)
  6725                           ;	System Clock Postscaler Selection bits
  6726                           ;	CPUDIV = OSC1_PLL2, [Primary Oscillator Src: /1][96 MHz PLL Src: /2]
  6727                           ;	USB Clock Selection bit (used in Full-Speed USB mode only; UCFG:FSEN = 1)
  6728                           ;	USBDIV = 2, USB clock source comes from the 96 MHz PLL divided by 2
  6729   300000                     	org	3145728
  6730   300000  24                 	db	36
  6731                           
  6732                           ;Config register CONFIG1H @ 0x300001
  6733                           ;	Oscillator Selection bits
  6734                           ;	FOSC = HSPLL_HS, HS oscillator, PLL enabled (HSPLL)
  6735                           ;	Fail-Safe Clock Monitor Enable bit
  6736                           ;	FCMEN = OFF, Fail-Safe Clock Monitor disabled
  6737                           ;	Internal/External Oscillator Switchover bit
  6738                           ;	IESO = OFF, Oscillator Switchover mode disabled
  6739   300001                     	org	3145729
  6740   300001  0E                 	db	14
  6741                           
  6742                           ;Config register CONFIG2L @ 0x300002
  6743                           ;	Power-up Timer Enable bit
  6744                           ;	PWRT = OFF, PWRT disabled
  6745                           ;	Brown-out Reset Enable bits
  6746                           ;	BOR = ON, Brown-out Reset enabled in hardware only (SBOREN is disabled)
  6747                           ;	Brown-out Reset Voltage bits
  6748                           ;	BORV = 3, Minimum setting 2.05V
  6749                           ;	USB Voltage Regulator Enable bit
  6750                           ;	VREGEN = ON, USB voltage regulator enabled
  6751   300002                     	org	3145730
  6752   300002  3F                 	db	63
  6753                           
  6754                           ;Config register CONFIG2H @ 0x300003
  6755                           ;	Watchdog Timer Enable bit
  6756                           ;	WDT = OFF, WDT disabled (control is placed on the SWDTEN bit)
  6757                           ;	Watchdog Timer Postscale Select bits
  6758                           ;	WDTPS = 32768, 1:32768
  6759   300003                     	org	3145731
  6760   300003  1E                 	db	30
  6761                           
  6762                           ; Padding undefined space
  6763   300004                     	org	3145732
  6764   300004  FF                 	db	255
  6765                           
  6766                           ;Config register CONFIG3H @ 0x300005
  6767                           ;	CCP2 MUX bit
  6768                           ;	CCP2MX = 0x1, unprogrammed default
  6769                           ;	PORTB A/D Enable bit
  6770                           ;	PBADEN = OFF, PORTB<4:0> pins are configured as digital I/O on Reset
  6771                           ;	Low-Power Timer 1 Oscillator Enable bit
  6772                           ;	LPT1OSC = OFF, Timer1 configured for higher power operation
  6773                           ;	MCLR Pin Enable bit
  6774                           ;	MCLRE = ON, MCLR pin enabled; RE3 input pin disabled
  6775   300005                     	org	3145733
  6776   300005  81                 	db	129
  6777                           
  6778                           ;Config register CONFIG4L @ 0x300006
  6779                           ;	Stack Full/Underflow Reset Enable bit
  6780                           ;	STVREN = ON, Stack full/underflow will cause Reset
  6781                           ;	Single-Supply ICSP Enable bit
  6782                           ;	LVP = OFF, Single-Supply ICSP disabled
  6783                           ;	Dedicated In-Circuit Debug/Programming Port (ICPORT) Enable bit
  6784                           ;	ICPRT = 0x0, unprogrammed default
  6785                           ;	Extended Instruction Set Enable bit
  6786                           ;	XINST = OFF, Instruction set extension and Indexed Addressing mode disabled (Legacy mo
      +                          de)
  6787                           ;	Background Debugger Enable bit
  6788                           ;	DEBUG = 0x1, unprogrammed default
  6789   300006                     	org	3145734
  6790   300006  81                 	db	129
  6791                           
  6792                           ; Padding undefined space
  6793   300007                     	org	3145735
  6794   300007  FF                 	db	255
  6795                           
  6796                           ;Config register CONFIG5L @ 0x300008
  6797                           ;	Code Protection bit
  6798                           ;	CP0 = OFF, Block 0 (000800-001FFFh) is not code-protected
  6799                           ;	Code Protection bit
  6800                           ;	CP1 = OFF, Block 1 (002000-003FFFh) is not code-protected
  6801                           ;	Code Protection bit
  6802                           ;	CP2 = 0x1, unprogrammed default
  6803                           ;	Code Protection bit
  6804                           ;	CP3 = 0x1, unprogrammed default
  6805   300008                     	org	3145736
  6806   300008  0F                 	db	15
  6807                           
  6808                           ;Config register CONFIG5H @ 0x300009
  6809                           ;	Boot Block Code Protection bit
  6810                           ;	CPB = OFF, Boot block (000000-0007FFh) is not code-protected
  6811                           ;	Data EEPROM Code Protection bit
  6812                           ;	CPD = 0x1, unprogrammed default
  6813   300009                     	org	3145737
  6814   300009  C0                 	db	192
  6815                           
  6816                           ;Config register CONFIG6L @ 0x30000A
  6817                           ;	Write Protection bit
  6818                           ;	WRT0 = OFF, Block 0 (000800-001FFFh) is not write-protected
  6819                           ;	Write Protection bit
  6820                           ;	WRT1 = OFF, Block 1 (002000-003FFFh) is not write-protected
  6821                           ;	Write Protection bit
  6822                           ;	WRT2 = 0x1, unprogrammed default
  6823                           ;	Write Protection bit
  6824                           ;	WRT3 = 0x1, unprogrammed default
  6825   30000A                     	org	3145738
  6826   30000A  0F                 	db	15
  6827                           
  6828                           ;Config register CONFIG6H @ 0x30000B
  6829                           ;	Configuration Register Write Protection bit
  6830                           ;	WRTC = OFF, Configuration registers (300000-3000FFh) are not write-protected
  6831                           ;	Boot Block Write Protection bit
  6832                           ;	WRTB = OFF, Boot block (000000-0007FFh) is not write-protected
  6833                           ;	Data EEPROM Write Protection bit
  6834                           ;	WRTD = 0x1, unprogrammed default
  6835   30000B                     	org	3145739
  6836   30000B  E0                 	db	224
  6837                           
  6838                           ;Config register CONFIG7L @ 0x30000C
  6839                           ;	Table Read Protection bit
  6840                           ;	EBTR0 = OFF, Block 0 (000800-001FFFh) is not protected from table reads executed in ot
      +                          her blocks
  6841                           ;	Table Read Protection bit
  6842                           ;	EBTR1 = OFF, Block 1 (002000-003FFFh) is not protected from table reads executed in ot
      +                          her blocks
  6843                           ;	Table Read Protection bit
  6844                           ;	EBTR2 = 0x1, unprogrammed default
  6845                           ;	Table Read Protection bit
  6846                           ;	EBTR3 = 0x1, unprogrammed default
  6847   30000C                     	org	3145740
  6848   30000C  0F                 	db	15
  6849                           
  6850                           ;Config register CONFIG7H @ 0x30000D
  6851                           ;	Boot Block Table Read Protection bit
  6852                           ;	EBTRB = OFF, Boot block (000000-0007FFh) is not protected from table reads executed in
      +                           other blocks
  6853   30000D                     	org	3145741
  6854   30000D  40                 	db	64
  6855                           tosu	equ	0xFFF
  6856                           tosh	equ	0xFFE
  6857                           tosl	equ	0xFFD
  6858                           stkptr	equ	0xFFC
  6859                           pclatu	equ	0xFFB
  6860                           pclath	equ	0xFFA
  6861                           pcl	equ	0xFF9
  6862                           tblptru	equ	0xFF8
  6863                           tblptrh	equ	0xFF7
  6864                           tblptrl	equ	0xFF6
  6865                           tablat	equ	0xFF5
  6866                           prodh	equ	0xFF4
  6867                           prodl	equ	0xFF3
  6868                           indf0	equ	0xFEF
  6869                           postinc0	equ	0xFEE
  6870                           postdec0	equ	0xFED
  6871                           preinc0	equ	0xFEC
  6872                           plusw0	equ	0xFEB
  6873                           fsr0h	equ	0xFEA
  6874                           fsr0l	equ	0xFE9
  6875                           wreg	equ	0xFE8
  6876                           indf1	equ	0xFE7
  6877                           postinc1	equ	0xFE6
  6878                           postdec1	equ	0xFE5
  6879                           preinc1	equ	0xFE4
  6880                           plusw1	equ	0xFE3
  6881                           fsr1h	equ	0xFE2
  6882                           fsr1l	equ	0xFE1
  6883                           bsr	equ	0xFE0
  6884                           indf2	equ	0xFDF
  6885                           postinc2	equ	0xFDE
  6886                           postdec2	equ	0xFDD
  6887                           preinc2	equ	0xFDC
  6888                           plusw2	equ	0xFDB
  6889                           fsr2h	equ	0xFDA
  6890                           fsr2l	equ	0xFD9
  6891                           status	equ	0xFD8

Data Sizes:
    Strings     0
    Constant    165
    Data        0
    BSS         57
    Persistent  0
    Stack       0

Auto Spaces:
    Space          Size  Autos    Used
    COMRAM           94     33      90
    BANK0           160      0       0
    BANK1           256      0       0
    BANK2           256      0       0
    BANK3           256      0       0
    BANK4           208      0       0
    BANK5           253      0       0
    BANK6           256      0       0
    BANK7           256      0       0

Pointer List with Targets:

    USER_USB_CALLBACK_EVENT_HANDLER@pdata	PTR void  size(2) Largest target is 2047
		 -> RAM(DATA[2047]), USTATcopy(COMRAM[1]), USBActiveConfiguration(COMRAM[1]), NULL(NULL[0]), 
		 -> BDT(BIGRAMl[32]), 

    memset@dest	PTR void  size(2) Largest target is 32
		 -> USBAlternateInterface(COMRAM[1]), BDT(BIGRAMl[32]), UEP1(BITBIGSFRlhh[1]), 

    memset@s	PTR unsigned char  size(2) Largest target is 32
		 -> USBAlternateInterface(COMRAM[1]), BDT(BIGRAMl[32]), UEP1(BITBIGSFRlhh[1]), 

    memcpy@d1	PTR void  size(2) Largest target is 8
		 -> SetupPkt(BIGRAMhl[8]), 

    memcpy@d	PTR unsigned char  size(2) Largest target is 8
		 -> SetupPkt(BIGRAMhl[8]), 

    memcpy@s1	PTR const void  size(2) Largest target is 2047
		 -> CtrlTrfData(BIGRAMhl[8]), RAM(DATA[2047]), SetupPkt(BIGRAMhl[8]), 

    memcpy@s	PTR const unsigned char  size(2) Largest target is 2047
		 -> CtrlTrfData(BIGRAMhl[8]), RAM(DATA[2047]), SetupPkt(BIGRAMhl[8]), 

    lastTransmission	PTR void  size(2) Largest target is 2047
		 -> RAM(DATA[2047]), NULL(NULL[0]), BDT(BIGRAMl[32]), 

    USBStdFeatureReqHandler@pUEP	PTR unsigned char  size(2) Largest target is 1
		 -> UEP0(ABS[1]), 

    USBStdFeatureReqHandler@p	PTR struct __BDT size(2) Largest target is 2047
		 -> RAM(DATA[2047]), NULL(NULL[0]), BDT(BIGRAMl[32]), 

    sp__memcpy	PTR void  size(2) Largest target is 8
		 -> SetupPkt(BIGRAMhl[8]), 

    USBStdGetStatusHandler@p	PTR struct __BDT size(2) Largest target is 2047
		 -> RAM(DATA[2047]), NULL(NULL[0]), BDT(BIGRAMl[32]), 

    USB_SD_Ptr	const PTR const unsigned char [3] size(2) Largest target is 40
		 -> sd002(CODE[40]), sd001(CODE[36]), sd000(CODE[4]), 

    USB_CD_Ptr	const PTR const unsigned char [1] size(2) Largest target is 34
		 -> configDescriptor1(CODE[34]), 

    pDst	PTR unsigned char  size(2) Largest target is 8
		 -> CtrlTrfData(BIGRAMhl[8]), NULL(NULL[0]), 

    USBConfigureEndpoint@handle	PTR volatile struct __BDT size(2) Largest target is 32
		 -> BDT(BIGRAMl[32]), 

    pBDTEntryEP0OutCurrent	PTR volatile struct __BDT size(2) Largest target is 32
		 -> NULL(NULL[0]), BDT(BIGRAMl[32]), 

    pBDTEntryEP0OutNext	PTR volatile struct __BDT size(2) Largest target is 2047
		 -> RAM(DATA[2047]), NULL(NULL[0]), BDT(BIGRAMl[32]), 

    USBTransferOnePacket@data	PTR unsigned char  size(2) Largest target is 3
		 -> joystick_input(BIGRAMhl[3]), 

    sp__USBTransferOnePacket	PTR void  size(2) Largest target is 2047
		 -> RAM(DATA[2047]), NULL(NULL[0]), BDT(BIGRAMl[32]), 

    USBTransferOnePacket@handle	PTR volatile struct __BDT size(2) Largest target is 2047
		 -> RAM(DATA[2047]), NULL(NULL[0]), BDT(BIGRAMl[32]), 

    USBEnableEndpoint@p	PTR unsigned char  size(2) Largest target is 1
		 -> UEP0(ABS[1]), 

    pBDTEntryOut	PTR volatile struct __BDT[2] size(2) Largest target is 2047
		 -> RAM(DATA[2047]), NULL(NULL[0]), BDT(BIGRAMl[32]), 

    pBDTEntryIn	PTR volatile struct __BDT[2] size(2) Largest target is 2047
		 -> RAM(DATA[2047]), NULL(NULL[0]), BDT(BIGRAMl[32]), 

    S478$pFunc	PTR FTN()void  size(2) Largest target is 0

    outPipes.pFunc	PTR FTN()void  size(2) Largest target is 0

    S468$wRam	PTR unsigned short  size(2) Largest target is 0

    outPipes.pDst.wRam	PTR unsigned short  size(2) Largest target is 0

    S468$bRam	PTR unsigned char  size(2) Largest target is 0

    outPipes.pDst.bRam	PTR unsigned char  size(2) Largest target is 0

    S444$wRom	PTR const unsigned short  size(2) Largest target is 0

    inPipes.pSrc.wRom	PTR const unsigned short  size(2) Largest target is 0

    S444$wRam	PTR unsigned short  size(2) Largest target is 0

    inPipes.pSrc.wRam	PTR unsigned short  size(2) Largest target is 0

    S444$bRom	PTR const unsigned char  size(2) Largest target is 0

    inPipes.pSrc.bRom	PTR const unsigned char  size(2) Largest target is 0

    S444$bRam	PTR unsigned char  size(2) Largest target is 0

    inPipes.pSrc.bRam	PTR unsigned char  size(2) Largest target is 0

    sp__memset	PTR void  size(2) Largest target is 32
		 -> USBAlternateInterface(COMRAM[1]), BDT(BIGRAMl[32]), UEP1(BITBIGSFRlhh[1]), 


Critical Paths under _main in COMRAM

    _main->_USBDeviceTasks
    _USBDeviceTasks->_USBCtrlEPService
    _USBWakeFromSuspend->_USER_USB_CALLBACK_EVENT_HANDLER
    _USBSuspend->_USER_USB_CALLBACK_EVENT_HANDLER
    _USBDeviceInit->_memset
    _USBCtrlTrfSetupHandler->_USBCheckStdRequest
    _USBCtrlEPAllowDataStage->_USBCtrlTrfTxService
    _USBCheckStdRequest->_USBStdFeatureReqHandler
    _USBStdSetCfgHandler->_USER_USB_CALLBACK_EVENT_HANDLER
    _USBStdFeatureReqHandler->_USER_USB_CALLBACK_EVENT_HANDLER
    _SYSTEM_Initialize->_ADC_Enable
    _APP_DeviceJoystickInitialize->_USBEnableEndpoint
    _USBEnableEndpoint->_USBConfigureEndpoint
    _USBCtrlTrfOutHandler->_USBCtrlTrfRxService
    _USBCtrlTrfInHandler->_USBCtrlTrfTxService
    _APP_DeviceJoystickTasks->_USBTransferOnePacket

Critical Paths under _SYS_InterruptHigh in COMRAM

    None.

Critical Paths under _main in BANK0

    None.

Critical Paths under _SYS_InterruptHigh in BANK0

    None.

Critical Paths under _main in BANK1

    None.

Critical Paths under _SYS_InterruptHigh in BANK1

    None.

Critical Paths under _main in BANK2

    None.

Critical Paths under _SYS_InterruptHigh in BANK2

    None.

Critical Paths under _main in BANK3

    None.

Critical Paths under _SYS_InterruptHigh in BANK3

    None.

Critical Paths under _main in BANK4

    None.

Critical Paths under _SYS_InterruptHigh in BANK4

    None.

Critical Paths under _main in BANK5

    None.

Critical Paths under _SYS_InterruptHigh in BANK5

    None.

Critical Paths under _main in BANK6

    None.

Critical Paths under _SYS_InterruptHigh in BANK6

    None.

Critical Paths under _main in BANK7

    None.

Critical Paths under _SYS_InterruptHigh in BANK7

    None.

Call Graph Tables:

 ---------------------------------------------------------------------------------
 (Depth) Function   	        Calls       Base Space   Used Autos Params    Refs
 ---------------------------------------------------------------------------------
 (0) _main                                                 0     0      0   31446
            _APP_DeviceJoystickTasks
                  _SYSTEM_Initialize
                      _USBDeviceInit
                     _USBDeviceTasks
 ---------------------------------------------------------------------------------
 (1) _USBDeviceTasks                                       1     1      0   28700
                                             32 COMRAM     1     1      0
          _USBCtrlEPAllowStatusStage
                   _USBCtrlEPService
                      _USBDeviceInit
      _USBIncrement1msInternalTimers
                    _USBStallHandler
                         _USBSuspend
                 _USBWakeFromSuspend
    _USER_USB_CALLBACK_EVENT_HANDLER
 ---------------------------------------------------------------------------------
 (2) _USBWakeFromSuspend                                   0     0      0    3381
    _USER_USB_CALLBACK_EVENT_HANDLER
 ---------------------------------------------------------------------------------
 (2) _USBSuspend                                           0     0      0    3381
    _USER_USB_CALLBACK_EVENT_HANDLER
 ---------------------------------------------------------------------------------
 (2) _USBStallHandler                                      1     1      0       0
                                              0 COMRAM     1     1      0
 ---------------------------------------------------------------------------------
 (2) _USBIncrement1msInternalTimers                        0     0      0       0
 ---------------------------------------------------------------------------------
 (2) _USBDeviceInit                                        1     1      0    1989
                                             12 COMRAM     1     1      0
                             _memset
 ---------------------------------------------------------------------------------
 (2) _USBCtrlEPService                                     1     1      0   16522
                                             31 COMRAM     1     1      0
                _USBCtrlTrfInHandler
               _USBCtrlTrfOutHandler
             _USBCtrlTrfSetupHandler
                             _memcpy
 ---------------------------------------------------------------------------------
 (3) _memcpy                                              11     5      6     410
                                              0 COMRAM    11     5      6
 ---------------------------------------------------------------------------------
 (3) _USBCtrlTrfSetupHandler                               0     0      0   15962
                 _USBCheckStdRequest
           _USBCtrlEPServiceComplete
    _USER_USB_CALLBACK_EVENT_HANDLER
 ---------------------------------------------------------------------------------
 (4) _USBCtrlEPServiceComplete                             0     0      0      60
            _USBCtrlEPAllowDataStage
          _USBCtrlEPAllowStatusStage
 ---------------------------------------------------------------------------------
 (5) _USBCtrlEPAllowDataStage                              0     0      0      60
                _USBCtrlTrfTxService
 ---------------------------------------------------------------------------------
 (4) _USBCheckStdRequest                                   2     2      0   12521
                                             29 COMRAM     2     2      0
            _USBStdFeatureReqHandler
                _USBStdGetDscHandler
             _USBStdGetStatusHandler
                _USBStdSetCfgHandler
    _USER_USB_CALLBACK_EVENT_HANDLER
 ---------------------------------------------------------------------------------
 (5) _USBStdSetCfgHandler                                  1     1      0    5258
                                             22 COMRAM     1     1      0
    _USER_USB_CALLBACK_EVENT_HANDLER
                             _memset
 ---------------------------------------------------------------------------------
 (3) _memset                                              12     6      6    1787
                                              0 COMRAM    12     6      6
 ---------------------------------------------------------------------------------
 (5) _USBStdGetStatusHandler                               4     4      0      30
                                              0 COMRAM     4     4      0
 ---------------------------------------------------------------------------------
 (5) _USBStdGetDscHandler                                  2     2      0       0
                                              0 COMRAM     2     2      0
 ---------------------------------------------------------------------------------
 (5) _USBStdFeatureReqHandler                              7     7      0    3852
                                             22 COMRAM     7     7      0
    _USER_USB_CALLBACK_EVENT_HANDLER
 ---------------------------------------------------------------------------------
 (2) _USER_USB_CALLBACK_EVENT_HANDLER                      8     2      6    3381
                                             14 COMRAM     8     2      6
       _APP_DeviceJoystickInitialize
                  _SYSTEM_Initialize
                 _USBCheckHIDRequest
 ---------------------------------------------------------------------------------
 (3) _USBCheckHIDRequest                                   2     2      0       0
                                              0 COMRAM     2     2      0
 ---------------------------------------------------------------------------------
 (3) _SYSTEM_Initialize                                    3     3      0      45
                                              3 COMRAM     3     3      0
                         _ADC_Enable
               _ADC_SetConfiguration
 ---------------------------------------------------------------------------------
 (4) _ADC_SetConfiguration                                 1     1      0      15
                                              0 COMRAM     1     1      0
 ---------------------------------------------------------------------------------
 (4) _ADC_Enable                                           3     3      0      15
                                              0 COMRAM     3     3      0
 ---------------------------------------------------------------------------------
 (3) _APP_DeviceJoystickInitialize                         0     0      0     644
                  _USBEnableEndpoint
 ---------------------------------------------------------------------------------
 (4) _USBEnableEndpoint                                    4     3      1     644
                                             10 COMRAM     4     3      1
               _USBConfigureEndpoint
 ---------------------------------------------------------------------------------
 (5) _USBConfigureEndpoint                                10     9      1     400
                                              0 COMRAM    10     9      1
 ---------------------------------------------------------------------------------
 (3) _USBCtrlTrfOutHandler                                 0     0      0      75
                _USBCtrlTrfRxService
 ---------------------------------------------------------------------------------
 (4) _USBCtrlTrfRxService                                  2     2      0      75
                                              0 COMRAM     2     2      0
          _USBCtrlEPAllowStatusStage
 ---------------------------------------------------------------------------------
 (5) _USBCtrlEPAllowStatusStage                            0     0      0       0
 ---------------------------------------------------------------------------------
 (3) _USBCtrlTrfInHandler                                  1     1      0      75
                                              1 COMRAM     1     1      0
                _USBCtrlTrfTxService
 ---------------------------------------------------------------------------------
 (6) _USBCtrlTrfTxService                                  1     1      0      60
                                              0 COMRAM     1     1      0
 ---------------------------------------------------------------------------------
 (1) _APP_DeviceJoystickTasks                              0     0      0     712
                       _ADC_Readbits
               _USBTransferOnePacket
 ---------------------------------------------------------------------------------
 (2) _USBTransferOnePacket                                11     7      4     643
                                              0 COMRAM    11     7      4
 ---------------------------------------------------------------------------------
 (2) _ADC_Readbits                                         7     5      2      69
                                              0 COMRAM     7     5      2
 ---------------------------------------------------------------------------------
 Estimated maximum stack depth 6
 ---------------------------------------------------------------------------------
 (Depth) Function   	        Calls       Base Space   Used Autos Params    Refs
 ---------------------------------------------------------------------------------
 (10) _SYS_InterruptHigh                                   0     0      0       0
 ---------------------------------------------------------------------------------
 Estimated maximum stack depth 10
 ---------------------------------------------------------------------------------

 Call Graph Graphs:

 _main (ROOT)
   _APP_DeviceJoystickTasks
     _ADC_Readbits
     _USBTransferOnePacket
   _SYSTEM_Initialize
     _ADC_Enable
     _ADC_SetConfiguration
   _USBDeviceInit
     _memset
   _USBDeviceTasks
     _USBCtrlEPAllowStatusStage
     _USBCtrlEPService
       _USBCtrlTrfInHandler
         _USBCtrlTrfTxService
       _USBCtrlTrfOutHandler
         _USBCtrlTrfRxService
           _USBCtrlEPAllowStatusStage
       _USBCtrlTrfSetupHandler
         _USBCheckStdRequest
           _USBStdFeatureReqHandler
             _USER_USB_CALLBACK_EVENT_HANDLER
               _APP_DeviceJoystickInitialize
                 _USBEnableEndpoint
                   _USBConfigureEndpoint
               _SYSTEM_Initialize
               _USBCheckHIDRequest
           _USBStdGetDscHandler
           _USBStdGetStatusHandler
           _USBStdSetCfgHandler
             _USER_USB_CALLBACK_EVENT_HANDLER
             _memset
           _USER_USB_CALLBACK_EVENT_HANDLER
         _USBCtrlEPServiceComplete
           _USBCtrlEPAllowDataStage
             _USBCtrlTrfTxService
           _USBCtrlEPAllowStatusStage
         _USER_USB_CALLBACK_EVENT_HANDLER
       _memcpy
     _USBDeviceInit
     _USBIncrement1msInternalTimers
     _USBStallHandler
     _USBSuspend
       _USER_USB_CALLBACK_EVENT_HANDLER
     _USBWakeFromSuspend
       _USER_USB_CALLBACK_EVENT_HANDLER
     _USER_USB_CALLBACK_EVENT_HANDLER

 _SYS_InterruptHigh (ROOT)

 Address spaces:
Name               Size   Autos  Total    Cost      Usage
BIGRAMl            3FF      0       0      30        0.0%
BIGRAMhh           2FD      0       0      28        0.0%
EEDATA             100      0       0       0        0.0%
BITBANK7           100      0       0      19        0.0%
BANK7              100      0       0      20        0.0%
BITBANK6           100      0       0      17        0.0%
BANK6              100      0       0      18        0.0%
BITBANK3           100      0       0      11        0.0%
BANK3              100      0       0      12        0.0%
BITBANK2           100      0       0       9        0.0%
BANK2              100      0       0      10        0.0%
BITBANK1           100      0       0       7        0.0%
BANK1              100      0       0       8        0.0%
BITBANK5            FD      0       0      15        0.0%
BANK5               FD      0       0      16        0.0%
BIGRAMhl            D0      0       0      29        0.0%
BITBANK4            D0      0       0      13        0.0%
BANK4               D0      0       0      14        0.0%
BITBANK0            A0      0       0       5        0.0%
BANK0               A0      0       0       6        0.0%
BITCOMRAM           5E      0       0       0        0.0%
COMRAM              5E     21      5A       1       95.7%
BITBIGSFRhhhh       3B      0       0      21        0.0%
BITBIGSFRhhlhh      1E      0       0      22        0.0%
BITBIGSFRhl         10      0       0      25        0.0%
BITBIGSFRlhh         F      0       0      26        0.0%
BITBIGSFRhhlhl       9      0       0      23        0.0%
BITBIGSFRlll         8      0       0      27        0.0%
BITBIGSFRhhll        2      0       0      24        0.0%
BIGSFR               0      0       0     200        0.0%
BITSFR               0      0       0     200        0.0%
SFR                  0      0       0     200        0.0%
STACK                0      0       0       2        0.0%
NULL                 0      0       0       0        0.0%
ABS                  0      0      5A       3        0.0%
DATA                 0      0      5A       4        0.0%
CODE                 0      0       0       0        0.0%


Microchip Technology PIC18 Macro Assembler V2.40 build 20220703182018 
Symbol Table                                                                                   Thu Mar 16 22:35:49 2023

                             _USB_SD_Ptr 0801                                       l70 1F8A  
                                     l72 1F98                                       l80 207A  
                                     l81 2080                                       l82 2086  
                                     l83 208C                                       l68 1F04  
                                     l84 2092                                       l76 2068  
                                     l92 25AC                                       l69 1FB0  
                                     l85 2098                                       l77 210E  
                                     l86 209E                                       l78 206E  
                                     l79 2074                                       u20 259A  
                                     u21 2596                                       u50 0FE2  
                                     u51 0FDE                                       u60 0FF6  
                                     u61 0FF2                                       u70 100C  
                                     u71 1008                                       u80 1020  
                                     u81 101C                                       u90 1094  
                                     u91 1090                            _USBDeviceInit 127C  
                     _USBCheckHIDRequest 0FCC     USER_USB_CALLBACK_EVENT_HANDLER@event 0048  
   USER_USB_CALLBACK_EVENT_HANDLER@pdata 004A                                      l302 2060  
                                    l231 13C0                                      l305 159E  
                                    l401 1E46                                      l330 1AB4  
                                    l226 12E0                                      l411 2358  
                                    l315 1642                                      l235 0E54  
                                    l243 0C94                                      l404 22E4  
                                    l252 0DAE                                      l341 14EC  
                                    l253 0E52                                      l237 0C1E  
            __end_of_USBStdGetDscHandler 127C                                      l350 1D8E  
                                    l254 0DC0                                      l238 0C1C  
                                    l343 1502                                      l511 112A  
                                    l431 18B4                                      l272 1780  
                                    l424 1BB2                                      l440 1902  
                                    l425 1BB8                                      l417 1BA4  
                                    l266 24AA                                      l291 1CA8  
                                    l371 187A                                      l364 127A  
                                    l372 17A8                                      l605 25DA  
                                    l373 17AE                                      l429 19AA  
                                    l446 08EE                                      l382 23B6  
                                    l287 1CA8                                      l608 1E5C  
                                    l368 1790                                      l384 23B8  
                                    l609 1EFC                                      l465 0B58  
                                    l457 0AAA                                      l297 21BA  
                                    l393 2528                                      l474 255A  
                                    l379 1896                                      l387 2586  
                                    l549 2256                                      l469 0BF2  
                                    l583 240E                                      l567 24CE  
                                    _BDT 000400                                      u200 1A6C  
                                    u201 1A68                                      u210 1A98  
                                    u220 1AB4                                      u221 1AB0  
                                    u150 19C6                                      u230 1BCA  
                                    u310 1140                                      u151 19C2  
                                    u231 1BC6                                      u311 113C  
                                    u160 19DA                                      u240 1BDE  
                                    u320 116C                                      u400 1828  
                                    u217 1A8E                                      u161 19D6  
                                    u241 1BDA                                      u321 1168  
                                    u401 1824                                      u170 19F2  
                                    u250 1BF4                                      u330 11B4  
                                    u410 183E                                      u171 19EE  
                                    u251 1BF0                                      u411 183A  
                                    u180 1A24                                      u260 1C30  
                                    u340 11E2                                      u420 1888  
                                    u181 1A20                                      u261 1C2C  
                                    u421 1884                                      u190 1A50  
                                    u350 1200                                      u270 212A  
                                    u351 11FC                                      u271 2126  
                                    u360 123C                                      u280 2182  
                                    u337 11AA                                      u281 217E  
                                    u370 17A2                                      u610 1514  
                                    u347 11D8                                      u371 179E  
                                    u611 1510                                      u700 143E  
                                    u380 17C4                                      u620 1522  
                                    u197 1A46                                      u701 143A  
                                    u381 17C0                                      u621 151E  
                                    u710 1478                                      u390 17D2  
                                    u630 1536                                      u711 1474  
                                    u367 1232                                      u391 17CE  
                                    u631 1532                                      u800 1B40  
                                    u720 14FE                                      u640 15AE  
                                    u801 1B3C                                      u721 14FA  
                                    u641 15AA                                      u810 1B6C  
                                    u650 15C2                                      u811 1B68  
                                    u651 15BE                                      u820 1BB2  
                                    u660 15DE                                      u900 2368  
                                    u821 1BAE                                      u661 15DA  
                                    u901 2364                                      u750 22F8  
                                    u670 163E                                      u910 2382  
                                    u751 22F4                                      u671 163A  
                                    u911 237E                                      u680 13E8  
                                    u760 2314                                      u920 239C  
                                    u681 13E4                                      u761 2310  
                                    u921 2398                                      u770 1AE2  
                                    u690 142C                                      u771 1ADE  
                                    u691 1428                                      _UIE 000F69  
                                    u780 1AFA                                      u781 1AF6  
                                    u790 1B16                                      u791 1B12  
                                    u880 2546                                      u881 2542  
                                    u890 2558                                      u891 2554  
                                    _UIR 000F68                               _USBSuspend 255C  
                   USBStdSetCfgHandler@i 0050                                      prod 000FF3  
                                    wreg 000FE8                           _USBDeviceTasks 0BF4  
                    ?_USBCheckHIDRequest 003A                           _USBDeviceState 0034  
                  ??_USBCtrlTrfRxService 003A                 USBEnableEndpoint@options 0044  
                                   l2001 1AEA                                     l2011 1B2A  
                                   l2003 1AFA                                     l2021 1B6C  
                                   l2013 1B2E                                     l2005 1B02  
                                   l2031 1BB4                                     l2023 1B78  
                                   l2015 1B40                                     l2007 1B06  
                                   l2025 1B88                                     l2017 1B4C  
                                   l2009 1B16                                     l1321 2064  
                                   l1401 10C4                                     l3001 22AC  
                                   l2027 1B94                                     l2019 1B5C  
                                   l1331 258A                                     l1403 10CC  
                                   l1411 10E0                                     l3011 22E0  
                                   l3003 22B4                                     l3021 1F88  
                                   l3013 1F00                                     l1325 20A4  
                                   l1333 259A                                     l1405 10D4  
                                   l3005 22B8                                     l3101 13A2  
                                   l3023 1F9E                                     l1511 19CA  
                                   l1335 259E                                     l1431 23C0  
                                   l1407 10D8                                     l3007 22C0  
                                   l3103 13A4                                     l3111 24EC  
                                   l3025 1FA4                                     l3017 1F0C  
                                   l1521 19FE                                     l1513 19DA  
                                   l1505 19AC                                     l1337 25A6  
                                   l1433 23C6                                     l1441 23DC  
                                   l1601 21A2                                     l3009 22C4  
                                   l3105 13A8                                     l3041 12A6  
                                   l2161 2546                                     l3121 2516  
                                   l3113 24F0                                     l3201 0C2C  
                                   l3027 1FA8                                     l3019 1F76  
                                   l1531 1A52                                     l1523 1A0E  
                                   l1515 19E2                                     l1507 19B0  
                                   l1339 25AA                                     l1435 23CC  
                                   l1371 1028                                     l1363 0FFA  
                                   l1355 0FCC                                     l1603 21AE  
                                   l3107 13B8                                     l3043 12AA  
                                   l3035 127C                                     l2163 2548  
                                   l2171 2382                                     l3131 2562  
                                   l3123 2524                                     l3115 250C  
                                   l3211 0C58                                     l3203 0C30  
                                   l1541 1A9A                                     l1533 1A56  
                                   l1525 1A16                                     l1517 19F2  
                                   l1509 19C6                                     l1437 23D2  
                                   l1429 23BC                                     l1373 1030  
                                   l1701 183E                                     l1293 245E  
                                   l3141 1DAA                                     l3109 13BC  
                                   l3061 12E6                                     l3053 12B6  
                                   l3045 12AE                                     l3037 127E  
                                   l2165 2558                                     l2157 252A  
                                   l2173 239C                                     l3133 2566  
                                   l3125 255C                                     l3117 250E  
                                   l3301 0E42                                     l3221 0C80  
                                   l3205 0C40                                     l3213 0C5E  
                                   l3311 1E80                                     l3303 1E48  
                                   l1543 1A9E                                     l1535 1A5A  
                                   l1519 19F6                                     l1551 1BCA  
                                   l1391 10A0                                     l1375 1038  
                                   l1367 1010                                     l1383 104C  
                                   l1359 0FE6                                     l1711 1892  
                                   l3151 1E1E                                     l3143 1DC6  
                                   l3071 12F4                                     l3063 12E8  
                                   l3055 12CE                                     l3047 12B2  
                                   l3039 128A                                     l2159 2536  
                                   l2175 23A8                                     l2167 235A  
                                   l3135 256A                                     l3127 255E  
                                   l3119 2514                                     l3231 0CB8  
                                   l3223 0C8E                                     l3215 0C6C  
                                   l3207 0C4E                                     l3161 1656  
                                   l3313 1E96                                     l1545 1AA2  
                                   l1529 1A28                                     l1537 1A5C  
                                   l1561 1C10                                     l1553 1BDE  
                                   l1393 10A8                                     l1377 1040  
                                   l1369 1020                                     l1385 107E  
                                   l1705 1846                                     l1297 0FCA  
                                   l3153 1E26                                     l3145 1DCE  
                                   l3137 1D90                                     l3081 1322  
                                   l3073 12FC                                     l3065 12EA  
                                   l3057 12D0                                     l2177 23B4  
                                   l2169 2368                                     l3129 2560  
                                   l3241 0CE8                                     l3225 0CA2  
                                   l3233 0CBA                                     l3217 0C7A  
                                   l3209 0C56                                     l3171 16A8  
                                   l3163 1672                                     l3315 1EDE  
                                   l1539 1A70                                     l1547 1AA4  
                                   l1571 1C58                                     l1563 1C20  
                                   l1555 1BE2                                     l1395 10B0  
                                   l1651 115C                                     l1643 112C  
                                   l1707 1888                                     l1811 153A  
                                   l1803 1504                                     l3147 1DD8  
                                   l3155 1E2E                                     l3139 1D94  
                                   l3091 1384                                     l3083 1352  
                                   l3075 130A                                     l3067 12EC  
                                   l3059 12E2                                     l3251 0D28  
                                   l3243 0CF6                                     l3235 0CC8  
                                   l3227 0CB0                                     l3219 0C7C  
             USBConfigureEndpoint@handle 0042                                     l3181 1700  
                                   l3173 16CC                                     l3165 168A  
                                   l3309 1E6E                                     l1581 1C98  
                                   l1573 1C64                                     l1565 1C30  
                                   l1557 1BF4                                     l1549 1BBA  
                                   l1397 10B4                                     l1389 1098  
                                   l1661 11F0                                     l1653 116C  
                                   l1645 1140                                     l1709 1890  
                                   l1821 158E                                     l1813 153E  
                                   l1805 1514                                     l3157 1E42  
                                   l3149 1DF6                                     l3093 138C  
                                   l3085 1362                                     l3069 12F0  
                                   l3261 0D5A                                     l3253 0D2A  
                                   l3245 0D12                                     l3237 0CD6  
                                   l3229 0CB4                                     l3183 173E  
                                   l3175 16D8                                     l3167 169C  
                                   l3159 1646                                     l1575 1C70  
                                   l1567 1C34                                     l1559 1C04  
                                   l1399 10BC                                     l1663 1200  
                                   l1655 1188                                     l1647 1148  
                                   l1591 215A                                     l1583 2110  
                                   l1831 15CE                                     l1823 15AE  
                                   l1807 1522                                     l1815 1546  
                                   l3095 1390                                     l3087 1372  
                                   l3271 0D98                                     l3263 0D5E  
                                   l3255 0D3A                                     l3247 0D14  
                                   l3239 0CDA                                     l3351 24B2  
                                   l3185 1778                                     l3177 16E4  
                                   l1577 1C74                                     l1569 1C44  
                                   l1665 121C                                     l1657 11B6  
                                   l1649 1150                                     l1673 1248  
                                   l1681 1782                                     l1593 216A  
                                   l1585 2118                                     l1841 160E  
                                   l1833 15DE                                     l1825 15C2  
                                   l1817 156A                                     l1809 1536  
                                   l3097 139A                                     l3089 1374  
                                   l3281 0DCE                                     l3273 0DA8  
                                   l3265 0D6C                                     l3249 0D18  
                                   l3257 0D3E                                     l3361 24E0  
                                   l3353 24B6                                     l3179 16F0  
                                   l1579 1C84                                     l2731 2014  
                                   l2723 1FB4                                     l1659 11E8  
                                   l1691 17C4                                     l2811 1CAC  
                                   l1595 2182                                     l1587 212A  
                                   l1843 161A                                     l1827 15C6  
                                   l1835 15E6                                     l1819 1576  
                                   l3099 139E                                     l3291 0DFE  
                                   l3283 0DD2                                     l3275 0DBC  
                                   l3267 0D7A                                     l3259 0D4C  
                                   l3355 24BA                                     l1861 13F4  
                                   l1853 13C2                                     l2733 2030  
                                   l2725 1FBC                                     l2741 2470  
                                   l2901 0AD0                                     l1693 17D2  
                                   l1685 1792                                     l2821 1CEA  
                                   l2813 1CE4                                     l1597 218A  
                                   l1589 214E                                     l1845 1626  
                                   l1837 15EA                                     l1829 15CA  
                                   l3293 0E0C                                     l3285 0DDC  
                                   l3269 0D94                                     l3197 0BF4  
                                   l3189 0BF4                                     l3349 24AC  
                                   l1871 142C                                     l1863 13FC  
                                   l1855 13D2                                     l2735 2048  
                                   l2727 1FFA                                     l2743 247A  
                                   l2751 25C8                                     l2911 0B2A  
                                   l2903 0AE6                                     l1695 17F4  
                                   l1687 17A2                                     l2831 1D3A  
                                   l2823 1D0A                                     l2815 1CE6  
                                   l1599 218E                                     l1847 162A  
                                   l1839 15FA                                     l3295 0E1C  
                                   l3287 0DDE                                     l3199 0C04  
                                   l1881 1494                                     l1873 143E  
                                   l1865 1414                                     l1857 13E8  
                                   l2737 2052                                     l2729 2004  
                                   l2745 2488                                     l2753 25D0  
                                   l3641 2248                                     l2921 0B98  
                                   l2913 0B34                                     l2905 0AF2  
                                   l1697 1812                                     l1689 17B0  
                                   l2761 0E80                                     l2841 1D66  
                                   l2833 1D42                                     l2825 1D0C  
                                   l2809 1CAA                                     l3633 194C  
                                   l1849 162E                                     l3297 0E24  
                                   l3289 0DEC                                     l3651 1F20  
                                   l1883 14A0                                     l1875 1462  
                                   l1867 1418                                     l1859 13EC  
                                   l2747 2492                                     l2739 2462  
                                   l3643 1060                                     l2923 0BA4  
                                   l2915 0B42                                     l2907 0AFE  
                                   l2851 08CE                                     l3635 185C  
                                   l1699 1828                                     l2771 0F28  
                                   l2755 0E56                                     l2843 1D6E  
                                   l2835 1D4A                                     l2827 1D1C  
                                   l2931 1898                                     l3299 0E40  
                                   l1893 14EE                                     l1877 1478  
                                   l1885 14B0                                     l1869 141A  
                                   l1981 22F8                                     l2749 249E  
                                   l3645 10F4                                     l2917 0B68  
                                   l2925 0BC4                                     l2909 0B1E  
                                   l2861 0912                                     l2853 08D0  
                                   l3637 125C                                     l2781 0FAE  
                                   l2773 0F54                                     l2765 0EB6  
                                   l2845 1D8A                                     l2837 1D52  
                                   l2829 1D38                                     l2941 18CE  
                                   l1895 14FE                                     l1887 14D4  
                                   l1879 1484                                     l1991 2354  
                                   l1983 2300                                     l3647 23F0  
                                   l3639 2202                                     l2791 21CA  
                                   l2927 0BD0                                     l2919 0B82  
                                   l2871 097C                                     l2863 0926  
                                   l2855 08E2                                     l2847 08A8  
                                   l2783 0FB4                                     l2767 0F0E  
                                   l2759 0E74                                     l2839 1D56  
                                   l2951 18EA                                     l2943 18D6  
                                   l2935 18B6                                     l1993 1AB6  
                                   l1889 14E0                                     l1985 2314  
                                   l3649 20B8                                     l2793 21D4  
                                   l2929 0BE6                                     l2881 09EC  
                                   l2873 0998                                     l2865 093C  
                                   l2857 08EA                                     l2849 08BA  
                                   l2785 0FB8                                     l2777 0F6E  
                                   l2961 1904                                     l2953 18F2  
                                   l2945 18D8                                     l2937 18BE  
                                   l1995 1AC6                                     l1987 2338  
                                   l1979 22E6                                     l2795 21DC  
                                   l2787 21BC                                     l2891 0A56  
                                   l2883 09F6                                     l2875 09B6  
                                   l2867 094E                                     l2859 08FE  
                                   l2779 0FA2                                     l2963 1918  
                                   l2947 18DC                                     l2939 18C6  
                                   l1997 1AD0                                     l1989 2344  
                                   l2789 21C0                                     l2893 0A6C  
                                   l2885 0A04                                     l2877 09CE  
                                   l2869 095E                                     l2949 18E2  
                                   l2981 2434                                     l1999 1AE2  
                                   l2799 21E4                                     l2895 0A7A  
                                   l2887 0A26                                     l2879 09DC  
                                   l2967 1938                                     l2991 227C  
                                   l2983 2440                                     l2975 2410  
                                   l2897 0A94                                     l2889 0A44  
                                   l2993 2286                                     l2977 2424  
                                   l2985 2444                                     l2899 0AC6  
                                   l2995 2292                                     l2987 2258  
                                   l2979 2430                                     l2997 229C  
                                   l2989 2270                                     l2999 22A8  
                                   u2000 0DCE                                     u2001 0DCA  
                                   u2010 0DEC                                     u2011 0DE8  
                                   u2020 0E1C                                     u2021 0E18  
                                   u2030 0E52                                     u2031 0E4E  
                                   u2040 1E58                                     u1400 2488  
                                   u2041 1E54                                     u1401 2484  
                                   u2050 1E6A                                     u1410 0E70  
                                   u2051 1E66                                     u1411 0E6C  
                                   u2060 1E80                                     u1500 08E2  
                                   u1420 0EB2                                     u2140 24CA  
                                   u2061 1E7C                                     u1501 08DE  
                                   u1421 0EAE                                     u2141 24C6  
                                   u2070 1E96                                     u1510 08FE  
                                   u1430 0F24                                     u2150 24DC  
                                   u2071 1E92                                     u1511 08FA  
                                   u1431 0F20                                     u2151 24D8  
                                   u1600 0A6C                                     u1520 0912  
                                   u1440 0F6A                                     u1601 0A68  
                                   u1521 090E                                     u1441 0F66  
                                   u1610 0A7A                                     u1530 0926  
                                   u1450 0FCA                                     u1611 0A76  
                                   u1531 0922                                     u1451 0FC6  
                                   u1380 2014                                     u1620 0AE6  
                                   u1540 093C                                     u1460 1D1C  
                                   u1700 130A                                     u1381 2010  
                                   u1621 0AE2                                     u1541 0938  
                                   u1461 1D18                                     u1701 1306  
                                   u1390 2470                                     u1630 0B42  
                                   u1550 094E                                     u1470 1D66  
                                   u1710 1384                                     u1391 246C  
                                   u1631 0B3E                                     u1551 094A  
                                   u1471 1D62                                     u1711 1380  
                                   u1640 0B58                                     u1560 095E  
                                   u1480 08BA                                     u1720 2524  
                                   u1800 0C2C                                     u1641 0B54  
                                   u1561 095A                                     u1481 08B6  
                                   u1721 2520                                     u1801 0C28  
                                   u1650 0B68                                     u1570 09DC  
                                   u1490 08CE                                     u1730 1DAA  
                                   u1810 0C40                                     u1651 0B64  
                                   u1571 09D8                                     u1491 08CA  
                                   u1731 1DA6                                     u1811 0C3C  
                                   u1580 0A04                                     u1660 18B0  
                                   u1740 1DF6                                     u1900 0CE8  
                                   u1820 0C4E                                     u1581 0A00  
                                   u1661 18AC                                     u1741 1DF2  
                                   u1901 0CE4                                     u1821 0C4A  
                                   u1590 0A56                                     u1670 245E  
                                   u1750 1E42                                     u1910 0CF6  
                                   u1830 0C6C                                     u1591 0A52  
                                   u1671 245A                                     u1751 1E3E  
                                   u1911 0CF2                                     u1831 0C68  
                                   u1680 1F98                                     u1760 1656  
                                   u1920 0D28                                     u1840 0C7A  
                                   u1681 1F94                                     u1761 1652  
                                   u1921 0D24                                     u1841 0C76  
                                   u1770 169C                                     u1690 12E0  
                                   u1930 0D3A                                     u1850 0C8E  
                                   u1771 1698                                     u1691 12DC  
                                   u1931 0D36                                     u1851 0C8A  
                                   u1780 1700                                     u1940 0D4C  
                                   u1860 0CA2                                     u1781 16FC  
                                   u1941 0D48                                     u1861 0C9E  
                                   u1950 0D5A                                     u1870 0CB0  
                                   u1790 0C04                                     u1951 0D56  
                                   u1871 0CAC                                     u1791 0C00  
                                   u1960 0D6C                                     u1880 0CC8  
                                   u1961 0D68                                     u1881 0CC4  
                                   u1970 0D7A                                     u1890 0CD6  
                                   u1971 0D76                                     u1891 0CD2  
                                   u1980 0DA8                                     u1981 0DA4  
                                   u1990 0DBC                                     u1991 0DB8  
                  ??_USBCtrlTrfTxService 003A                                     _UCFG 000F6F  
                                   _UEP0 000F70                                     _UEP1 000F71  
                                   _UEIE 000F6B                                     _UEIR 000F6A  
                                   _UCON 000F6D   USBStdFeatureReqHandler@current_ep_data 0054  
                                   _pDst 0021                                     _main 24AC  
                                   fsr1h 000FE2                                     fsr2h 000FDA  
                                   indf1 000FE7                                     indf2 000FDF  
                                   fsr1l 000FE1                                     fsr2l 000FD9  
                                   btemp 005B                                     prodh 000FF4  
                                   prodl 000FF3                                     start 000E  
        __end_of_APP_DeviceJoystickTasks 1EFE                     ??_USBCheckHIDRequest 003A  
             __end_of_USBCheckStdRequest 19AC                   ??_USBCtrlTrfOutHandler 003C  
                           ___param_bank 000000                ??_USBStdFeatureReqHandler 0050  
               ??_USBStdGetStatusHandler 003A                           ?_USBDeviceInit 003A  
                                  ?_main 003A                   __end_of_USBDeviceTasks 0E56  
              ?_USBCtrlEPServiceComplete 003A                                    i2l588 25DE  
                                  _UADDR 000F6E                                    _USTAT 000F6C  
        __end_of_USBCtrlEPAllowDataStage 21BC                                    _sd000 08A2  
                                  _sd001 0831                                    _sd002 0809  
         ?_USBIncrement1msInternalTimers 003A                                    tablat 000FF5  
                                  plusw2 000FDB                                    ttemp5 005C  
                                  ttemp6 005F                                    ttemp7 0063  
                                  status 000FD8                                    wtemp8 005C  
                        __initialization 25AE                             __end_of_main 24EC  
                           _ADC_Readbits 1EFE                                   ??_main 005B  
                          __activetblptr 000002                          ?_USBDeviceTasks 003A  
                            ?_USBSuspend 003A                                   _ADCON0 000FC2  
                                 _ADCON2 000FC0                                   _ADRESH 000FC4  
                                 _ADRESL 000FC3                   SYSTEM_Initialize@state 003F  
                           ??_ADC_Enable 003A                        _shortPacketStatus 0033  
                        USBDeviceTasks@i 005A              USBStdFeatureReqHandler@pUEP 0052  
               USBTransferOnePacket@data 003B               USBCtrlTrfInHandler@lastDTS 003B  
                        ??_USBDeviceInit 0046                        _USBEnableEndpoint 2460  
                                 _memcpy 2410                                   _memset 0E56  
                                 clear_0 25B4                                   isa$std 000001  
                     ?_USBEnableEndpoint 0044                       __end_of_ADC_Enable 2110  
                           __mediumconst 0000                                   tblptrh 000FF7  
                                 tblptrl 000FF6                                   tblptru 000FF8  
                    ??_USBEnableEndpoint 0045                              _CtrlTrfData 000428  
                   _controlTransferState 0032                        _SYSTEM_Initialize 23BA  
                             __accesstop 0060                  __end_of__initialization 25BA  
                     ?_SYSTEM_Initialize 003A                            ___rparam_used 000001  
                         __pcstackCOMRAM 003A                __end_of_USBEnableEndpoint 24AC  
                          __end_of_sd000 08A6                            __end_of_sd001 0855  
                          __end_of_sd002 0831                      ??_SYSTEM_Initialize 003D  
                        _active_protocol 0035              __end_of_USBCtrlTrfInHandler 1BBA  
               ??_USBCtrlTrfSetupHandler 0059                  _USBTicksSinceSuspendEnd 0027  
              __end_of_SYSTEM_Initialize 2410                   _USBStdGetStatusHandler 1782  
                            _pBDTEntryIn 0013         __end_of_USBCtrlEPServiceComplete 1644  
                   USBCtrlTrfRxService@i 003A                                  ?_memcpy 003A  
                                ?_memset 003A                               _device_dsc 0890  
                       _USBCtrlEPService 1D90                               _ep_data_in 001F  
            __end_of_USBCtrlTrfRxService 1504                       _USBCheckStdRequest 1898  
                      _configDescriptor1 0855                       ADC_Readbits@result 003E  
            __end_of_USBCtrlTrfTxService 1AB6                      _USBStdSetCfgHandler 1CAA  
                    ?_USBCheckStdRequest 003A                                  _UIEbits 000F69  
                                _UIRbits 000F68                                  __Hparam 0000  
        ??_USBIncrement1msInternalTimers 003A                     ?_USBStdSetCfgHandler 003A  
                                __Lparam 0000                        __end_of_hid_rpt01 0890  
      ADC_SetConfiguration@configuration 003A                     ??_USBCheckStdRequest 0057  
                       ??_USBDeviceTasks 005A                        ??_USBStallHandler 003A  
                           __psmallconst 0800                                  __pcinit 25AE  
              __end_of_configDescriptor1 0877                                  __ramtop 0800  
                                __ptext0 24AC                                  __ptext1 0BF4  
                                __ptext2 24EC                                  __ptext3 255C  
                                __ptext4 235A                                  __ptext5 252A  
                                __ptext6 127C                                  __ptext7 1D90  
                                __ptext8 2410                                  __ptext9 2258  
                                _inPipes 0009              _USBDeferOUTDataStagePackets 0028  
                           ??_USBSuspend 0050                  _APP_DeviceJoystickTasks 1E48  
                     __end_of_USB_CD_Ptr 0809                           __pintcode_body 25DC  
                   end_of_initialization 25BA                       __end_of_USB_SD_Ptr 0807  
                                memcpy@d 0040                                  memcpy@n 003E  
                                memcpy@s 0042                      _pBDTEntryEP0OutNext 0023  
                                memset@c 003C                                  memset@k 0042  
                                memset@n 003E                                  memset@s 0044  
                          __Lmediumconst 0000                                  int_func 25DC  
                        _USB1msTickCount 000F                 ?_USBStdFeatureReqHandler 003A  
                  ??_USBStdSetCfgHandler 0050                       __end_of_USBSuspend 2588  
                _USBCtrlEPAllowDataStage 2110                                  postdec2 000FDD  
                                postinc0 000FEE                                  postinc2 000FDE  
               _USBCtrlEPServiceComplete 1504               _USBStatusStageEnabledFlag1 002B  
             _USBStatusStageEnabledFlag2 002A                       USBEnableEndpoint@p 0045  
                              _PORTBbits 000F81                                _TRISAbits 000F92  
                              _TRISBbits 000F93                                _TRISEbits 000F96  
                         _joystick_input 000500                       _BothEP0OutUOWNsSet 002E  
              USBConfigureEndpoint@EPNum 0041               ?_USBCtrlEPAllowStatusStage 003A  
    USER_USB_CALLBACK_EVENT_HANDLER@size 004C                                _USTATcopy 0037  
           __end_of_USBTransferOnePacket 1782                   _USBCtrlTrfSetupHandler 2258  
                  __end_of_USBDeviceInit 13C2    __end_of_USBIncrement1msInternalTimers 255C  
          _USBIncrement1msInternalTimers 252A                ??_APP_DeviceJoystickTasks 0045  
                         __end_of_memcpy 2460                           __end_of_memset 0FCC  
                      _USBBusIsSuspended 0030                      start_initialization 25AE  
                ?_USBStdGetStatusHandler 003A            USBCtrlTrfRxService@byteToRead 003B  
           __end_of_USBConfigureEndpoint 2062          __end_of_USBStdFeatureReqHandler 0BF4  
      __end_of_USBCtrlEPAllowStatusStage 1CAA                 __end_of_USBCtrlEPService 1E48  
              ??_USBCtrlEPAllowDataStage 003B                           USBDeviceInit@i 0046  
                 _pBDTEntryEP0OutCurrent 0025                  USBTransferOnePacket@dir 003A  
                USBTransferOnePacket@len 003D             __end_of_ADC_SetConfiguration 25AE  
   __end_of_APP_DeviceJoystickInitialize 25DC             _APP_DeviceJoystickInitialize 25C8  
                    _USBStdGetDscHandler 112C                                 ??_memcpy 0040  
                               ??_memset 0040                               memset@dest 003A  
                 _USBActiveConfiguration 0039           __end_of_USBStdGetStatusHandler 1898  
                            __pbssCOMRAM 0001                     ?_USBStdGetDscHandler 003A  
             __end_of_USBWakeFromSuspend 252A                          _USBStallHandler 235A  
                       _lastTransmission 001B                             _pBDTEntryOut 0017  
                              __pintcode 0008                            ?_ADC_Readbits 003A  
                              _hid_rpt01 0877            ?_APP_DeviceJoystickInitialize 003A  
                              _idle_rate 0036                     _USBTransferOnePacket 1644  
                            __smallconst 0800             __end_of_USBCtrlTrfOutHandler 235A  
                  ??_USBStdGetDscHandler 003A                              _ep_data_out 001D  
                    ADC_Readbits@channel 0040            USBConfigureEndpoint@direction 003A  
             __end_of_USBCheckHIDRequest 112C               ??_USBCtrlEPServiceComplete 003B  
                               _PIE2bits 000FA0                                 _PIR2bits 000FA1  
                         ??_ADC_Readbits 003C                                 _UEP0bits 000F70  
             _USBDeferINDataStagePackets 0029                                 _UCONbits 000F6D  
                   _USBConfigureEndpoint 1FB2                               _ADCON0bits 000FC2  
                             _ADCON1bits 000FC1                               _ADCON2bits 000FC0  
                  ?_USBTransferOnePacket 003A                        _SYS_InterruptHigh 0008  
                           _RemoteWakeup 0031                       ?_SYS_InterruptHigh 003A  
                __end_of_USBStallHandler 23BA                     _ADC_SetConfiguration 2588  
            ??_USBCtrlEPAllowStatusStage 003A              __end_of_USBStdSetCfgHandler 1D90  
                             _ADC_Enable 2062                      ??_SYS_InterruptHigh 003A  
                     __end_of_device_dsc 08A2                  ?_USBCtrlTrfSetupHandler 003A  
                USBStdGetStatusHandler@p 003C                                 __Hrparam 0000  
                              memcpy@tmp 0044                                 __Lrparam 0000  
                 USBTransferOnePacket@ep 0042                                 _SetupPkt 000420  
                  ?_USBConfigureEndpoint 003A                __end_of_SYS_InterruptHigh 25E2  
         ??_APP_DeviceJoystickInitialize 0048                                 __ptext10 1504  
                               __ptext11 2110                                 __ptext20 23BA  
                               __ptext12 1898                                 __ptext21 2588  
                               __ptext13 1CAA                                 __ptext30 19AC  
                               __ptext22 2062                                 __ptext14 0E56  
                               __ptext31 1E48                                 __ptext23 25C8  
                               __ptext15 1782                                 __ptext32 1644  
                               __ptext24 2460                                 __ptext16 112C  
                               __ptext33 1EFE                                 __ptext25 1FB2  
                               __ptext17 08A8                                 __ptext26 22E6  
                               __ptext18 21BC                                 __ptext27 13C2  
                               __ptext19 0FCC                                 __ptext28 1BBA  
                               __ptext29 1AB6                    ?_ADC_SetConfiguration 003A  
         __end_of_USBCtrlTrfSetupHandler 22E6                        ?_USBCtrlEPService 003A  
                     ??_USBCtrlEPService 0059                      _USBCtrlTrfInHandler 1AB6  
                               isa$xinst 000000                                 _outPipes 0001  
                   _USBCtrlTrfOutHandler 22E6                                 int$flags 005B  
              _USBCtrlEPAllowStatusStage 1BBA                   ??_USBTransferOnePacket 003E  
              _USBDeferStatusStagePacket 002C                     ?_USBCtrlTrfInHandler 003A  
                               memcpy@d1 003A                                 memcpy@s1 003C  
          USBCtrlTrfTxService@byteToSend 003A                     __end_of_ADC_Readbits 1FB2  
                       ?_USBStallHandler 003A                 USBStdFeatureReqHandler@p 0055  
                               intlevel2 0000                              ?_ADC_Enable 003A  
__end_of_USER_USB_CALLBACK_EVENT_HANDLER 2258        ??_USER_USB_CALLBACK_EVENT_HANDLER 004E  
       ?_USER_USB_CALLBACK_EVENT_HANDLER 0048          _USER_USB_CALLBACK_EVENT_HANDLER 21BC  
                 ??_USBConfigureEndpoint 003B                    ?_USBCtrlTrfOutHandler 003A  
               ?_APP_DeviceJoystickTasks 003A                      _USBCtrlTrfRxService 13C2  
                     _USBWakeFromSuspend 24EC                  _USBStdFeatureReqHandler 08A8  
                    _USBCtrlTrfTxService 19AC                        ADC_Enable@channel 003C  
                    ?_USBWakeFromSuspend 003A                    ??_USBCtrlTrfInHandler 003B  
                  _USBAlternateInterface 0038                   ??_ADC_SetConfiguration 003A  
                    USBEnableEndpoint@ep 0047                          _endpoint_number 002F  
                   ?_USBCtrlTrfRxService 003A                 ?_USBCtrlEPAllowDataStage 003A  
                   ?_USBCtrlTrfTxService 003A             _USBStatusStageTimeoutCounter 002D  
                   ??_USBWakeFromSuspend 0050               USBTransferOnePacket@handle 0043  
                             _USB_CD_Ptr 0807  
