

Microchip MPLAB XC8 Assembler V2.40 build 20220703182018 
                                                                                               Sun Apr 02 23:23:19 2023

Microchip MPLAB XC8 C Compiler v2.40 (Free license) build 20220703182018 Og1 
     1                           	processor	18F4550
     2                           	fnconf	rparam,??,?,0
     3                           	pagewidth 120
     4                           	opt	flic
     5                           	psect	smallconst,global,reloc=2,class=SMALLCONST,delta=1,noexec
     6                           	psect	cinit,global,reloc=2,class=CODE,delta=1
     7                           	psect	bssCOMRAM,global,class=COMRAM,space=1,delta=1,lowdata,noexec
     8                           	psect	bssBANK0,global,class=BANK0,space=1,delta=1,lowdata,noexec
     9                           	psect	cstackCOMRAM,global,class=COMRAM,space=1,delta=1,lowdata,noexec
    10                           	psect	text0,global,reloc=2,class=CODE,delta=1
    11                           	psect	text1,global,reloc=2,class=CODE,delta=1
    12                           	psect	text2,global,reloc=2,class=CODE,delta=1
    13                           	psect	text3,global,reloc=2,class=CODE,delta=1
    14                           	psect	text4,global,reloc=2,class=CODE,delta=1
    15                           	psect	text5,global,reloc=2,class=CODE,delta=1
    16                           	psect	text6,global,reloc=2,class=CODE,delta=1
    17                           	psect	text7,global,reloc=2,class=CODE,delta=1
    18                           	psect	text8,global,reloc=2,class=CODE,delta=1,group=2
    19                           	psect	text9,global,reloc=2,class=CODE,delta=1
    20                           	psect	text10,global,reloc=2,class=CODE,delta=1
    21                           	psect	text11,global,reloc=2,class=CODE,delta=1
    22                           	psect	text12,global,reloc=2,class=CODE,delta=1
    23                           	psect	text13,global,reloc=2,class=CODE,delta=1
    24                           	psect	text14,global,reloc=2,class=CODE,delta=1,group=2
    25                           	psect	text15,global,reloc=2,class=CODE,delta=1
    26                           	psect	text16,global,reloc=2,class=CODE,delta=1
    27                           	psect	text17,global,reloc=2,class=CODE,delta=1
    28                           	psect	text18,global,reloc=2,class=CODE,delta=1
    29                           	psect	text19,global,reloc=2,class=CODE,delta=1
    30                           	psect	text20,global,reloc=2,class=CODE,delta=1
    31                           	psect	text21,global,reloc=2,class=CODE,delta=1
    32                           	psect	text22,global,reloc=2,class=CODE,delta=1
    33                           	psect	text23,global,reloc=2,class=CODE,delta=1
    34                           	psect	text24,global,reloc=2,class=CODE,delta=1
    35                           	psect	text25,global,reloc=2,class=CODE,delta=1
    36                           	psect	text26,global,reloc=2,class=CODE,delta=1
    37                           	psect	text27,global,reloc=2,class=CODE,delta=1
    38                           	psect	text28,global,reloc=2,class=CODE,delta=1
    39                           	psect	text29,global,reloc=2,class=CODE,delta=1
    40                           	psect	text30,global,reloc=2,class=CODE,delta=1
    41                           	psect	text31,global,reloc=2,class=CODE,delta=1
    42                           	psect	text32,global,reloc=2,class=CODE,delta=1,group=1
    43                           	psect	text33,global,reloc=2,class=CODE,delta=1,group=1
    44                           	psect	text34,global,reloc=2,class=CODE,delta=1,group=1
    45                           	psect	text35,global,reloc=2,class=CODE,delta=1,group=1
    46                           	psect	text36,global,reloc=2,class=CODE,delta=1,group=1
    47                           	psect	text37,global,reloc=2,class=CODE,delta=1,group=1
    48                           	psect	text38,global,reloc=2,class=CODE,delta=1
    49                           	psect	text39,global,reloc=2,class=CODE,delta=1
    50                           	psect	intcode,global,reloc=2,class=CODE,delta=1
    51                           	psect	intcode_body,global,reloc=2,class=CODE,delta=1
    52                           	psect	intsave_regs,global,class=BIGRAM,space=1,delta=1,noexec
    53                           	psect	rparam,global,class=COMRAM,space=1,delta=1,noexec
    54                           	psect	temp,global,ovrld,common,class=COMRAM,space=1,delta=1
    55                           	psect	idloc,global,abs,ovrld,class=IDLOC,space=5,delta=1,noexec
    56                           	psect	config,global,abs,ovrld,class=CONFIG,space=4,delta=1,noexec
    57                           	dabs	1,0x400,32,_BDT
    58                           	dabs	1,0x428,8,_CtrlTrfData
    59                           	dabs	1,0x420,8,_SetupPkt
    60                           	dabs	1,0x500,3,_joystick_input
    61   000000                     
    62                           ; Version 2.40
    63                           ; Generated 17/11/2021 GMT
    64                           ; 
    65                           ; Copyright © 2021, Microchip Technology Inc. and its subsidiaries ("Microchip")
    66                           ; All rights reserved.
    67                           ; 
    68                           ; This software is developed by Microchip Technology Inc. and its subsidiaries ("Microch
      +                          ip").
    69                           ; 
    70                           ; Redistribution and use in source and binary forms, with or without modification, are
    71                           ; permitted provided that the following conditions are met:
    72                           ; 
    73                           ;     1. Redistributions of source code must retain the above copyright notice, this lis
      +                          t of
    74                           ;        conditions and the following disclaimer.
    75                           ; 
    76                           ;     2. Redistributions in binary form must reproduce the above copyright notice, this 
      +                          list
    77                           ;        of conditions and the following disclaimer in the documentation and/or other
    78                           ;        materials provided with the distribution. Publication is not required when
    79                           ;        this file is used in an embedded application.
    80                           ; 
    81                           ;     3. Microchip's name may not be used to endorse or promote products derived from th
      +                          is
    82                           ;        software without specific prior written permission.
    83                           ; 
    84                           ; THIS SOFTWARE IS PROVIDED BY MICROCHIP "AS IS" AND ANY EXPRESS OR IMPLIED WARRANTIES,
    85                           ; INCLUDING, BUT NOT LIMITED TO, THE IMPLIED WARRANTIES OF MERCHANTABILITY AND FITNESS F
      +                          OR
    86                           ; PURPOSE ARE DISCLAIMED.  IN NO EVENT SHALL MICROCHIP BE LIABLE FOR ANY DIRECT, INDIREC
      +                          T,
    87                           ; INCIDENTAL, SPECIAL, EXEMPLARY, OR CONSEQUENTIAL DAMAGES (INCLUDING BUT NOT LIMITED TO
    88                           ; PROCUREMENT OF SUBSTITUTE GOODS OR SERVICES; LOSS OF USE, DATA OR PROFITS; OR BUSINESS
    89                           ; INTERRUPTION) HOWSOEVER CAUSED AND ON ANY THEORY OF LIABILITY, WHETHER IN CONTRACT, ST
      +                          RICT
    90                           ; LIABILITY, OR TORT (INCLUDING NEGLIGENCE OR OTHERWISE) ARISING IN ANY WAY OUT OF THE U
      +                          SE OF
    91                           ; THIS SOFTWARE, EVEN IF ADVISED OF THE POSSIBILITY OF SUCH DAMAGE.
    92                           ; 
    93                           ; 
    94                           ; Code-generator required, PIC18F4550 Definitions
    95                           ; 
    96                           ; SFR Addresses
    97   000000                     
    98                           	psect	smallconst
    99   000800                     __psmallconst:
   100                           	callstack 0
   101   000800  00                 	db	0
   102   000801                     _USB_SD_Ptr:
   103                           	callstack 0
   104   000801  A2                 	db	low _sd000
   105   000802  08                 	db	high _sd000
   106   000803  31                 	db	low _sd001
   107   000804  08                 	db	high _sd001
   108   000805  09                 	db	low _sd002
   109   000806  08                 	db	high _sd002
   110   000807                     __end_of_USB_SD_Ptr:
   111                           	callstack 0
   112   000807                     _USB_CD_Ptr:
   113                           	callstack 0
   114   000807  55                 	db	low _configDescriptor1
   115   000808  08                 	db	high _configDescriptor1
   116   000809                     __end_of_USB_CD_Ptr:
   117                           	callstack 0
   118   000809                     _sd002:
   119                           	callstack 0
   120   000809  28                 	db	40
   121   00080A  03                 	db	3
   122   00080B  0052               	dw	82
   123   00080D  0075               	dw	117
   124   00080F  0064               	dw	100
   125   000811  0064               	dw	100
   126   000813  0065               	dw	101
   127   000815  0072               	dw	114
   128   000817  0020               	dw	32
   129   000819  0050               	dw	80
   130   00081B  0065               	dw	101
   131   00081D  0064               	dw	100
   132   00081F  0061               	dw	97
   133   000821  006C               	dw	108
   134   000823  0020               	dw	32
   135   000825  0053               	dw	83
   136   000827  0079               	dw	121
   137   000829  0073               	dw	115
   138   00082B  0074               	dw	116
   139   00082D  0065               	dw	101
   140   00082F  006D               	dw	109
   141   000831                     __end_of_sd002:
   142                           	callstack 0
   143   000831                     _sd001:
   144                           	callstack 0
   145   000831  24                 	db	36
   146   000832  03                 	db	3
   147   000833  0052               	dw	82
   148   000835  0075               	dw	117
   149   000837  0062               	dw	98
   150   000839  0062               	dw	98
   151   00083B  0065               	dw	101
   152   00083D  0072               	dw	114
   153   00083F  0020               	dw	32
   154   000841  0048               	dw	72
   155   000843  0065               	dw	101
   156   000845  006C               	dw	108
   157   000847  0069               	dw	105
   158   000849  0078               	dw	120
   159   00084B  0020               	dw	32
   160   00084D  004C               	dw	76
   161   00084F  0061               	dw	97
   162   000851  0062               	dw	98
   163   000853  0073               	dw	115
   164   000855                     __end_of_sd001:
   165                           	callstack 0
   166   000855                     _configDescriptor1:
   167                           	callstack 0
   168   000855  09                 	db	9
   169   000856  02                 	db	2
   170   000857  22                 	db	34
   171   000858  00                 	db	0
   172   000859  01                 	db	1
   173   00085A  01                 	db	1
   174   00085B  00                 	db	0
   175   00085C  C0                 	db	192
   176   00085D  32                 	db	50
   177   00085E  09                 	db	9
   178   00085F  04                 	db	4
   179   000860  00                 	db	0
   180   000861  00                 	db	0
   181   000862  01                 	db	1
   182   000863  03                 	db	3
   183   000864  00                 	db	0
   184   000865  00                 	db	0
   185   000866  00                 	db	0
   186   000867  09                 	db	9
   187   000868  21                 	db	33
   188   000869  11                 	db	17
   189   00086A  01                 	db	1
   190   00086B  00                 	db	0
   191   00086C  01                 	db	1
   192   00086D  22                 	db	34
   193   00086E  19                 	db	25
   194   00086F  00                 	db	0
   195   000870  07                 	db	7
   196   000871  05                 	db	5
   197   000872  81                 	db	129
   198   000873  03                 	db	3
   199   000874  40                 	db	64
   200   000875  00                 	db	0
   201   000876  01                 	db	1
   202   000877                     __end_of_configDescriptor1:
   203                           	callstack 0
   204   000877                     _hid_rpt01:
   205                           	callstack 0
   206   000877  05                 	db	5
   207   000878  01                 	db	1
   208   000879  09                 	db	9
   209   00087A  05                 	db	5
   210   00087B  A1                 	db	161
   211   00087C  01                 	db	1
   212   00087D  26                 	db	38
   213   00087E  FF                 	db	255
   214   00087F  00                 	db	0
   215   000880  46                 	db	70
   216   000881  FF                 	db	255
   217   000882  00                 	db	0
   218   000883  09                 	db	9
   219   000884  33                 	db	51
   220   000885  09                 	db	9
   221   000886  34                 	db	52
   222   000887  09                 	db	9
   223   000888  35                 	db	53
   224   000889  75                 	db	117
   225   00088A  08                 	db	8
   226   00088B  95                 	db	149
   227   00088C  03                 	db	3
   228   00088D  81                 	db	129
   229   00088E  02                 	db	2
   230   00088F  C0                 	db	192
   231   000890                     __end_of_hid_rpt01:
   232                           	callstack 0
   233   000890                     _device_dsc:
   234                           	callstack 0
   235   000890  12                 	db	18
   236   000891  01                 	db	1
   237   000892  0200               	dw	512
   238   000894  00                 	db	0
   239   000895  00                 	db	0
   240   000896  00                 	db	0
   241   000897  08                 	db	8
   242   000898  04D8               	dw	1240
   243   00089A  0168               	dw	360
   244   00089C  0001               	dw	1
   245   00089E  01                 	db	1
   246   00089F  02                 	db	2
   247   0008A0  00                 	db	0
   248   0008A1  01                 	db	1
   249   0008A2                     __end_of_device_dsc:
   250                           	callstack 0
   251   0008A2                     _sd000:
   252                           	callstack 0
   253   0008A2  04                 	db	4
   254   0008A3  03                 	db	3
   255   0008A4  0409               	dw	1033
   256   0008A6                     __end_of_sd000:
   257                           	callstack 0
   258   000000                     _ADRESL	set	4035
   259   000000                     _ADRESH	set	4036
   260   000000                     _USTAT	set	3948
   261   000000                     _UADDR	set	3950
   262   000000                     _UCONbits	set	3949
   263   000000                     _UIE	set	3945
   264   000000                     _UEIE	set	3947
   265   000000                     _UCFG	set	3951
   266   000000                     _UEP0	set	3952
   267   000000                     _ADCON2bits	set	4032
   268   000000                     _ADCON0	set	4034
   269   000000                     _UEP0bits	set	3952
   270   000000                     _UIEbits	set	3945
   271   000000                     _UCON	set	3949
   272   000000                     _UIRbits	set	3944
   273   000000                     _UIR	set	3944
   274   000000                     _UEIR	set	3946
   275   000000                     _PIE2bits	set	4000
   276   000000                     _ADCON2	set	4032
   277   000000                     _ADCON1bits	set	4033
   278   000000                     _ADCON0bits	set	4034
   279   000000                     _PIR2bits	set	4001
   280   000000                     _TRISAbits	set	3986
   281   000000                     _UEP1	set	3953
   282   0008A6  00                 	db	0	; dummy byte at the end
   283   000000                     
   284                           ; #config settings
   285                           
   286                           	psect	cinit
   287   00366A                     __pcinit:
   288                           	callstack 0
   289   00366A                     start_initialization:
   290                           	callstack 0
   291   00366A                     __initialization:
   292                           	callstack 0
   293                           
   294                           ; Clear objects allocated to BANK0 (49 bytes)
   295   00366A  EE00  F060         	lfsr	0,__pbssBANK0
   296   00366E  0E31               	movlw	49
   297   003670                     clear_0:
   298   003670  6AEE               	clrf	postinc0,c
   299   003672  06E8               	decf	wreg,f,c
   300   003674  E1FD               	bnz	clear_0
   301                           
   302                           ; Clear objects allocated to COMRAM (8 bytes)
   303   003676  EE00  F057         	lfsr	0,__pbssCOMRAM
   304   00367A  0E08               	movlw	8
   305   00367C                     clear_1:
   306   00367C  6AEE               	clrf	postinc0,c
   307   00367E  06E8               	decf	wreg,f,c
   308   003680  E1FD               	bnz	clear_1
   309   003682                     end_of_initialization:
   310                           	callstack 0
   311   003682                     __end_of__initialization:
   312                           	callstack 0
   313   003682  905F               	bcf	int$flags,0,c	;clear compiler interrupt flag (level 1)
   314   003684  925F               	bcf	int$flags,1,c	;clear compiler interrupt flag (level 2)
   315   003686  0E00               	movlw	low (__Lmediumconst shr (0+16))
   316   003688  6EF8               	movwf	tblptru,c
   317   00368A  0100               	movlb	0
   318   00368C  EFC2  F01A         	goto	_main	;jump to C main() function
   319                           
   320                           	psect	bssCOMRAM
   321   000057                     __pbssCOMRAM:
   322                           	callstack 0
   323   000057                     _pBDTEntryIn:
   324                           	callstack 0
   325   000057                     	ds	4
   326   00005B                     _pBDTEntryEP0OutNext:
   327                           	callstack 0
   328   00005B                     	ds	2
   329   00005D                     _pBDTEntryEP0OutCurrent:
   330                           	callstack 0
   331   00005D                     	ds	2
   332                           
   333                           	psect	bssBANK0
   334   000060                     __pbssBANK0:
   335                           	callstack 0
   336   000060                     _outPipes:
   337                           	callstack 0
   338   000060                     	ds	8
   339   000068                     _inPipes:
   340                           	callstack 0
   341   000068                     	ds	6
   342   00006E                     _USB1msTickCount:
   343                           	callstack 0
   344   00006E                     	ds	4
   345   000072                     _pBDTEntryOut:
   346                           	callstack 0
   347   000072                     	ds	4
   348   000076                     _lastTransmission:
   349                           	callstack 0
   350   000076                     	ds	2
   351   000078                     _ep_data_out:
   352                           	callstack 0
   353   000078                     	ds	2
   354   00007A                     _ep_data_in:
   355                           	callstack 0
   356   00007A                     	ds	2
   357   00007C                     _pDst:
   358                           	callstack 0
   359   00007C                     	ds	2
   360   00007E                     _USBTicksSinceSuspendEnd:
   361                           	callstack 0
   362   00007E                     	ds	1
   363   00007F                     _USBDeferOUTDataStagePackets:
   364                           	callstack 0
   365   00007F                     	ds	1
   366   000080                     _USBDeferINDataStagePackets:
   367                           	callstack 0
   368   000080                     	ds	1
   369   000081                     _USBStatusStageEnabledFlag2:
   370                           	callstack 0
   371   000081                     	ds	1
   372   000082                     _USBStatusStageEnabledFlag1:
   373                           	callstack 0
   374   000082                     	ds	1
   375   000083                     _USBDeferStatusStagePacket:
   376                           	callstack 0
   377   000083                     	ds	1
   378   000084                     _USBStatusStageTimeoutCounter:
   379                           	callstack 0
   380   000084                     	ds	1
   381   000085                     _BothEP0OutUOWNsSet:
   382                           	callstack 0
   383   000085                     	ds	1
   384   000086                     _endpoint_number:
   385                           	callstack 0
   386   000086                     	ds	1
   387   000087                     _USBBusIsSuspended:
   388                           	callstack 0
   389   000087                     	ds	1
   390   000088                     _RemoteWakeup:
   391                           	callstack 0
   392   000088                     	ds	1
   393   000089                     _controlTransferState:
   394                           	callstack 0
   395   000089                     	ds	1
   396   00008A                     _shortPacketStatus:
   397                           	callstack 0
   398   00008A                     	ds	1
   399   00008B                     _USBDeviceState:
   400                           	callstack 0
   401   00008B                     	ds	1
   402   00008C                     _active_protocol:
   403                           	callstack 0
   404   00008C                     	ds	1
   405   00008D                     _idle_rate:
   406                           	callstack 0
   407   00008D                     	ds	1
   408   00008E                     _USTATcopy:
   409                           	callstack 0
   410   00008E                     	ds	1
   411   00008F                     _USBAlternateInterface:
   412                           	callstack 0
   413   00008F                     	ds	1
   414   000090                     _USBActiveConfiguration:
   415                           	callstack 0
   416   000090                     	ds	1
   417                           
   418                           	psect	cstackCOMRAM
   419   000001                     __pcstackCOMRAM:
   420                           	callstack 0
   421   000001                     ??_USBStdGetDscHandler:
   422   000001                     ??_USBStdGetStatusHandler:
   423   000001                     ??_USBCheckHIDRequest:
   424   000001                     ??_ADC_Enable:
   425   000001                     ?_USBTransferOnePacket:
   426                           	callstack 0
   427   000001                     ?_ADC_Readbits:
   428                           	callstack 0
   429   000001                     USBTransferOnePacket@dir:
   430                           	callstack 0
   431   000001                     USBConfigureEndpoint@direction:
   432                           	callstack 0
   433   000001                     USBCtrlTrfTxService@byteToSend:
   434                           	callstack 0
   435   000001                     USBCtrlTrfRxService@i:
   436                           	callstack 0
   437   000001                     ADC_SetConfiguration@configuration:
   438                           	callstack 0
   439   000001                     memcpy@d1:
   440                           	callstack 0
   441   000001                     memset@dest:
   442                           	callstack 0
   443                           
   444                           ; 2 bytes @ 0x0
   445   000001                     	ds	1
   446   000002                     ??_USBConfigureEndpoint:
   447   000002                     USBCtrlTrfRxService@byteToRead:
   448                           	callstack 0
   449   000002                     USBCtrlTrfInHandler@lastDTS:
   450                           	callstack 0
   451   000002                     USBTransferOnePacket@data:
   452                           	callstack 0
   453                           
   454                           ; 2 bytes @ 0x1
   455   000002                     	ds	1
   456   000003                     ??_ADC_Readbits:
   457   000003                     ADC_Enable@channel:
   458                           	callstack 0
   459   000003                     USBStdGetStatusHandler@p:
   460                           	callstack 0
   461   000003                     memcpy@s1:
   462                           	callstack 0
   463   000003                     memset@c:
   464                           	callstack 0
   465                           
   466                           ; 2 bytes @ 0x2
   467   000003                     	ds	1
   468   000004                     ??_SYSTEM_Initialize:
   469   000004                     USBTransferOnePacket@len:
   470                           	callstack 0
   471                           
   472                           ; 1 bytes @ 0x3
   473   000004                     	ds	1
   474   000005                     ??_USBTransferOnePacket:
   475   000005                     ADC_Readbits@result:
   476                           	callstack 0
   477   000005                     memcpy@n:
   478                           	callstack 0
   479   000005                     memset@n:
   480                           	callstack 0
   481                           
   482                           ; 2 bytes @ 0x4
   483   000005                     	ds	1
   484   000006                     SYSTEM_Initialize@state:
   485                           	callstack 0
   486                           
   487                           ; 1 bytes @ 0x5
   488   000006                     	ds	1
   489   000007                     ??_memset:
   490   000007                     ADC_Readbits@channel:
   491                           	callstack 0
   492   000007                     memcpy@d:
   493                           	callstack 0
   494                           
   495                           ; 2 bytes @ 0x6
   496   000007                     	ds	1
   497   000008                     ?___xxtofl:
   498                           	callstack 0
   499   000008                     USBConfigureEndpoint@EPNum:
   500                           	callstack 0
   501   000008                     ___xxtofl@val:
   502                           	callstack 0
   503                           
   504                           ; 4 bytes @ 0x7
   505   000008                     	ds	1
   506   000009                     USBTransferOnePacket@ep:
   507                           	callstack 0
   508   000009                     USBConfigureEndpoint@handle:
   509                           	callstack 0
   510   000009                     memcpy@s:
   511                           	callstack 0
   512   000009                     memset@k:
   513                           	callstack 0
   514                           
   515                           ; 2 bytes @ 0x8
   516   000009                     	ds	1
   517   00000A                     USBTransferOnePacket@handle:
   518                           	callstack 0
   519                           
   520                           ; 2 bytes @ 0x9
   521   00000A                     	ds	1
   522   00000B                     USBEnableEndpoint@options:
   523                           	callstack 0
   524   00000B                     memcpy@tmp:
   525                           	callstack 0
   526   00000B                     memset@s:
   527                           	callstack 0
   528                           
   529                           ; 2 bytes @ 0xA
   530   00000B                     	ds	1
   531   00000C                     ??___xxtofl:
   532   00000C                     USBEnableEndpoint@p:
   533                           	callstack 0
   534                           
   535                           ; 2 bytes @ 0xB
   536   00000C                     	ds	1
   537   00000D                     USBDeviceInit@i:
   538                           	callstack 0
   539                           
   540                           ; 1 bytes @ 0xC
   541   00000D                     	ds	1
   542   00000E                     USBEnableEndpoint@ep:
   543                           	callstack 0
   544                           
   545                           ; 1 bytes @ 0xD
   546   00000E                     	ds	1
   547   00000F                     USER_USB_CALLBACK_EVENT_HANDLER@event:
   548                           	callstack 0
   549                           
   550                           ; 2 bytes @ 0xE
   551   00000F                     	ds	1
   552   000010                     ___xxtofl@sign:
   553                           	callstack 0
   554                           
   555                           ; 1 bytes @ 0xF
   556   000010                     	ds	1
   557   000011                     ___xxtofl@exp:
   558                           	callstack 0
   559   000011                     USER_USB_CALLBACK_EVENT_HANDLER@pdata:
   560                           	callstack 0
   561                           
   562                           ; 2 bytes @ 0x10
   563   000011                     	ds	1
   564   000012                     ___xxtofl@arg:
   565                           	callstack 0
   566                           
   567                           ; 4 bytes @ 0x11
   568   000012                     	ds	1
   569   000013                     USER_USB_CALLBACK_EVENT_HANDLER@size:
   570                           	callstack 0
   571                           
   572                           ; 2 bytes @ 0x12
   573   000013                     	ds	2
   574   000015                     ??_USER_USB_CALLBACK_EVENT_HANDLER:
   575                           
   576                           ; 1 bytes @ 0x14
   577   000015                     	ds	1
   578   000016                     ?___flmul:
   579                           	callstack 0
   580   000016                     ___flmul@b:
   581                           	callstack 0
   582                           
   583                           ; 4 bytes @ 0x15
   584   000016                     	ds	1
   585   000017                     ??_USBStdFeatureReqHandler:
   586   000017                     USBStdSetCfgHandler@i:
   587                           	callstack 0
   588                           
   589                           ; 1 bytes @ 0x16
   590   000017                     	ds	2
   591   000019                     USBStdFeatureReqHandler@pUEP:
   592                           	callstack 0
   593                           
   594                           ; 2 bytes @ 0x18
   595   000019                     	ds	1
   596   00001A                     ___flmul@a:
   597                           	callstack 0
   598                           
   599                           ; 4 bytes @ 0x19
   600   00001A                     	ds	1
   601   00001B                     USBStdFeatureReqHandler@current_ep_data:
   602                           	callstack 0
   603                           
   604                           ; 1 bytes @ 0x1A
   605   00001B                     	ds	1
   606   00001C                     USBStdFeatureReqHandler@p:
   607                           	callstack 0
   608                           
   609                           ; 2 bytes @ 0x1B
   610   00001C                     	ds	2
   611   00001E                     ??_USBCheckStdRequest:
   612   00001E                     ??___flmul:
   613                           
   614                           ; 1 bytes @ 0x1D
   615   00001E                     	ds	2
   616   000020                     ??_USBCtrlEPService:
   617   000020                     
   618                           ; 1 bytes @ 0x1F
   619   000020                     	ds	1
   620   000021                     USBDeviceTasks@i:
   621                           	callstack 0
   622                           
   623                           ; 1 bytes @ 0x20
   624   000021                     	ds	1
   625   000022                     ___flmul@sign:
   626                           	callstack 0
   627                           
   628                           ; 1 bytes @ 0x21
   629   000022                     	ds	1
   630   000023                     ___flmul@grs:
   631                           	callstack 0
   632                           
   633                           ; 4 bytes @ 0x22
   634   000023                     	ds	4
   635   000027                     ___flmul@aexp:
   636                           	callstack 0
   637                           
   638                           ; 1 bytes @ 0x26
   639   000027                     	ds	1
   640   000028                     ___flmul@bexp:
   641                           	callstack 0
   642                           
   643                           ; 1 bytes @ 0x27
   644   000028                     	ds	1
   645   000029                     ___flmul@prod:
   646                           	callstack 0
   647                           
   648                           ; 4 bytes @ 0x28
   649   000029                     	ds	4
   650   00002D                     ___flmul@temp:
   651                           	callstack 0
   652                           
   653                           ; 2 bytes @ 0x2C
   654   00002D                     	ds	2
   655   00002F                     ?___fladd:
   656                           	callstack 0
   657   00002F                     ___fladd@b:
   658                           	callstack 0
   659                           
   660                           ; 4 bytes @ 0x2E
   661   00002F                     	ds	4
   662   000033                     ___fladd@a:
   663                           	callstack 0
   664                           
   665                           ; 4 bytes @ 0x32
   666   000033                     	ds	4
   667   000037                     ??___fladd:
   668                           
   669                           ; 1 bytes @ 0x36
   670   000037                     	ds	4
   671   00003B                     ___fladd@signs:
   672                           	callstack 0
   673                           
   674                           ; 1 bytes @ 0x3A
   675   00003B                     	ds	1
   676   00003C                     ___fladd@aexp:
   677                           	callstack 0
   678                           
   679                           ; 1 bytes @ 0x3B
   680   00003C                     	ds	1
   681   00003D                     ___fladd@bexp:
   682                           	callstack 0
   683                           
   684                           ; 1 bytes @ 0x3C
   685   00003D                     	ds	1
   686   00003E                     ___fladd@grs:
   687                           	callstack 0
   688                           
   689                           ; 1 bytes @ 0x3D
   690   00003E                     	ds	1
   691   00003F                     ?___flsub:
   692                           	callstack 0
   693   00003F                     ___flsub@b:
   694                           	callstack 0
   695                           
   696                           ; 4 bytes @ 0x3E
   697   00003F                     	ds	4
   698   000043                     ___flsub@a:
   699                           	callstack 0
   700                           
   701                           ; 4 bytes @ 0x42
   702   000043                     	ds	4
   703   000047                     ?___fltol:
   704                           	callstack 0
   705   000047                     ___flge@ff1:
   706                           	callstack 0
   707   000047                     ___fltol@f1:
   708                           	callstack 0
   709                           
   710                           ; 4 bytes @ 0x46
   711   000047                     	ds	4
   712   00004B                     ??___fltol:
   713   00004B                     ___flge@ff2:
   714                           	callstack 0
   715                           
   716                           ; 4 bytes @ 0x4A
   717   00004B                     	ds	4
   718   00004F                     ??___flge:
   719   00004F                     ___fltol@sign1:
   720                           	callstack 0
   721                           
   722                           ; 1 bytes @ 0x4E
   723   00004F                     	ds	1
   724   000050                     ___fltol@exp1:
   725                           	callstack 0
   726                           
   727                           ; 1 bytes @ 0x4F
   728   000050                     	ds	3
   729   000053                     _APP_DeviceJoystickTasks$2981:
   730                           	callstack 0
   731                           
   732                           ; 4 bytes @ 0x52
   733   000053                     	ds	4
   734   000057                     
   735                           ; 1 bytes @ 0x56
   736 ;;
   737 ;;Main: autosize = 0, tempsize = 0, incstack = 0, save=0
   738 ;;
   739 ;; *************** function _main *****************
   740 ;; Defined at:
   741 ;;		line 10 in file "../source/main.c"
   742 ;; Parameters:    Size  Location     Type
   743 ;;		None
   744 ;; Auto vars:     Size  Location     Type
   745 ;;		None
   746 ;; Return value:  Size  Location     Type
   747 ;;                  1    wreg      void 
   748 ;; Registers used:
   749 ;;		wreg, fsr1l, fsr1h, fsr2l, fsr2h, status,2, status,0, tblptrl, tblptrh, tblptru, prodl, prodh, cstack
   750 ;; Tracked objects:
   751 ;;		On entry : 0/0
   752 ;;		On exit  : 0/0
   753 ;;		Unchanged: 0/0
   754 ;; Data sizes:     COMRAM   BANK0   BANK1   BANK2   BANK3   BANK4   BANK5   BANK6   BANK7
   755 ;;      Params:         0       0       0       0       0       0       0       0       0
   756 ;;      Locals:         0       0       0       0       0       0       0       0       0
   757 ;;      Temps:          0       0       0       0       0       0       0       0       0
   758 ;;      Totals:         0       0       0       0       0       0       0       0       0
   759 ;;Total ram usage:        0 bytes
   760 ;; Hardware stack levels required when called: 10
   761 ;; This function calls:
   762 ;;		_APP_DeviceJoystickTasks
   763 ;;		_SYSTEM_Initialize
   764 ;;		_USBDeviceInit
   765 ;;		_USBDeviceTasks
   766 ;; This function is called by:
   767 ;;		Startup code after reset
   768 ;; This function uses a non-reentrant model
   769 ;;
   770                           
   771                           	psect	text0
   772   003584                     __ptext0:
   773                           	callstack 0
   774   003584                     _main:
   775                           	callstack 21
   776   003584                     
   777                           ;../source/main.c: 12:     SYSTEM_Initialize(SYSTEM_STATE_USB_START);
   778   003584  0E00               	movlw	0
   779   003586  EC00  F01A         	call	_SYSTEM_Initialize
   780   00358A                     
   781                           ;../source/main.c: 14:     USBDeviceInit();
   782   00358A  EC06  F011         	call	_USBDeviceInit	;wreg free
   783   00358E                     l4716:
   784                           
   785                           ;../source/main.c: 18:     {;../source/main.c: 36:             USBDeviceTasks();
   786   00358E  ECD3  F00C         	call	_USBDeviceTasks	;wreg free
   787   003592                     
   788                           ;../source/main.c: 42:         if( USBDeviceState < CONFIGURED_STATE )
   789   003592  0E20               	movlw	32
   790   003594  0100               	movlb	0	; () banked
   791   003596  618B               	cpfslt	_USBDeviceState& (0+255),b
   792   003598  EFD0  F01A         	goto	u4391
   793   00359C  EFD2  F01A         	goto	u4390
   794   0035A0                     u4391:
   795   0035A0  EFD4  F01A         	goto	l573
   796   0035A4                     u4390:
   797   0035A4  EFC7  F01A         	goto	l4716
   798   0035A8                     l573:
   799                           
   800                           ; BSR set to: 0
   801                           ;../source/main.c: 52:         if( UCONbits.SUSPND == 1 )
   802   0035A8  A26D               	btfss	109,1,c	;volatile
   803   0035AA  EFD9  F01A         	goto	u4401
   804   0035AE  EFDB  F01A         	goto	u4400
   805   0035B2                     u4401:
   806   0035B2  EFDD  F01A         	goto	l4724
   807   0035B6                     u4400:
   808   0035B6  EFC7  F01A         	goto	l4716
   809   0035BA                     l4724:
   810                           
   811                           ; BSR set to: 0
   812                           ;../source/main.c: 59:         APP_DeviceJoystickTasks();
   813   0035BA  ECB4  F006         	call	_APP_DeviceJoystickTasks	;wreg free
   814   0035BE  EFC7  F01A         	goto	l4716
   815   0035C2  EF07  F000         	goto	start
   816   0035C6                     __end_of_main:
   817                           	callstack 0
   818                           
   819 ;; *************** function _USBDeviceTasks *****************
   820 ;; Defined at:
   821 ;;		line 437 in file "../source/usb/usb_device.c"
   822 ;; Parameters:    Size  Location     Type
   823 ;;		None
   824 ;; Auto vars:     Size  Location     Type
   825 ;;  i               1   32[COMRAM] unsigned char 
   826 ;; Return value:  Size  Location     Type
   827 ;;                  1    wreg      void 
   828 ;; Registers used:
   829 ;;		wreg, fsr1l, fsr1h, fsr2l, fsr2h, status,2, status,0, tblptrl, tblptrh, tblptru, prodl, prodh, cstack
   830 ;; Tracked objects:
   831 ;;		On entry : 0/0
   832 ;;		On exit  : 0/0
   833 ;;		Unchanged: 0/0
   834 ;; Data sizes:     COMRAM   BANK0   BANK1   BANK2   BANK3   BANK4   BANK5   BANK6   BANK7
   835 ;;      Params:         0       0       0       0       0       0       0       0       0
   836 ;;      Locals:         1       0       0       0       0       0       0       0       0
   837 ;;      Temps:          0       0       0       0       0       0       0       0       0
   838 ;;      Totals:         1       0       0       0       0       0       0       0       0
   839 ;;Total ram usage:        1 bytes
   840 ;; Hardware stack levels used: 1
   841 ;; Hardware stack levels required when called: 9
   842 ;; This function calls:
   843 ;;		_USBCtrlEPAllowStatusStage
   844 ;;		_USBCtrlEPService
   845 ;;		_USBDeviceInit
   846 ;;		_USBIncrement1msInternalTimers
   847 ;;		_USBStallHandler
   848 ;;		_USBSuspend
   849 ;;		_USBWakeFromSuspend
   850 ;;		_USER_USB_CALLBACK_EVENT_HANDLER
   851 ;; This function is called by:
   852 ;;		_main
   853 ;; This function uses a non-reentrant model
   854 ;;
   855                           
   856                           	psect	text1
   857   0019A6                     __ptext1:
   858                           	callstack 0
   859   0019A6                     _USBDeviceTasks:
   860                           	callstack 21
   861   0019A6                     
   862                           ;../source/usb/usb_device.c: 526:     if(USBDeviceState == DETACHED_STATE)
   863   0019A6  0100               	movlb	0	; () banked
   864   0019A8  518B               	movf	_USBDeviceState& (0+255),w,b
   865   0019AA  A4D8               	btfss	status,2,c
   866   0019AC  EFDA  F00C         	goto	u4001
   867   0019B0  EFDC  F00C         	goto	u4000
   868   0019B4                     u4001:
   869   0019B4  EFF3  F00C         	goto	l4546
   870   0019B8                     u4000:
   871   0019B8                     
   872                           ; BSR set to: 0
   873                           ;../source/usb/usb_device.c: 527:     {;../source/usb/usb_device.c: 529:         UCON = 
      +                          0;
   874   0019B8  0E00               	movlw	0
   875   0019BA  6E6D               	movwf	109,c	;volatile
   876                           
   877                           ;../source/usb/usb_device.c: 532:         UIE = 0;
   878   0019BC  0E00               	movlw	0
   879   0019BE  6E69               	movwf	105,c	;volatile
   880                           
   881                           ;../source/usb/usb_device.c: 536:         { UCFG = 0x10 | 0x00 | 0x04 | 0x02; UEIE = 0x9
      +                          F; UIE = 0x39 | 0x40 | 0x02; };
   882   0019C0  0E16               	movlw	22
   883   0019C2  6E6F               	movwf	111,c	;volatile
   884   0019C4  0E9F               	movlw	159
   885   0019C6  6E6B               	movwf	107,c	;volatile
   886   0019C8  0E7B               	movlw	123
   887   0019CA  6E69               	movwf	105,c	;volatile
   888                           
   889                           ;../source/usb/usb_device.c: 539:         while(!UCONbits.USBEN){UCONbits.USBEN = 1;}
   890   0019CC  EFE9  F00C         	goto	l145
   891   0019D0                     l146:
   892   0019D0  866D               	bsf	109,3,c	;volatile
   893   0019D2                     l145:
   894   0019D2  A66D               	btfss	109,3,c	;volatile
   895   0019D4  EFEE  F00C         	goto	u4011
   896   0019D8  EFF0  F00C         	goto	u4010
   897   0019DC                     u4011:
   898   0019DC  EFE8  F00C         	goto	l146
   899   0019E0                     u4010:
   900   0019E0                     
   901                           ;../source/usb/usb_device.c: 542:         USBDeviceState = ATTACHED_STATE;
   902   0019E0  0E01               	movlw	1
   903   0019E2  0100               	movlb	0	; () banked
   904   0019E4  6F8B               	movwf	_USBDeviceState& (0+255),b
   905   0019E6                     l4546:
   906                           
   907                           ; BSR set to: 0
   908                           ;../source/usb/usb_device.c: 550:     if(USBDeviceState == ATTACHED_STATE)
   909   0019E6  058B               	decf	_USBDeviceState& (0+255),w,b
   910   0019E8  A4D8               	btfss	status,2,c
   911   0019EA  EFF9  F00C         	goto	u4021
   912   0019EE  EFFB  F00C         	goto	u4020
   913   0019F2                     u4021:
   914   0019F2  EF0A  F00D         	goto	l4556
   915   0019F6                     u4020:
   916   0019F6                     
   917                           ; BSR set to: 0
   918                           ;../source/usb/usb_device.c: 551:     {;../source/usb/usb_device.c: 561:         if(!UCO
      +                          Nbits.SE0)
   919   0019F6  BA6D               	btfsc	109,5,c	;volatile
   920   0019F8  EF00  F00D         	goto	u4031
   921   0019FC  EF02  F00D         	goto	u4030
   922   001A00                     u4031:
   923   001A00  EF0A  F00D         	goto	l4556
   924   001A04                     u4030:
   925   001A04                     
   926                           ; BSR set to: 0
   927                           ;../source/usb/usb_device.c: 562:         {;../source/usb/usb_device.c: 568:            
      +                               {UIR = 0;};
   928   001A04  0E00               	movlw	0
   929   001A06  6E68               	movwf	104,c	;volatile
   930                           
   931                           ;../source/usb/usb_device.c: 572:                 UIE=0;
   932   001A08  0E00               	movlw	0
   933   001A0A  6E69               	movwf	105,c	;volatile
   934   001A0C                     
   935                           ; BSR set to: 0
   936                           ;../source/usb/usb_device.c: 574:             UIEbits.URSTIE = 1;
   937   001A0C  8069               	bsf	105,0,c	;volatile
   938   001A0E                     
   939                           ; BSR set to: 0
   940                           ;../source/usb/usb_device.c: 575:             UIEbits.IDLEIE = 1;
   941   001A0E  8869               	bsf	105,4,c	;volatile
   942                           
   943                           ;../source/usb/usb_device.c: 576:             USBDeviceState = POWERED_STATE;
   944   001A10  0E02               	movlw	2
   945   001A12  6F8B               	movwf	_USBDeviceState& (0+255),b
   946   001A14                     l4556:
   947                           
   948                           ; BSR set to: 0
   949                           ;../source/usb/usb_device.c: 594:     if(UIRbits.ACTVIF && UIEbits.ACTVIE)
   950   001A14  A468               	btfss	104,2,c	;volatile
   951   001A16  EF0F  F00D         	goto	u4041
   952   001A1A  EF11  F00D         	goto	u4040
   953   001A1E                     u4041:
   954   001A1E  EF1B  F00D         	goto	l4564
   955   001A22                     u4040:
   956   001A22                     
   957                           ; BSR set to: 0
   958   001A22  A469               	btfss	105,2,c	;volatile
   959   001A24  EF16  F00D         	goto	u4051
   960   001A28  EF18  F00D         	goto	u4050
   961   001A2C                     u4051:
   962   001A2C  EF1B  F00D         	goto	l4564
   963   001A30                     u4050:
   964   001A30                     
   965                           ; BSR set to: 0
   966                           ;../source/usb/usb_device.c: 595:     {;../source/usb/usb_device.c: 596:         (UIR &=
      +                           0xFB);
   967   001A30  9468               	bcf	104,2,c	;volatile
   968   001A32                     
   969                           ; BSR set to: 0
   970                           ;../source/usb/usb_device.c: 600:             USBWakeFromSuspend();
   971   001A32  ECE3  F01A         	call	_USBWakeFromSuspend	;wreg free
   972   001A36                     l4564:
   973                           
   974                           ;../source/usb/usb_device.c: 607:     if(UCONbits.SUSPND==1)
   975   001A36  A26D               	btfss	109,1,c	;volatile
   976   001A38  EF20  F00D         	goto	u4061
   977   001A3C  EF22  F00D         	goto	u4060
   978   001A40                     u4061:
   979   001A40  EF25  F00D         	goto	l151
   980   001A44                     u4060:
   981   001A44                     
   982                           ;../source/usb/usb_device.c: 608:     {;../source/usb/usb_device.c: 609:         {PIR2bi
      +                          ts.USBIF = 0;};
   983   001A44  9AA1               	bcf	161,5,c	;volatile
   984                           
   985                           ;../source/usb/usb_device.c: 610:         return;
   986   001A46  EF09  F00E         	goto	l143
   987   001A4A                     l151:
   988                           
   989                           ;../source/usb/usb_device.c: 623:     if(UIRbits.URSTIF && UIEbits.URSTIE)
   990   001A4A  A068               	btfss	104,0,c	;volatile
   991   001A4C  EF2A  F00D         	goto	u4071
   992   001A50  EF2C  F00D         	goto	u4070
   993   001A54                     u4071:
   994   001A54  EF39  F00D         	goto	l4576
   995   001A58                     u4070:
   996   001A58  A069               	btfss	105,0,c	;volatile
   997   001A5A  EF31  F00D         	goto	u4081
   998   001A5E  EF33  F00D         	goto	u4080
   999   001A62                     u4081:
  1000   001A62  EF39  F00D         	goto	l4576
  1001   001A66                     u4080:
  1002   001A66                     
  1003                           ;../source/usb/usb_device.c: 624:     {;../source/usb/usb_device.c: 625:         USBDevi
      +                          ceInit();
  1004   001A66  EC06  F011         	call	_USBDeviceInit	;wreg free
  1005   001A6A                     
  1006                           ;../source/usb/usb_device.c: 631:         USBDeviceState = DEFAULT_STATE;
  1007   001A6A  0E04               	movlw	4
  1008   001A6C  0100               	movlb	0	; () banked
  1009   001A6E  6F8B               	movwf	_USBDeviceState& (0+255),b
  1010   001A70                     
  1011                           ; BSR set to: 0
  1012                           ;../source/usb/usb_device.c: 641:         (UIR &= 0xFE);
  1013   001A70  9068               	bcf	104,0,c	;volatile
  1014   001A72                     l4576:
  1015                           
  1016                           ;../source/usb/usb_device.c: 647:     if(UIRbits.IDLEIF && UIEbits.IDLEIE)
  1017   001A72  A868               	btfss	104,4,c	;volatile
  1018   001A74  EF3E  F00D         	goto	u4091
  1019   001A78  EF40  F00D         	goto	u4090
  1020   001A7C                     u4091:
  1021   001A7C  EF49  F00D         	goto	l4582
  1022   001A80                     u4090:
  1023   001A80  A869               	btfss	105,4,c	;volatile
  1024   001A82  EF45  F00D         	goto	u4101
  1025   001A86  EF47  F00D         	goto	u4100
  1026   001A8A                     u4101:
  1027   001A8A  EF49  F00D         	goto	l4582
  1028   001A8E                     u4100:
  1029   001A8E                     
  1030                           ;../source/usb/usb_device.c: 648:     {;../source/usb/usb_device.c: 654:             USB
      +                          Suspend();
  1031   001A8E  EC1E  F01B         	call	_USBSuspend	;wreg free
  1032   001A92                     l4582:
  1033                           
  1034                           ;../source/usb/usb_device.c: 668:     if(UIRbits.SOFIF)
  1035   001A92  AC68               	btfss	104,6,c	;volatile
  1036   001A94  EF4E  F00D         	goto	u4111
  1037   001A98  EF50  F00D         	goto	u4110
  1038   001A9C                     u4111:
  1039   001A9C  EF7C  F00D         	goto	l4600
  1040   001AA0                     u4110:
  1041   001AA0                     
  1042                           ;../source/usb/usb_device.c: 669:     {;../source/usb/usb_device.c: 671:         if(UIEb
      +                          its.SOFIE)
  1043   001AA0  AC69               	btfss	105,6,c	;volatile
  1044   001AA2  EF55  F00D         	goto	u4121
  1045   001AA6  EF57  F00D         	goto	u4120
  1046   001AAA                     u4121:
  1047   001AAA  EF65  F00D         	goto	l4588
  1048   001AAE                     u4120:
  1049   001AAE                     
  1050                           ;../source/usb/usb_device.c: 672:         {;../source/usb/usb_device.c: 673:            
      +                           USER_USB_CALLBACK_EVENT_HANDLER((USB_EVENT)EVENT_SOF,0,1);
  1051   001AAE  0E00               	movlw	0
  1052   001AB0  6E10               	movwf	(USER_USB_CALLBACK_EVENT_HANDLER@event+1)^0,c
  1053   001AB2  0E73               	movlw	115
  1054   001AB4  6E0F               	movwf	USER_USB_CALLBACK_EVENT_HANDLER@event^0,c
  1055   001AB6  0E00               	movlw	0
  1056   001AB8  6E11               	movwf	USER_USB_CALLBACK_EVENT_HANDLER@pdata^0,c
  1057   001ABA  0E00               	movlw	0
  1058   001ABC  6E12               	movwf	(USER_USB_CALLBACK_EVENT_HANDLER@pdata+1)^0,c
  1059   001ABE  0E00               	movlw	0
  1060   001AC0  6E14               	movwf	(USER_USB_CALLBACK_EVENT_HANDLER@size+1)^0,c
  1061   001AC2  0E01               	movlw	1
  1062   001AC4  6E13               	movwf	USER_USB_CALLBACK_EVENT_HANDLER@size^0,c
  1063   001AC6  ECC1  F018         	call	_USER_USB_CALLBACK_EVENT_HANDLER	;wreg free
  1064   001ACA                     l4588:
  1065                           
  1066                           ;../source/usb/usb_device.c: 675:         (UIR &= 0xBF);
  1067   001ACA  9C68               	bcf	104,6,c	;volatile
  1068   001ACC                     
  1069                           ;../source/usb/usb_device.c: 678:             USBIncrement1msInternalTimers();
  1070   001ACC  EC04  F01B         	call	_USBIncrement1msInternalTimers	;wreg free
  1071   001AD0                     
  1072                           ;../source/usb/usb_device.c: 695:             if(USBStatusStageTimeoutCounter != 0u)
  1073   001AD0  0100               	movlb	0	; () banked
  1074   001AD2  5184               	movf	_USBStatusStageTimeoutCounter& (0+255),w,b
  1075   001AD4  B4D8               	btfsc	status,2,c
  1076   001AD6  EF6F  F00D         	goto	u4131
  1077   001ADA  EF71  F00D         	goto	u4130
  1078   001ADE                     u4131:
  1079   001ADE  EF72  F00D         	goto	l4596
  1080   001AE2                     u4130:
  1081   001AE2                     
  1082                           ; BSR set to: 0
  1083                           ;../source/usb/usb_device.c: 696:             {;../source/usb/usb_device.c: 697:        
      +                                   USBStatusStageTimeoutCounter--;
  1084   001AE2  0784               	decf	_USBStatusStageTimeoutCounter& (0+255),f,b
  1085   001AE4                     l4596:
  1086                           
  1087                           ; BSR set to: 0
  1088                           ;../source/usb/usb_device.c: 704:             if(USBStatusStageTimeoutCounter == 0)
  1089   001AE4  5184               	movf	_USBStatusStageTimeoutCounter& (0+255),w,b
  1090   001AE6  A4D8               	btfss	status,2,c
  1091   001AE8  EF78  F00D         	goto	u4141
  1092   001AEC  EF7A  F00D         	goto	u4140
  1093   001AF0                     u4141:
  1094   001AF0  EF7C  F00D         	goto	l4600
  1095   001AF4                     u4140:
  1096   001AF4                     
  1097                           ; BSR set to: 0
  1098                           ;../source/usb/usb_device.c: 705:             {;../source/usb/usb_device.c: 706:        
      +                                   USBCtrlEPAllowStatusStage();
  1099   001AF4  ECC4  F016         	call	_USBCtrlEPAllowStatusStage	;wreg free
  1100   001AF8                     l4600:
  1101                           
  1102                           ;../source/usb/usb_device.c: 711:     if(UIRbits.STALLIF && UIEbits.STALLIE)
  1103   001AF8  AA68               	btfss	104,5,c	;volatile
  1104   001AFA  EF81  F00D         	goto	u4151
  1105   001AFE  EF83  F00D         	goto	u4150
  1106   001B02                     u4151:
  1107   001B02  EF8C  F00D         	goto	l4606
  1108   001B06                     u4150:
  1109   001B06  AA69               	btfss	105,5,c	;volatile
  1110   001B08  EF88  F00D         	goto	u4161
  1111   001B0C  EF8A  F00D         	goto	u4160
  1112   001B10                     u4161:
  1113   001B10  EF8C  F00D         	goto	l4606
  1114   001B14                     u4160:
  1115   001B14                     
  1116                           ;../source/usb/usb_device.c: 712:     {;../source/usb/usb_device.c: 713:         USBStal
      +                          lHandler();
  1117   001B14  ECD0  F019         	call	_USBStallHandler	;wreg free
  1118   001B18                     l4606:
  1119                           
  1120                           ;../source/usb/usb_device.c: 716:     if(UIRbits.UERRIF && UIEbits.UERRIE)
  1121   001B18  A268               	btfss	104,1,c	;volatile
  1122   001B1A  EF91  F00D         	goto	u4171
  1123   001B1E  EF93  F00D         	goto	u4170
  1124   001B22                     u4171:
  1125   001B22  EFA9  F00D         	goto	l4614
  1126   001B26                     u4170:
  1127   001B26  A269               	btfss	105,1,c	;volatile
  1128   001B28  EF98  F00D         	goto	u4181
  1129   001B2C  EF9A  F00D         	goto	u4180
  1130   001B30                     u4181:
  1131   001B30  EFA9  F00D         	goto	l4614
  1132   001B34                     u4180:
  1133   001B34                     
  1134                           ;../source/usb/usb_device.c: 717:     {;../source/usb/usb_device.c: 718:         USER_US
      +                          B_CALLBACK_EVENT_HANDLER((USB_EVENT)EVENT_BUS_ERROR,0,1);
  1135   001B34  0E7F               	movlw	127
  1136   001B36  6E10               	movwf	(USER_USB_CALLBACK_EVENT_HANDLER@event+1)^0,c
  1137   001B38  680F               	setf	USER_USB_CALLBACK_EVENT_HANDLER@event^0,c
  1138   001B3A  0E00               	movlw	0
  1139   001B3C  6E11               	movwf	USER_USB_CALLBACK_EVENT_HANDLER@pdata^0,c
  1140   001B3E  0E00               	movlw	0
  1141   001B40  6E12               	movwf	(USER_USB_CALLBACK_EVENT_HANDLER@pdata+1)^0,c
  1142   001B42  0E00               	movlw	0
  1143   001B44  6E14               	movwf	(USER_USB_CALLBACK_EVENT_HANDLER@size+1)^0,c
  1144   001B46  0E01               	movlw	1
  1145   001B48  6E13               	movwf	USER_USB_CALLBACK_EVENT_HANDLER@size^0,c
  1146   001B4A  ECC1  F018         	call	_USER_USB_CALLBACK_EVENT_HANDLER	;wreg free
  1147   001B4E                     
  1148                           ;../source/usb/usb_device.c: 719:         {UEIR = 0;};
  1149   001B4E  0E00               	movlw	0
  1150   001B50  6E6A               	movwf	106,c	;volatile
  1151   001B52                     l4614:
  1152                           
  1153                           ;../source/usb/usb_device.c: 734:     if(USBDeviceState < DEFAULT_STATE)
  1154   001B52  0E04               	movlw	4
  1155   001B54  0100               	movlb	0	; () banked
  1156   001B56  618B               	cpfslt	_USBDeviceState& (0+255),b
  1157   001B58  EFB0  F00D         	goto	u4191
  1158   001B5C  EFB2  F00D         	goto	u4190
  1159   001B60                     u4191:
  1160   001B60  EFB5  F00D         	goto	l160
  1161   001B64                     u4190:
  1162   001B64                     
  1163                           ; BSR set to: 0
  1164                           ;../source/usb/usb_device.c: 735:     {;../source/usb/usb_device.c: 736:         {PIR2bi
      +                          ts.USBIF = 0;};
  1165   001B64  9AA1               	bcf	161,5,c	;volatile
  1166                           
  1167                           ;../source/usb/usb_device.c: 737:         return;
  1168   001B66  EF09  F00E         	goto	l143
  1169   001B6A                     l160:
  1170                           
  1171                           ; BSR set to: 0
  1172                           ;../source/usb/usb_device.c: 743:     if(UIEbits.TRNIE)
  1173   001B6A  A669               	btfss	105,3,c	;volatile
  1174   001B6C  EFBA  F00D         	goto	u4201
  1175   001B70  EFBC  F00D         	goto	u4200
  1176   001B74                     u4201:
  1177   001B74  EF08  F00E         	goto	l161
  1178   001B78                     u4200:
  1179   001B78                     
  1180                           ; BSR set to: 0
  1181                           ;../source/usb/usb_device.c: 744:     {;../source/usb/usb_device.c: 745:         for(i =
      +                           0; i < 4u; i++)
  1182   001B78  0E00               	movlw	0
  1183   001B7A  6E21               	movwf	USBDeviceTasks@i^0,c
  1184   001B7C                     l162:
  1185                           
  1186                           ;../source/usb/usb_device.c: 746:         {;../source/usb/usb_device.c: 747:            
      +                           if(UIRbits.TRNIF)
  1187   001B7C  A668               	btfss	104,3,c	;volatile
  1188   001B7E  EFC3  F00D         	goto	u4211
  1189   001B82  EFC5  F00D         	goto	u4210
  1190   001B86                     u4211:
  1191   001B86  EF08  F00E         	goto	l161
  1192   001B8A                     u4210:
  1193   001B8A                     
  1194                           ;../source/usb/usb_device.c: 748:             {;../source/usb/usb_device.c: 750:        
      +                                   USTATcopy.Val = USTAT;
  1195   001B8A  CF6C F08E          	movff	3948,_USTATcopy	;volatile
  1196   001B8E                     
  1197                           ;../source/usb/usb_device.c: 751:                 endpoint_number = USTATcopy.endpoint_n
      +                          umber;
  1198   001B8E  0100               	movlb	0	; () banked
  1199   001B90  318E               	rrcf	_USTATcopy& (0+255),w,b
  1200   001B92  32E8               	rrcf	wreg,f,c
  1201   001B94  32E8               	rrcf	wreg,f,c
  1202   001B96  0B0F               	andlw	15
  1203   001B98  6F86               	movwf	_endpoint_number& (0+255),b
  1204   001B9A                     
  1205                           ; BSR set to: 0
  1206                           ;../source/usb/usb_device.c: 753:                 (UIR &= 0xF7);
  1207   001B9A  9668               	bcf	104,3,c	;volatile
  1208   001B9C                     
  1209                           ; BSR set to: 0
  1210                           ;../source/usb/usb_device.c: 758:                 if(USTATcopy.direction == 0)
  1211   001B9C  B58E               	btfsc	_USTATcopy& (0+255),2,b
  1212   001B9E  EFD3  F00D         	goto	u4221
  1213   001BA2  EFD5  F00D         	goto	u4220
  1214   001BA6                     u4221:
  1215   001BA6  EFDE  F00D         	goto	l4634
  1216   001BAA                     u4220:
  1217   001BAA                     
  1218                           ; BSR set to: 0
  1219                           ;../source/usb/usb_device.c: 759:                 {;../source/usb/usb_device.c: 760:    
      +                                           ep_data_out[endpoint_number].bits.ping_pong_state ^= 1;
  1220   001BAA  0E78               	movlw	low _ep_data_out
  1221   001BAC  2586               	addwf	_endpoint_number& (0+255),w,b
  1222   001BAE  6ED9               	movwf	fsr2l,c
  1223   001BB0  6ADA               	clrf	fsr2h,c
  1224   001BB2  0E00               	movlw	high _ep_data_out
  1225   001BB4  22DA               	addwfc	fsr2h,f,c
  1226   001BB6  70DF               	btg	indf2,0,c
  1227                           
  1228                           ;../source/usb/usb_device.c: 761:                 }
  1229   001BB8  EFE5  F00D         	goto	l4636
  1230   001BBC                     l4634:
  1231                           
  1232                           ; BSR set to: 0
  1233                           ;../source/usb/usb_device.c: 763:                 {;../source/usb/usb_device.c: 764:    
      +                                           ep_data_in[endpoint_number].bits.ping_pong_state ^= 1;
  1234   001BBC  0E7A               	movlw	low _ep_data_in
  1235   001BBE  2586               	addwf	_endpoint_number& (0+255),w,b
  1236   001BC0  6ED9               	movwf	fsr2l,c
  1237   001BC2  6ADA               	clrf	fsr2h,c
  1238   001BC4  0E00               	movlw	high _ep_data_in
  1239   001BC6  22DA               	addwfc	fsr2h,f,c
  1240   001BC8  70DF               	btg	indf2,0,c
  1241   001BCA                     l4636:
  1242                           
  1243                           ; BSR set to: 0
  1244                           ;../source/usb/usb_device.c: 770:                 if(endpoint_number == 0)
  1245   001BCA  5186               	movf	_endpoint_number& (0+255),w,b
  1246   001BCC  A4D8               	btfss	status,2,c
  1247   001BCE  EFEB  F00D         	goto	u4231
  1248   001BD2  EFED  F00D         	goto	u4230
  1249   001BD6                     u4231:
  1250   001BD6  EFF1  F00D         	goto	l4640
  1251   001BDA                     u4230:
  1252   001BDA                     
  1253                           ; BSR set to: 0
  1254                           ;../source/usb/usb_device.c: 771:                 {;../source/usb/usb_device.c: 772:    
      +                                           USBCtrlEPService();
  1255   001BDA  ECB3  F017         	call	_USBCtrlEPService	;wreg free
  1256                           
  1257                           ;../source/usb/usb_device.c: 773:                 }
  1258   001BDE  EFFF  F00D         	goto	l4642
  1259   001BE2                     l4640:
  1260                           
  1261                           ; BSR set to: 0
  1262                           ;../source/usb/usb_device.c: 775:                 {;../source/usb/usb_device.c: 776:    
      +                                           USER_USB_CALLBACK_EVENT_HANDLER((USB_EVENT)EVENT_TRANSFER,(uint8_t*)&US
      +                          TATcopy.Val,0);
  1263   001BE2  0E00               	movlw	0
  1264   001BE4  6E10               	movwf	(USER_USB_CALLBACK_EVENT_HANDLER@event+1)^0,c
  1265   001BE6  0E72               	movlw	114
  1266   001BE8  6E0F               	movwf	USER_USB_CALLBACK_EVENT_HANDLER@event^0,c
  1267   001BEA  0E8E               	movlw	low _USTATcopy
  1268   001BEC  6E11               	movwf	USER_USB_CALLBACK_EVENT_HANDLER@pdata^0,c
  1269   001BEE  0E00               	movlw	high _USTATcopy
  1270   001BF0  6E12               	movwf	(USER_USB_CALLBACK_EVENT_HANDLER@pdata+1)^0,c
  1271   001BF2  0E00               	movlw	0
  1272   001BF4  6E14               	movwf	(USER_USB_CALLBACK_EVENT_HANDLER@size+1)^0,c
  1273   001BF6  0E00               	movlw	0
  1274   001BF8  6E13               	movwf	USER_USB_CALLBACK_EVENT_HANDLER@size^0,c
  1275   001BFA  ECC1  F018         	call	_USER_USB_CALLBACK_EVENT_HANDLER	;wreg free
  1276   001BFE                     l4642:
  1277                           
  1278                           ;../source/usb/usb_device.c: 783:         }
  1279   001BFE  2A21               	incf	USBDeviceTasks@i^0,f,c
  1280   001C00  0E03               	movlw	3
  1281   001C02  6421               	cpfsgt	USBDeviceTasks@i^0,c
  1282   001C04  EF06  F00E         	goto	u4241
  1283   001C08  EF08  F00E         	goto	u4240
  1284   001C0C                     u4241:
  1285   001C0C  EFBE  F00D         	goto	l162
  1286   001C10                     u4240:
  1287   001C10                     l161:
  1288                           
  1289                           ;../source/usb/usb_device.c: 786:     {PIR2bits.USBIF = 0;};
  1290   001C10  9AA1               	bcf	161,5,c	;volatile
  1291   001C12                     l143:
  1292   001C12  0012               	return		;funcret
  1293   001C14                     __end_of_USBDeviceTasks:
  1294                           	callstack 0
  1295                           
  1296 ;; *************** function _USBWakeFromSuspend *****************
  1297 ;; Defined at:
  1298 ;;		line 2266 in file "../source/usb/usb_device.c"
  1299 ;; Parameters:    Size  Location     Type
  1300 ;;		None
  1301 ;; Auto vars:     Size  Location     Type
  1302 ;;		None
  1303 ;; Return value:  Size  Location     Type
  1304 ;;                  1    wreg      void 
  1305 ;; Registers used:
  1306 ;;		wreg, fsr2l, fsr2h, status,2, status,0, prodl, prodh, cstack
  1307 ;; Tracked objects:
  1308 ;;		On entry : 0/0
  1309 ;;		On exit  : 0/0
  1310 ;;		Unchanged: 0/0
  1311 ;; Data sizes:     COMRAM   BANK0   BANK1   BANK2   BANK3   BANK4   BANK5   BANK6   BANK7
  1312 ;;      Params:         0       0       0       0       0       0       0       0       0
  1313 ;;      Locals:         0       0       0       0       0       0       0       0       0
  1314 ;;      Temps:          0       0       0       0       0       0       0       0       0
  1315 ;;      Totals:         0       0       0       0       0       0       0       0       0
  1316 ;;Total ram usage:        0 bytes
  1317 ;; Hardware stack levels used: 1
  1318 ;; Hardware stack levels required when called: 5
  1319 ;; This function calls:
  1320 ;;		_USER_USB_CALLBACK_EVENT_HANDLER
  1321 ;; This function is called by:
  1322 ;;		_USBDeviceTasks
  1323 ;; This function uses a non-reentrant model
  1324 ;;
  1325                           
  1326                           	psect	text2
  1327   0035C6                     __ptext2:
  1328                           	callstack 0
  1329   0035C6                     _USBWakeFromSuspend:
  1330                           	callstack 24
  1331   0035C6                     
  1332                           ;../source/usb/usb_device.c: 2268:     USBBusIsSuspended = 0;
  1333   0035C6  0E00               	movlw	0
  1334   0035C8  0100               	movlb	0	; () banked
  1335   0035CA  6F87               	movwf	_USBBusIsSuspended& (0+255),b
  1336   0035CC                     
  1337                           ; BSR set to: 0
  1338                           ;../source/usb/usb_device.c: 2274:     USER_USB_CALLBACK_EVENT_HANDLER((USB_EVENT)EVENT_
      +                          RESUME,0,0);
  1339   0035CC  0E00               	movlw	0
  1340   0035CE  6E10               	movwf	(USER_USB_CALLBACK_EVENT_HANDLER@event+1)^0,c
  1341   0035D0  0E74               	movlw	116
  1342   0035D2  6E0F               	movwf	USER_USB_CALLBACK_EVENT_HANDLER@event^0,c
  1343   0035D4  0E00               	movlw	0
  1344   0035D6  6E11               	movwf	USER_USB_CALLBACK_EVENT_HANDLER@pdata^0,c
  1345   0035D8  0E00               	movlw	0
  1346   0035DA  6E12               	movwf	(USER_USB_CALLBACK_EVENT_HANDLER@pdata+1)^0,c
  1347   0035DC  0E00               	movlw	0
  1348   0035DE  6E14               	movwf	(USER_USB_CALLBACK_EVENT_HANDLER@size+1)^0,c
  1349   0035E0  0E00               	movlw	0
  1350   0035E2  6E13               	movwf	USER_USB_CALLBACK_EVENT_HANDLER@size^0,c
  1351   0035E4  ECC1  F018         	call	_USER_USB_CALLBACK_EVENT_HANDLER	;wreg free
  1352   0035E8                     
  1353                           ;../source/usb/usb_device.c: 2281:         UCONbits.SUSPND = 0;
  1354   0035E8  926D               	bcf	109,1,c	;volatile
  1355   0035EA                     
  1356                           ;../source/usb/usb_device.c: 2286:     UIEbits.ACTVIE = 0;
  1357   0035EA  9469               	bcf	105,2,c	;volatile
  1358                           
  1359                           ;../source/usb/usb_device.c: 2304:     while(UIRbits.ACTVIF)
  1360   0035EC  EFF9  F01A         	goto	l4172
  1361   0035F0                     l4170:
  1362                           
  1363                           ;../source/usb/usb_device.c: 2306:     {;../source/usb/usb_device.c: 2307:         (UIR 
      +                          &= 0xFB);
  1364   0035F0  9468               	bcf	104,2,c	;volatile
  1365   0035F2                     l4172:
  1366                           
  1367                           ;../source/usb/usb_device.c: 2304:     while(UIRbits.ACTVIF)
  1368   0035F2  B468               	btfsc	104,2,c	;volatile
  1369   0035F4  EFFE  F01A         	goto	u3461
  1370   0035F8  EF00  F01B         	goto	u3460
  1371   0035FC                     u3461:
  1372   0035FC  EFF8  F01A         	goto	l4170
  1373   003600                     u3460:
  1374   003600                     
  1375                           ;../source/usb/usb_device.c: 2310:     USBTicksSinceSuspendEnd = 0;
  1376   003600  0E00               	movlw	0
  1377   003602  0100               	movlb	0	; () banked
  1378   003604  6F7E               	movwf	_USBTicksSinceSuspendEnd& (0+255),b
  1379   003606                     
  1380                           ; BSR set to: 0
  1381   003606  0012               	return		;funcret
  1382   003608                     __end_of_USBWakeFromSuspend:
  1383                           	callstack 0
  1384                           
  1385 ;; *************** function _USBSuspend *****************
  1386 ;; Defined at:
  1387 ;;		line 2208 in file "../source/usb/usb_device.c"
  1388 ;; Parameters:    Size  Location     Type
  1389 ;;		None
  1390 ;; Auto vars:     Size  Location     Type
  1391 ;;		None
  1392 ;; Return value:  Size  Location     Type
  1393 ;;                  1    wreg      void 
  1394 ;; Registers used:
  1395 ;;		wreg, fsr2l, fsr2h, status,2, status,0, prodl, prodh, cstack
  1396 ;; Tracked objects:
  1397 ;;		On entry : 0/0
  1398 ;;		On exit  : 0/0
  1399 ;;		Unchanged: 0/0
  1400 ;; Data sizes:     COMRAM   BANK0   BANK1   BANK2   BANK3   BANK4   BANK5   BANK6   BANK7
  1401 ;;      Params:         0       0       0       0       0       0       0       0       0
  1402 ;;      Locals:         0       0       0       0       0       0       0       0       0
  1403 ;;      Temps:          0       0       0       0       0       0       0       0       0
  1404 ;;      Totals:         0       0       0       0       0       0       0       0       0
  1405 ;;Total ram usage:        0 bytes
  1406 ;; Hardware stack levels used: 1
  1407 ;; Hardware stack levels required when called: 5
  1408 ;; This function calls:
  1409 ;;		_USER_USB_CALLBACK_EVENT_HANDLER
  1410 ;; This function is called by:
  1411 ;;		_USBDeviceTasks
  1412 ;; This function uses a non-reentrant model
  1413 ;;
  1414                           
  1415                           	psect	text3
  1416   00363C                     __ptext3:
  1417                           	callstack 0
  1418   00363C                     _USBSuspend:
  1419                           	callstack 24
  1420   00363C                     
  1421                           ;../source/usb/usb_device.c: 2233:     UIEbits.ACTVIE = 1;
  1422   00363C  8469               	bsf	105,2,c	;volatile
  1423   00363E                     
  1424                           ;../source/usb/usb_device.c: 2234:     (UIR &= 0xEF);
  1425   00363E  9868               	bcf	104,4,c	;volatile
  1426   003640                     
  1427                           ;../source/usb/usb_device.c: 2237:         UCONbits.SUSPND = 1;
  1428   003640  826D               	bsf	109,1,c	;volatile
  1429   003642                     
  1430                           ;../source/usb/usb_device.c: 2240:     USBBusIsSuspended = 1;
  1431   003642  0E01               	movlw	1
  1432   003644  0100               	movlb	0	; () banked
  1433   003646  6F87               	movwf	_USBBusIsSuspended& (0+255),b
  1434   003648                     
  1435                           ; BSR set to: 0
  1436                           ;../source/usb/usb_device.c: 2241:     USBTicksSinceSuspendEnd = 0;
  1437   003648  0E00               	movlw	0
  1438   00364A  6F7E               	movwf	_USBTicksSinceSuspendEnd& (0+255),b
  1439   00364C                     
  1440                           ; BSR set to: 0
  1441                           ;../source/usb/usb_device.c: 2248:     USER_USB_CALLBACK_EVENT_HANDLER((USB_EVENT)EVENT_
      +                          SUSPEND,0,0);
  1442   00364C  0E00               	movlw	0
  1443   00364E  6E10               	movwf	(USER_USB_CALLBACK_EVENT_HANDLER@event+1)^0,c
  1444   003650  0E75               	movlw	117
  1445   003652  6E0F               	movwf	USER_USB_CALLBACK_EVENT_HANDLER@event^0,c
  1446   003654  0E00               	movlw	0
  1447   003656  6E11               	movwf	USER_USB_CALLBACK_EVENT_HANDLER@pdata^0,c
  1448   003658  0E00               	movlw	0
  1449   00365A  6E12               	movwf	(USER_USB_CALLBACK_EVENT_HANDLER@pdata+1)^0,c
  1450   00365C  0E00               	movlw	0
  1451   00365E  6E14               	movwf	(USER_USB_CALLBACK_EVENT_HANDLER@size+1)^0,c
  1452   003660  0E00               	movlw	0
  1453   003662  6E13               	movwf	USER_USB_CALLBACK_EVENT_HANDLER@size^0,c
  1454   003664  ECC1  F018         	call	_USER_USB_CALLBACK_EVENT_HANDLER	;wreg free
  1455   003668  0012               	return		;funcret
  1456   00366A                     __end_of_USBSuspend:
  1457                           	callstack 0
  1458                           
  1459 ;; *************** function _USBStallHandler *****************
  1460 ;; Defined at:
  1461 ;;		line 2165 in file "../source/usb/usb_device.c"
  1462 ;; Parameters:    Size  Location     Type
  1463 ;;		None
  1464 ;; Auto vars:     Size  Location     Type
  1465 ;;		None
  1466 ;; Return value:  Size  Location     Type
  1467 ;;                  1    wreg      void 
  1468 ;; Registers used:
  1469 ;;		wreg, fsr2l, fsr2h, status,2, status,0
  1470 ;; Tracked objects:
  1471 ;;		On entry : 0/0
  1472 ;;		On exit  : 0/0
  1473 ;;		Unchanged: 0/0
  1474 ;; Data sizes:     COMRAM   BANK0   BANK1   BANK2   BANK3   BANK4   BANK5   BANK6   BANK7
  1475 ;;      Params:         0       0       0       0       0       0       0       0       0
  1476 ;;      Locals:         0       0       0       0       0       0       0       0       0
  1477 ;;      Temps:          1       0       0       0       0       0       0       0       0
  1478 ;;      Totals:         1       0       0       0       0       0       0       0       0
  1479 ;;Total ram usage:        1 bytes
  1480 ;; Hardware stack levels used: 1
  1481 ;; Hardware stack levels required when called: 1
  1482 ;; This function calls:
  1483 ;;		Nothing
  1484 ;; This function is called by:
  1485 ;;		_USBDeviceTasks
  1486 ;; This function uses a non-reentrant model
  1487 ;;
  1488                           
  1489                           	psect	text4
  1490   0033A0                     __ptext4:
  1491                           	callstack 0
  1492   0033A0                     _USBStallHandler:
  1493                           	callstack 28
  1494   0033A0                     
  1495                           ;../source/usb/usb_device.c: 2177:     if(UEP0bits.EPSTALL == 1)
  1496   0033A0  A070               	btfss	112,0,c	;volatile
  1497   0033A2  EFD5  F019         	goto	u3491
  1498   0033A6  EFD7  F019         	goto	u3490
  1499   0033AA                     u3491:
  1500   0033AA  EFFE  F019         	goto	l290
  1501   0033AE                     u3490:
  1502   0033AE                     
  1503                           ;../source/usb/usb_device.c: 2178:     {;../source/usb/usb_device.c: 2180:         if((p
      +                          BDTEntryEP0OutCurrent->STAT.Val == 0x80) && (pBDTEntryIn[0]->STAT.Val == (0x80|0x04)))
  1504   0033AE  C05D  FFD9         	movff	_pBDTEntryEP0OutCurrent,fsr2l
  1505   0033B2  C05E  FFDA         	movff	_pBDTEntryEP0OutCurrent+1,fsr2h
  1506   0033B6  0E80               	movlw	128
  1507   0033B8  18DE               	xorwf	postinc2,w,c
  1508   0033BA  A4D8               	btfss	status,2,c
  1509   0033BC  EFE2  F019         	goto	u3501
  1510   0033C0  EFE4  F019         	goto	u3500
  1511   0033C4                     u3501:
  1512   0033C4  EFFD  F019         	goto	l4208
  1513   0033C8                     u3500:
  1514   0033C8  C057  FFD9         	movff	_pBDTEntryIn,fsr2l
  1515   0033CC  C058  FFDA         	movff	_pBDTEntryIn+1,fsr2h
  1516   0033D0  0E84               	movlw	132
  1517   0033D2  18DE               	xorwf	postinc2,w,c
  1518   0033D4  A4D8               	btfss	status,2,c
  1519   0033D6  EFEF  F019         	goto	u3511
  1520   0033DA  EFF1  F019         	goto	u3510
  1521   0033DE                     u3511:
  1522   0033DE  EFFD  F019         	goto	l4208
  1523   0033E2                     u3510:
  1524   0033E2                     
  1525                           ;../source/usb/usb_device.c: 2181:         {;../source/usb/usb_device.c: 2183:          
      +                             pBDTEntryEP0OutCurrent->STAT.Val = 0x00|(0x08 & 0x08)|0x04;
  1526   0033E2  C05D  FFD9         	movff	_pBDTEntryEP0OutCurrent,fsr2l
  1527   0033E6  C05E  FFDA         	movff	_pBDTEntryEP0OutCurrent+1,fsr2h
  1528   0033EA  0E0C               	movlw	12
  1529   0033EC  6EDF               	movwf	indf2,c
  1530   0033EE                     
  1531                           ;../source/usb/usb_device.c: 2184:             pBDTEntryEP0OutCurrent->STAT.Val |= 0x80;
  1532   0033EE  C05D  FFD9         	movff	_pBDTEntryEP0OutCurrent,fsr2l
  1533   0033F2  C05E  FFDA         	movff	_pBDTEntryEP0OutCurrent+1,fsr2h
  1534   0033F6  0E00               	movlw	0
  1535   0033F8  8EDB               	bsf	plusw2,7,c
  1536   0033FA                     l4208:
  1537                           
  1538                           ;../source/usb/usb_device.c: 2186:         UEP0bits.EPSTALL = 0;
  1539   0033FA  9070               	bcf	112,0,c	;volatile
  1540   0033FC                     l290:
  1541                           
  1542                           ;../source/usb/usb_device.c: 2189:     (UIR &= 0xDF);
  1543   0033FC  9A68               	bcf	104,5,c	;volatile
  1544   0033FE  0012               	return		;funcret
  1545   003400                     __end_of_USBStallHandler:
  1546                           	callstack 0
  1547                           
  1548 ;; *************** function _USBIncrement1msInternalTimers *****************
  1549 ;; Defined at:
  1550 ;;		line 2954 in file "../source/usb/usb_device.c"
  1551 ;; Parameters:    Size  Location     Type
  1552 ;;		None
  1553 ;; Auto vars:     Size  Location     Type
  1554 ;;		None
  1555 ;; Return value:  Size  Location     Type
  1556 ;;                  1    wreg      void 
  1557 ;; Registers used:
  1558 ;;		wreg, status,2, status,0
  1559 ;; Tracked objects:
  1560 ;;		On entry : 0/0
  1561 ;;		On exit  : 0/0
  1562 ;;		Unchanged: 0/0
  1563 ;; Data sizes:     COMRAM   BANK0   BANK1   BANK2   BANK3   BANK4   BANK5   BANK6   BANK7
  1564 ;;      Params:         0       0       0       0       0       0       0       0       0
  1565 ;;      Locals:         0       0       0       0       0       0       0       0       0
  1566 ;;      Temps:          0       0       0       0       0       0       0       0       0
  1567 ;;      Totals:         0       0       0       0       0       0       0       0       0
  1568 ;;Total ram usage:        0 bytes
  1569 ;; Hardware stack levels used: 1
  1570 ;; Hardware stack levels required when called: 1
  1571 ;; This function calls:
  1572 ;;		Nothing
  1573 ;; This function is called by:
  1574 ;;		_USBDeviceTasks
  1575 ;; This function uses a non-reentrant model
  1576 ;;
  1577                           
  1578                           	psect	text5
  1579   003608                     __ptext5:
  1580                           	callstack 0
  1581   003608                     _USBIncrement1msInternalTimers:
  1582                           	callstack 28
  1583   003608                     
  1584                           ;../source/usb/usb_device.c: 2962:     USB1msTickCount++;
  1585   003608  0E01               	movlw	1
  1586   00360A  0100               	movlb	0	; () banked
  1587   00360C  276E               	addwf	_USB1msTickCount& (0+255),f,b
  1588   00360E  0E00               	movlw	0
  1589   003610  236F               	addwfc	(_USB1msTickCount+1)& (0+255),f,b
  1590   003612  2370               	addwfc	(_USB1msTickCount+2)& (0+255),f,b
  1591   003614  2371               	addwfc	(_USB1msTickCount+3)& (0+255),f,b
  1592   003616                     
  1593                           ; BSR set to: 0
  1594                           ;../source/usb/usb_device.c: 2963:     if(USBBusIsSuspended == 0)
  1595   003616  5187               	movf	_USBBusIsSuspended& (0+255),w,b
  1596   003618  A4D8               	btfss	status,2,c
  1597   00361A  EF11  F01B         	goto	u3471
  1598   00361E  EF13  F01B         	goto	u3470
  1599   003622                     u3471:
  1600   003622  EF1D  F01B         	goto	l382
  1601   003626                     u3470:
  1602   003626                     
  1603                           ; BSR set to: 0
  1604                           ;../source/usb/usb_device.c: 2964:     {;../source/usb/usb_device.c: 2965:         USBTi
      +                          cksSinceSuspendEnd++;
  1605   003626  2B7E               	incf	_USBTicksSinceSuspendEnd& (0+255),f,b
  1606   003628                     
  1607                           ; BSR set to: 0
  1608                           ;../source/usb/usb_device.c: 2967:         if(USBTicksSinceSuspendEnd == 0)
  1609   003628  517E               	movf	_USBTicksSinceSuspendEnd& (0+255),w,b
  1610   00362A  A4D8               	btfss	status,2,c
  1611   00362C  EF1A  F01B         	goto	u3481
  1612   003630  EF1C  F01B         	goto	u3480
  1613   003634                     u3481:
  1614   003634  EF1D  F01B         	goto	l382
  1615   003638                     u3480:
  1616   003638                     
  1617                           ; BSR set to: 0
  1618                           ;../source/usb/usb_device.c: 2968:         {;../source/usb/usb_device.c: 2969:          
      +                             USBTicksSinceSuspendEnd = 255;
  1619   003638  697E               	setf	_USBTicksSinceSuspendEnd& (0+255),b
  1620   00363A                     l382:
  1621                           
  1622                           ; BSR set to: 0
  1623   00363A  0012               	return		;funcret
  1624   00363C                     __end_of_USBIncrement1msInternalTimers:
  1625                           	callstack 0
  1626                           
  1627 ;; *************** function _USBDeviceInit *****************
  1628 ;; Defined at:
  1629 ;;		line 237 in file "../source/usb/usb_device.c"
  1630 ;; Parameters:    Size  Location     Type
  1631 ;;		None
  1632 ;; Auto vars:     Size  Location     Type
  1633 ;;  i               1   12[COMRAM] unsigned char 
  1634 ;; Return value:  Size  Location     Type
  1635 ;;                  1    wreg      void 
  1636 ;; Registers used:
  1637 ;;		wreg, fsr2l, fsr2h, status,2, status,0, prodl, prodh, cstack
  1638 ;; Tracked objects:
  1639 ;;		On entry : 0/0
  1640 ;;		On exit  : 0/0
  1641 ;;		Unchanged: 0/0
  1642 ;; Data sizes:     COMRAM   BANK0   BANK1   BANK2   BANK3   BANK4   BANK5   BANK6   BANK7
  1643 ;;      Params:         0       0       0       0       0       0       0       0       0
  1644 ;;      Locals:         1       0       0       0       0       0       0       0       0
  1645 ;;      Temps:          0       0       0       0       0       0       0       0       0
  1646 ;;      Totals:         1       0       0       0       0       0       0       0       0
  1647 ;;Total ram usage:        1 bytes
  1648 ;; Hardware stack levels used: 1
  1649 ;; Hardware stack levels required when called: 2
  1650 ;; This function calls:
  1651 ;;		_memset
  1652 ;; This function is called by:
  1653 ;;		_USBDeviceTasks
  1654 ;;		_main
  1655 ;; This function uses a non-reentrant model
  1656 ;;
  1657                           
  1658                           	psect	text6
  1659   00220C                     __ptext6:
  1660                           	callstack 0
  1661   00220C                     _USBDeviceInit:
  1662                           	callstack 27
  1663   00220C                     
  1664                           ;../source/usb/usb_device.c: 239:     uint8_t i;;../source/usb/usb_device.c: 241:     {P
      +                          IE2bits.USBIE = 0;};
  1665   00220C  9AA0               	bcf	160,5,c	;volatile
  1666   00220E                     
  1667                           ;../source/usb/usb_device.c: 248:     {UEIR = 0;};
  1668   00220E  0E00               	movlw	0
  1669   002210  6E6A               	movwf	106,c	;volatile
  1670                           
  1671                           ;../source/usb/usb_device.c: 251:     {UIR = 0;};
  1672   002212  0E00               	movlw	0
  1673   002214  6E68               	movwf	104,c	;volatile
  1674                           
  1675                           ;../source/usb/usb_device.c: 254:     UEP0 = 0;
  1676   002216  0E00               	movlw	0
  1677   002218  6E70               	movwf	112,c	;volatile
  1678   00221A                     
  1679                           ;../source/usb/usb_device.c: 256:     memset((void*)&UEP1,0x00,(1));;
  1680   00221A  0E71               	movlw	113
  1681   00221C  6E01               	movwf	memset@dest^0,c
  1682   00221E  0E0F               	movlw	15
  1683   002220  6E02               	movwf	(memset@dest+1)^0,c
  1684   002222  0E00               	movlw	0
  1685   002224  6E04               	movwf	(memset@c+1)^0,c
  1686   002226  0E00               	movlw	0
  1687   002228  6E03               	movwf	memset@c^0,c
  1688   00222A  0E00               	movlw	0
  1689   00222C  6E06               	movwf	(memset@n+1)^0,c
  1690   00222E  0E01               	movlw	1
  1691   002230  6E05               	movwf	memset@n^0,c
  1692   002232  ECE4  F00E         	call	_memset	;wreg free
  1693   002236                     
  1694                           ;../source/usb/usb_device.c: 258:     { UCFG = 0x10 | 0x00 | 0x04 | 0x02; UEIE = 0x9F; U
      +                          IE = 0x39 | 0x40 | 0x02; };
  1695   002236  0E16               	movlw	22
  1696   002238  6E6F               	movwf	111,c	;volatile
  1697   00223A  0E9F               	movlw	159
  1698   00223C  6E6B               	movwf	107,c	;volatile
  1699   00223E  0E7B               	movlw	123
  1700   002240  6E69               	movwf	105,c	;volatile
  1701   002242                     
  1702                           ;../source/usb/usb_device.c: 267:     for(i = 0; i < (sizeof(BDT)/sizeof(BDT_ENTRY)); i+
      +                          +)
  1703   002242  0E00               	movlw	0
  1704   002244  6E0D               	movwf	USBDeviceInit@i^0,c
  1705   002246                     l4104:
  1706                           
  1707                           ;../source/usb/usb_device.c: 268:     {;../source/usb/usb_device.c: 269:         BDT[i].
      +                          Val = 0x00;
  1708   002246  500D               	movf	USBDeviceInit@i^0,w,c
  1709   002248  0D04               	mullw	4
  1710   00224A  0E00               	movlw	0
  1711   00224C  24F3               	addwf	243,w,c
  1712   00224E  6ED9               	movwf	fsr2l,c
  1713   002250  0E04               	movlw	4
  1714   002252  20F4               	addwfc	prodh,w,c
  1715   002254  6EDA               	movwf	fsr2h,c
  1716   002256  6ADE               	clrf	postinc2,c
  1717   002258  6ADE               	clrf	postinc2,c
  1718   00225A  6ADE               	clrf	postinc2,c
  1719   00225C  6ADD               	clrf	postdec2,c
  1720   00225E                     
  1721                           ;../source/usb/usb_device.c: 270:     }
  1722   00225E  2A0D               	incf	USBDeviceInit@i^0,f,c
  1723   002260  0E07               	movlw	7
  1724   002262  640D               	cpfsgt	USBDeviceInit@i^0,c
  1725   002264  EF36  F011         	goto	u3431
  1726   002268  EF38  F011         	goto	u3430
  1727   00226C                     u3431:
  1728   00226C  EF23  F011         	goto	l4104
  1729   002270                     u3430:
  1730   002270                     
  1731                           ;../source/usb/usb_device.c: 273:     UCONbits.PPBRST = 1;
  1732   002270  8C6D               	bsf	109,6,c	;volatile
  1733   002272                     
  1734                           ;../source/usb/usb_device.c: 276:     UADDR = 0x00;
  1735   002272  0E00               	movlw	0
  1736   002274  6E6E               	movwf	110,c	;volatile
  1737   002276                     
  1738                           ;../source/usb/usb_device.c: 279:     UCONbits.PKTDIS = 0;
  1739   002276  986D               	bcf	109,4,c	;volatile
  1740   002278                     
  1741                           ;../source/usb/usb_device.c: 282:     UCONbits.PPBRST = 0;
  1742   002278  9C6D               	bcf	109,6,c	;volatile
  1743   00227A                     l4116:
  1744                           
  1745                           ;../source/usb/usb_device.c: 286:     {;../source/usb/usb_device.c: 287:         (UIR &=
      +                           0xF7);
  1746   00227A  9668               	bcf	104,3,c	;volatile
  1747   00227C                     
  1748                           ;../source/usb/usb_device.c: 289:         inPipes[0].info.Val = 0;
  1749   00227C  0E00               	movlw	0
  1750   00227E  0100               	movlb	0	; () banked
  1751   002280  6F6B               	movwf	(_inPipes+3)& (0+255),b
  1752   002282                     
  1753                           ; BSR set to: 0
  1754                           ;../source/usb/usb_device.c: 290:         outPipes[0].info.Val = 0;
  1755   002282  0E00               	movlw	0
  1756   002284  6F63               	movwf	(_outPipes+3)& (0+255),b
  1757   002286                     
  1758                           ; BSR set to: 0
  1759                           ;../source/usb/usb_device.c: 291:         outPipes[0].wCount.Val = 0;
  1760   002286  0E00               	movlw	0
  1761   002288  6F65               	movwf	(_outPipes+5)& (0+255),b
  1762   00228A  0E00               	movlw	0
  1763   00228C  6F64               	movwf	(_outPipes+4)& (0+255),b
  1764   00228E                     
  1765                           ; BSR set to: 0
  1766                           ;../source/usb/usb_device.c: 292:     }while(UIRbits.TRNIF == 1);
  1767   00228E  B668               	btfsc	104,3,c	;volatile
  1768   002290  EF4C  F011         	goto	u3441
  1769   002294  EF4E  F011         	goto	u3440
  1770   002298                     u3441:
  1771   002298  EF3D  F011         	goto	l4116
  1772   00229C                     u3440:
  1773   00229C                     
  1774                           ; BSR set to: 0
  1775                           ;../source/usb/usb_device.c: 296:     USBStatusStageEnabledFlag1 = 1;
  1776   00229C  0E01               	movlw	1
  1777   00229E  6F82               	movwf	_USBStatusStageEnabledFlag1& (0+255),b	;volatile
  1778                           
  1779                           ;../source/usb/usb_device.c: 297:     USBStatusStageEnabledFlag2 = 1;
  1780   0022A0  0E01               	movlw	1
  1781   0022A2  6F81               	movwf	_USBStatusStageEnabledFlag2& (0+255),b	;volatile
  1782                           
  1783                           ;../source/usb/usb_device.c: 299:     USBDeferINDataStagePackets = 0;
  1784   0022A4  0E00               	movlw	0
  1785   0022A6  6F80               	movwf	_USBDeferINDataStagePackets& (0+255),b	;volatile
  1786                           
  1787                           ;../source/usb/usb_device.c: 300:     USBDeferOUTDataStagePackets = 0;
  1788   0022A8  0E00               	movlw	0
  1789   0022AA  6F7F               	movwf	_USBDeferOUTDataStagePackets& (0+255),b	;volatile
  1790                           
  1791                           ;../source/usb/usb_device.c: 301:     USBBusIsSuspended = 0;
  1792   0022AC  0E00               	movlw	0
  1793   0022AE  6F87               	movwf	_USBBusIsSuspended& (0+255),b
  1794                           
  1795                           ;../source/usb/usb_device.c: 305:     for(i = 0; i < (uint8_t)(1 +1u); i++)
  1796   0022B0  0E00               	movlw	0
  1797   0022B2  6E0D               	movwf	USBDeviceInit@i^0,c
  1798   0022B4                     l4132:
  1799                           
  1800                           ;../source/usb/usb_device.c: 306:     {;../source/usb/usb_device.c: 307:         pBDTEnt
      +                          ryIn[i] = 0u;
  1801   0022B4  500D               	movf	USBDeviceInit@i^0,w,c
  1802   0022B6  0D02               	mullw	2
  1803   0022B8  0E57               	movlw	low _pBDTEntryIn
  1804   0022BA  24F3               	addwf	243,w,c
  1805   0022BC  6ED9               	movwf	fsr2l,c
  1806   0022BE  0E00               	movlw	high _pBDTEntryIn
  1807   0022C0  20F4               	addwfc	prodh,w,c
  1808   0022C2  6EDA               	movwf	fsr2h,c
  1809   0022C4  0E00               	movlw	0
  1810   0022C6  6EDE               	movwf	postinc2,c
  1811   0022C8  0E00               	movlw	0
  1812   0022CA  6EDD               	movwf	postdec2,c
  1813                           
  1814                           ;../source/usb/usb_device.c: 308:         pBDTEntryOut[i] = 0u;
  1815   0022CC  500D               	movf	USBDeviceInit@i^0,w,c
  1816   0022CE  0D02               	mullw	2
  1817   0022D0  0E72               	movlw	low _pBDTEntryOut
  1818   0022D2  24F3               	addwf	243,w,c
  1819   0022D4  6ED9               	movwf	fsr2l,c
  1820   0022D6  0E00               	movlw	high _pBDTEntryOut
  1821   0022D8  20F4               	addwfc	prodh,w,c
  1822   0022DA  6EDA               	movwf	fsr2h,c
  1823   0022DC  0E00               	movlw	0
  1824   0022DE  6EDE               	movwf	postinc2,c
  1825   0022E0  0E00               	movlw	0
  1826   0022E2  6EDD               	movwf	postdec2,c
  1827   0022E4                     
  1828                           ;../source/usb/usb_device.c: 309:         ep_data_in[i].Val = 0u;
  1829   0022E4  0E7A               	movlw	low _ep_data_in
  1830   0022E6  240D               	addwf	USBDeviceInit@i^0,w,c
  1831   0022E8  6ED9               	movwf	fsr2l,c
  1832   0022EA  6ADA               	clrf	fsr2h,c
  1833   0022EC  0E00               	movlw	high _ep_data_in
  1834   0022EE  22DA               	addwfc	fsr2h,f,c
  1835   0022F0  0E00               	movlw	0
  1836   0022F2  6EDF               	movwf	indf2,c
  1837   0022F4                     
  1838                           ;../source/usb/usb_device.c: 310:         ep_data_out[i].Val = 0u;
  1839   0022F4  0E78               	movlw	low _ep_data_out
  1840   0022F6  240D               	addwf	USBDeviceInit@i^0,w,c
  1841   0022F8  6ED9               	movwf	fsr2l,c
  1842   0022FA  6ADA               	clrf	fsr2h,c
  1843   0022FC  0E00               	movlw	high _ep_data_out
  1844   0022FE  22DA               	addwfc	fsr2h,f,c
  1845   002300  0E00               	movlw	0
  1846   002302  6EDF               	movwf	indf2,c
  1847   002304                     
  1848                           ;../source/usb/usb_device.c: 311:     }
  1849   002304  2A0D               	incf	USBDeviceInit@i^0,f,c
  1850   002306  0E01               	movlw	1
  1851   002308  640D               	cpfsgt	USBDeviceInit@i^0,c
  1852   00230A  EF89  F011         	goto	u3451
  1853   00230E  EF8B  F011         	goto	u3450
  1854   002312                     u3451:
  1855   002312  EF5A  F011         	goto	l4132
  1856   002316                     u3450:
  1857   002316                     
  1858                           ;../source/usb/usb_device.c: 314:     pBDTEntryIn[0] = (volatile BDT_ENTRY*)&BDT[2];
  1859   002316  0E08               	movlw	8
  1860   002318  6E57               	movwf	_pBDTEntryIn^0,c
  1861   00231A  0E04               	movlw	4
  1862   00231C  6E58               	movwf	(_pBDTEntryIn+1)^0,c
  1863   00231E                     
  1864                           ;../source/usb/usb_device.c: 316:     UEP0 = 0x06|0x10;
  1865   00231E  0E16               	movlw	22
  1866   002320  6E70               	movwf	112,c	;volatile
  1867   002322                     
  1868                           ;../source/usb/usb_device.c: 318:     BDT[0].ADR = ((uint16_t)(&SetupPkt));
  1869   002322  0E04               	movlw	4
  1870   002324  0104               	movlb	4	; () banked
  1871   002326  6F03               	movwf	3,b	;volatile
  1872   002328  0E20               	movlw	32
  1873   00232A  6F02               	movwf	2,b	;volatile
  1874   00232C                     
  1875                           ; BSR set to: 4
  1876                           ;../source/usb/usb_device.c: 319:     BDT[0].CNT = 8;
  1877   00232C  0E08               	movlw	8
  1878   00232E  6F01               	movwf	1,b	;volatile
  1879   002330                     
  1880                           ; BSR set to: 4
  1881                           ;../source/usb/usb_device.c: 320:     BDT[0].STAT.Val = 0x00|0x04;
  1882   002330  0E04               	movlw	4
  1883   002332  6F00               	movwf	0,b	;volatile
  1884   002334                     
  1885                           ; BSR set to: 4
  1886                           ;../source/usb/usb_device.c: 321:     BDT[0].STAT.Val |= 0x80;
  1887   002334  8F00               	bsf	0,7,b	;volatile
  1888   002336                     
  1889                           ; BSR set to: 4
  1890                           ;../source/usb/usb_device.c: 324:     USBActiveConfiguration = 0;
  1891   002336  0E00               	movlw	0
  1892   002338  0100               	movlb	0	; () banked
  1893   00233A  6F90               	movwf	_USBActiveConfiguration& (0+255),b
  1894   00233C                     
  1895                           ; BSR set to: 0
  1896                           ;../source/usb/usb_device.c: 326:     USB1msTickCount = 0;
  1897   00233C  0E00               	movlw	0
  1898   00233E  6F6E               	movwf	_USB1msTickCount& (0+255),b
  1899   002340  0E00               	movlw	0
  1900   002342  6F6F               	movwf	(_USB1msTickCount+1)& (0+255),b
  1901   002344  0E00               	movlw	0
  1902   002346  6F70               	movwf	(_USB1msTickCount+2)& (0+255),b
  1903   002348  0E00               	movlw	0
  1904   00234A  6F71               	movwf	(_USB1msTickCount+3)& (0+255),b
  1905   00234C                     
  1906                           ; BSR set to: 0
  1907                           ;../source/usb/usb_device.c: 327:     USBTicksSinceSuspendEnd = 0;
  1908   00234C  0E00               	movlw	0
  1909   00234E  6F7E               	movwf	_USBTicksSinceSuspendEnd& (0+255),b
  1910   002350                     
  1911                           ; BSR set to: 0
  1912                           ;../source/usb/usb_device.c: 330:     USBDeviceState = DETACHED_STATE;
  1913   002350  0E00               	movlw	0
  1914   002352  6F8B               	movwf	_USBDeviceState& (0+255),b
  1915   002354                     
  1916                           ; BSR set to: 0
  1917   002354  0012               	return		;funcret
  1918   002356                     __end_of_USBDeviceInit:
  1919                           	callstack 0
  1920                           
  1921 ;; *************** function _USBCtrlEPService *****************
  1922 ;; Defined at:
  1923 ;;		line 2335 in file "../source/usb/usb_device.c"
  1924 ;; Parameters:    Size  Location     Type
  1925 ;;		None
  1926 ;; Auto vars:     Size  Location     Type
  1927 ;;		None
  1928 ;; Return value:  Size  Location     Type
  1929 ;;                  1    wreg      void 
  1930 ;; Registers used:
  1931 ;;		wreg, fsr1l, fsr1h, fsr2l, fsr2h, status,2, status,0, tblptrl, tblptrh, tblptru, prodl, prodh, cstack
  1932 ;; Tracked objects:
  1933 ;;		On entry : 0/0
  1934 ;;		On exit  : 0/0
  1935 ;;		Unchanged: 0/0
  1936 ;; Data sizes:     COMRAM   BANK0   BANK1   BANK2   BANK3   BANK4   BANK5   BANK6   BANK7
  1937 ;;      Params:         0       0       0       0       0       0       0       0       0
  1938 ;;      Locals:         0       0       0       0       0       0       0       0       0
  1939 ;;      Temps:          1       0       0       0       0       0       0       0       0
  1940 ;;      Totals:         1       0       0       0       0       0       0       0       0
  1941 ;;Total ram usage:        1 bytes
  1942 ;; Hardware stack levels used: 1
  1943 ;; Hardware stack levels required when called: 8
  1944 ;; This function calls:
  1945 ;;		_USBCtrlTrfInHandler
  1946 ;;		_USBCtrlTrfOutHandler
  1947 ;;		_USBCtrlTrfSetupHandler
  1948 ;;		_memcpy
  1949 ;; This function is called by:
  1950 ;;		_USBDeviceTasks
  1951 ;; This function uses a non-reentrant model
  1952 ;;
  1953                           
  1954                           	psect	text7
  1955   002F66                     __ptext7:
  1956                           	callstack 0
  1957   002F66                     _USBCtrlEPService:
  1958                           	callstack 21
  1959   002F66                     
  1960                           ;../source/usb/usb_device.c: 2341:         USBStatusStageTimeoutCounter = (uint8_t)45;
  1961   002F66  0E2D               	movlw	45
  1962   002F68  0100               	movlb	0	; () banked
  1963   002F6A  6F84               	movwf	_USBStatusStageTimeoutCounter& (0+255),b
  1964   002F6C                     
  1965                           ; BSR set to: 0
  1966                           ;../source/usb/usb_device.c: 2345:     if((USTATcopy.Val & ~0x02) == 0x00)
  1967   002F6C  C08E  F020         	movff	_USTATcopy,??_USBCtrlEPService
  1968   002F70  0EFD               	movlw	253
  1969   002F72  1620               	andwf	??_USBCtrlEPService^0,f,c
  1970   002F74  A4D8               	btfss	status,2,c
  1971   002F76  EFBF  F017         	goto	u3521
  1972   002F7A  EFC1  F017         	goto	u3520
  1973   002F7E                     u3521:
  1974   002F7E  EF03  F018         	goto	l4228
  1975   002F82                     u3520:
  1976   002F82                     
  1977                           ; BSR set to: 0
  1978                           ;../source/usb/usb_device.c: 2346:     {;../source/usb/usb_device.c: 2349:             p
      +                          BDTEntryEP0OutCurrent = (volatile BDT_ENTRY*)&BDT[(USTATcopy.Val & 0x7E)>>1];
  1979   002F82  C08E  F020         	movff	_USTATcopy,??_USBCtrlEPService
  1980   002F86  90D8               	bcf	status,0,c
  1981   002F88  3220               	rrcf	??_USBCtrlEPService^0,f,c
  1982   002F8A  0E3F               	movlw	63
  1983   002F8C  1620               	andwf	??_USBCtrlEPService^0,f,c
  1984   002F8E  5020               	movf	??_USBCtrlEPService^0,w,c
  1985   002F90  0D04               	mullw	4
  1986   002F92  0E00               	movlw	0
  1987   002F94  24F3               	addwf	243,w,c
  1988   002F96  6E5D               	movwf	_pBDTEntryEP0OutCurrent^0,c
  1989   002F98  0E04               	movlw	4
  1990   002F9A  20F4               	addwfc	prodh,w,c
  1991   002F9C  6E5E               	movwf	(_pBDTEntryEP0OutCurrent+1)^0,c
  1992   002F9E                     
  1993                           ; BSR set to: 0
  1994                           ;../source/usb/usb_device.c: 2357:         pBDTEntryEP0OutNext = pBDTEntryEP0OutCurrent;
  1995   002F9E  C05D  F05B         	movff	_pBDTEntryEP0OutCurrent,_pBDTEntryEP0OutNext
  1996   002FA2  C05E  F05C         	movff	_pBDTEntryEP0OutCurrent+1,_pBDTEntryEP0OutNext+1
  1997   002FA6                     
  1998                           ; BSR set to: 0
  1999                           ;../source/usb/usb_device.c: 2359:         pBDTEntryEP0OutNext = (volatile BDT_ENTRY*)((
      +                          (uint16_t)pBDTEntryEP0OutNext) ^ 0x0004);
  2000   002FA6  0E04               	movlw	4
  2001   002FA8  185B               	xorwf	_pBDTEntryEP0OutNext^0,w,c
  2002   002FAA  6E5B               	movwf	_pBDTEntryEP0OutNext^0,c
  2003   002FAC  505C               	movf	(_pBDTEntryEP0OutNext+1)^0,w,c
  2004   002FAE  6E5C               	movwf	(_pBDTEntryEP0OutNext+1)^0,c
  2005   002FB0                     
  2006                           ; BSR set to: 0
  2007                           ;../source/usb/usb_device.c: 2362:         if(pBDTEntryEP0OutCurrent->STAT.PID == 0xD)
  2008   002FB0  C05D  FFD9         	movff	_pBDTEntryEP0OutCurrent,fsr2l
  2009   002FB4  C05E  FFDA         	movff	_pBDTEntryEP0OutCurrent+1,fsr2h
  2010   002FB8  30DF               	rrcf	223,w,c
  2011   002FBA  32E8               	rrcf	wreg,f,c
  2012   002FBC  0B0F               	andlw	15
  2013   002FBE  0A0D               	xorlw	13
  2014   002FC0  A4D8               	btfss	status,2,c
  2015   002FC2  EFE5  F017         	goto	u3531
  2016   002FC6  EFE7  F017         	goto	u3530
  2017   002FCA                     u3531:
  2018   002FCA  EFFF  F017         	goto	l4226
  2019   002FCE                     u3530:
  2020   002FCE                     
  2021                           ; BSR set to: 0
  2022                           ;../source/usb/usb_device.c: 2363:         {;../source/usb/usb_device.c: 2368:          
      +                             memcpy((uint8_t*)&SetupPkt, (uint8_t*)((void *)(pBDTEntryEP0OutCurrent->ADR)), 8);
  2023   002FCE  0E20               	movlw	32
  2024   002FD0  6E01               	movwf	memcpy@d1^0,c
  2025   002FD2  0E04               	movlw	4
  2026   002FD4  6E02               	movwf	(memcpy@d1+1)^0,c
  2027   002FD6  EE20 F002          	lfsr	2,2
  2028   002FDA  505D               	movf	_pBDTEntryEP0OutCurrent^0,w,c
  2029   002FDC  26D9               	addwf	fsr2l,f,c
  2030   002FDE  505E               	movf	(_pBDTEntryEP0OutCurrent+1)^0,w,c
  2031   002FE0  22DA               	addwfc	fsr2h,f,c
  2032   002FE2  CFDE F003          	movff	postinc2,memcpy@s1
  2033   002FE6  CFDD F004          	movff	postdec2,memcpy@s1+1
  2034   002FEA  0E00               	movlw	0
  2035   002FEC  6E06               	movwf	(memcpy@n+1)^0,c
  2036   002FEE  0E08               	movlw	8
  2037   002FF0  6E05               	movwf	memcpy@n^0,c
  2038   002FF2  EC2B  F01A         	call	_memcpy	;wreg free
  2039   002FF6                     
  2040                           ;../source/usb/usb_device.c: 2371:             USBCtrlTrfSetupHandler();
  2041   002FF6  EC0F  F019         	call	_USBCtrlTrfSetupHandler	;wreg free
  2042                           
  2043                           ;../source/usb/usb_device.c: 2372:         }
  2044   002FFA  EF0F  F018         	goto	l309
  2045   002FFE                     l4226:
  2046                           
  2047                           ; BSR set to: 0
  2048                           ;../source/usb/usb_device.c: 2374:         {;../source/usb/usb_device.c: 2376:          
      +                             USBCtrlTrfOutHandler();
  2049   002FFE  EC95  F019         	call	_USBCtrlTrfOutHandler	;wreg free
  2050   003002  EF0F  F018         	goto	l309
  2051   003006                     l4228:
  2052                           
  2053                           ; BSR set to: 0
  2054   003006  518E               	movf	_USTATcopy& (0+255),w,b
  2055   003008  0BFD               	andlw	253
  2056   00300A  0A04               	xorlw	4
  2057   00300C  A4D8               	btfss	status,2,c
  2058   00300E  EF0B  F018         	goto	u3541
  2059   003012  EF0D  F018         	goto	u3540
  2060   003016                     u3541:
  2061   003016  EF0F  F018         	goto	l309
  2062   00301A                     u3540:
  2063   00301A                     
  2064                           ; BSR set to: 0
  2065                           ;../source/usb/usb_device.c: 2380:     {;../source/usb/usb_device.c: 2383:         USBCt
      +                          rlTrfInHandler();
  2066   00301A  EC39  F015         	call	_USBCtrlTrfInHandler	;wreg free
  2067   00301E                     l309:
  2068   00301E  0012               	return		;funcret
  2069   003020                     __end_of_USBCtrlEPService:
  2070                           	callstack 0
  2071                           
  2072 ;; *************** function _memcpy *****************
  2073 ;; Defined at:
  2074 ;;		line 4 in file "C:\Program Files\Microchip\xc8\v2.40\pic\sources\c99\common\memcpy.c"
  2075 ;; Parameters:    Size  Location     Type
  2076 ;;  d1              2    0[COMRAM] PTR void 
  2077 ;;		 -> SetupPkt(8), 
  2078 ;;  s1              2    2[COMRAM] PTR const void 
  2079 ;;		 -> CtrlTrfData(8), RAM(2047), SetupPkt(8), 
  2080 ;;  n               2    4[COMRAM] unsigned int 
  2081 ;; Auto vars:     Size  Location     Type
  2082 ;;  s               2    8[COMRAM] PTR const unsigned char 
  2083 ;;		 -> CtrlTrfData(8), RAM(2047), SetupPkt(8), 
  2084 ;;  d               2    6[COMRAM] PTR unsigned char 
  2085 ;;		 -> SetupPkt(8), 
  2086 ;;  tmp             1   10[COMRAM] unsigned char 
  2087 ;; Return value:  Size  Location     Type
  2088 ;;                  2    0[COMRAM] PTR void 
  2089 ;; Registers used:
  2090 ;;		wreg, fsr2l, fsr2h, status,2, status,0
  2091 ;; Tracked objects:
  2092 ;;		On entry : 0/0
  2093 ;;		On exit  : 0/0
  2094 ;;		Unchanged: 0/0
  2095 ;; Data sizes:     COMRAM   BANK0   BANK1   BANK2   BANK3   BANK4   BANK5   BANK6   BANK7
  2096 ;;      Params:         6       0       0       0       0       0       0       0       0
  2097 ;;      Locals:         5       0       0       0       0       0       0       0       0
  2098 ;;      Temps:          0       0       0       0       0       0       0       0       0
  2099 ;;      Totals:        11       0       0       0       0       0       0       0       0
  2100 ;;Total ram usage:       11 bytes
  2101 ;; Hardware stack levels used: 1
  2102 ;; Hardware stack levels required when called: 1
  2103 ;; This function calls:
  2104 ;;		Nothing
  2105 ;; This function is called by:
  2106 ;;		_USBCtrlEPService
  2107 ;; This function uses a non-reentrant model
  2108 ;;
  2109                           
  2110                           	psect	text8
  2111   003456                     __ptext8:
  2112                           	callstack 0
  2113   003456                     _memcpy:
  2114                           	callstack 27
  2115   003456  C003  F009         	movff	memcpy@s1,memcpy@s
  2116   00345A  C004  F00A         	movff	memcpy@s1+1,memcpy@s+1
  2117   00345E  C001  F007         	movff	memcpy@d1,memcpy@d
  2118   003462  C002  F008         	movff	memcpy@d1+1,memcpy@d+1
  2119   003466  EF45  F01A         	goto	l3802
  2120   00346A                     l3794:
  2121   00346A  C009  FFD9         	movff	memcpy@s,fsr2l
  2122   00346E  C00A  FFDA         	movff	memcpy@s+1,fsr2h
  2123   003472  50DF               	movf	indf2,w,c
  2124   003474  6E0B               	movwf	memcpy@tmp^0,c
  2125   003476  4A09               	infsnz	memcpy@s^0,f,c
  2126   003478  2A0A               	incf	(memcpy@s+1)^0,f,c
  2127   00347A  C007  FFD9         	movff	memcpy@d,fsr2l
  2128   00347E  C008  FFDA         	movff	memcpy@d+1,fsr2h
  2129   003482  C00B  FFDF         	movff	memcpy@tmp,indf2
  2130   003486  4A07               	infsnz	memcpy@d^0,f,c
  2131   003488  2A08               	incf	(memcpy@d+1)^0,f,c
  2132   00348A                     l3802:
  2133   00348A  0605               	decf	memcpy@n^0,f,c
  2134   00348C  A0D8               	btfss	status,0,c
  2135   00348E  0606               	decf	(memcpy@n+1)^0,f,c
  2136   003490  2805               	incf	memcpy@n^0,w,c
  2137   003492  E106               	bnz	u2951
  2138   003494  2806               	incf	(memcpy@n+1)^0,w,c
  2139   003496  A4D8               	btfss	status,2,c
  2140   003498  EF50  F01A         	goto	u2951
  2141   00349C  EF52  F01A         	goto	u2950
  2142   0034A0                     u2951:
  2143   0034A0  EF35  F01A         	goto	l3794
  2144   0034A4                     u2950:
  2145   0034A4  0012               	return		;funcret
  2146   0034A6                     __end_of_memcpy:
  2147                           	callstack 0
  2148                           
  2149 ;; *************** function _USBCtrlTrfSetupHandler *****************
  2150 ;; Defined at:
  2151 ;;		line 2428 in file "../source/usb/usb_device.c"
  2152 ;; Parameters:    Size  Location     Type
  2153 ;;		None
  2154 ;; Auto vars:     Size  Location     Type
  2155 ;;		None
  2156 ;; Return value:  Size  Location     Type
  2157 ;;                  1    wreg      void 
  2158 ;; Registers used:
  2159 ;;		wreg, fsr1l, fsr1h, fsr2l, fsr2h, status,2, status,0, tblptrl, tblptrh, tblptru, prodl, prodh, cstack
  2160 ;; Tracked objects:
  2161 ;;		On entry : 0/0
  2162 ;;		On exit  : 0/0
  2163 ;;		Unchanged: 0/0
  2164 ;; Data sizes:     COMRAM   BANK0   BANK1   BANK2   BANK3   BANK4   BANK5   BANK6   BANK7
  2165 ;;      Params:         0       0       0       0       0       0       0       0       0
  2166 ;;      Locals:         0       0       0       0       0       0       0       0       0
  2167 ;;      Temps:          0       0       0       0       0       0       0       0       0
  2168 ;;      Totals:         0       0       0       0       0       0       0       0       0
  2169 ;;Total ram usage:        0 bytes
  2170 ;; Hardware stack levels used: 1
  2171 ;; Hardware stack levels required when called: 7
  2172 ;; This function calls:
  2173 ;;		_USBCheckStdRequest
  2174 ;;		_USBCtrlEPServiceComplete
  2175 ;;		_USER_USB_CALLBACK_EVENT_HANDLER
  2176 ;; This function is called by:
  2177 ;;		_USBCtrlEPService
  2178 ;; This function uses a non-reentrant model
  2179 ;;
  2180                           
  2181                           	psect	text9
  2182   00321E                     __ptext9:
  2183                           	callstack 0
  2184   00321E                     _USBCtrlTrfSetupHandler:
  2185                           	callstack 21
  2186   00321E                     
  2187                           ;../source/usb/usb_device.c: 2433:     shortPacketStatus = 0;
  2188   00321E  0E00               	movlw	0
  2189   003220  0100               	movlb	0	; () banked
  2190   003222  6F8A               	movwf	_shortPacketStatus& (0+255),b
  2191                           
  2192                           ;../source/usb/usb_device.c: 2434:     USBDeferStatusStagePacket = 0;
  2193   003224  0E00               	movlw	0
  2194   003226  6F83               	movwf	_USBDeferStatusStagePacket& (0+255),b	;volatile
  2195                           
  2196                           ;../source/usb/usb_device.c: 2435:     USBDeferINDataStagePackets = 0;
  2197   003228  0E00               	movlw	0
  2198   00322A  6F80               	movwf	_USBDeferINDataStagePackets& (0+255),b	;volatile
  2199                           
  2200                           ;../source/usb/usb_device.c: 2436:     USBDeferOUTDataStagePackets = 0;
  2201   00322C  0E00               	movlw	0
  2202   00322E  6F7F               	movwf	_USBDeferOUTDataStagePackets& (0+255),b	;volatile
  2203                           
  2204                           ;../source/usb/usb_device.c: 2437:     BothEP0OutUOWNsSet = 0;
  2205   003230  0E00               	movlw	0
  2206   003232  6F85               	movwf	_BothEP0OutUOWNsSet& (0+255),b
  2207                           
  2208                           ;../source/usb/usb_device.c: 2438:     controlTransferState = 0;
  2209   003234  0E00               	movlw	0
  2210   003236  6F89               	movwf	_controlTransferState& (0+255),b
  2211   003238                     
  2212                           ; BSR set to: 0
  2213                           ;../source/usb/usb_device.c: 2447:     pBDTEntryIn[0]->STAT.Val &= ~(0x80);
  2214   003238  C057  FFD9         	movff	_pBDTEntryIn,fsr2l
  2215   00323C  C058  FFDA         	movff	_pBDTEntryIn+1,fsr2h
  2216   003240  0E7F               	movlw	127
  2217   003242  16DF               	andwf	indf2,f,c
  2218   003244                     
  2219                           ; BSR set to: 0
  2220                           ;../source/usb/usb_device.c: 2449:     pBDTEntryIn[0] = (volatile BDT_ENTRY*)(((uint16_t
      +                          )pBDTEntryIn[0]) ^ 0x0004);
  2221   003244  0E04               	movlw	4
  2222   003246  1857               	xorwf	_pBDTEntryIn^0,w,c
  2223   003248  6E57               	movwf	_pBDTEntryIn^0,c
  2224   00324A  5058               	movf	(_pBDTEntryIn+1)^0,w,c
  2225   00324C  6E58               	movwf	(_pBDTEntryIn+1)^0,c
  2226   00324E                     
  2227                           ; BSR set to: 0
  2228                           ;../source/usb/usb_device.c: 2450:     pBDTEntryIn[0]->STAT.Val &= ~(0x80);
  2229   00324E  C057  FFD9         	movff	_pBDTEntryIn,fsr2l
  2230   003252  C058  FFDA         	movff	_pBDTEntryIn+1,fsr2h
  2231   003256  0E7F               	movlw	127
  2232   003258  16DF               	andwf	indf2,f,c
  2233   00325A                     
  2234                           ; BSR set to: 0
  2235                           ;../source/usb/usb_device.c: 2451:     pBDTEntryIn[0] = (volatile BDT_ENTRY*)(((uint16_t
      +                          )pBDTEntryIn[0]) ^ 0x0004);
  2236   00325A  0E04               	movlw	4
  2237   00325C  1857               	xorwf	_pBDTEntryIn^0,w,c
  2238   00325E  6E57               	movwf	_pBDTEntryIn^0,c
  2239   003260  5058               	movf	(_pBDTEntryIn+1)^0,w,c
  2240   003262  6E58               	movwf	(_pBDTEntryIn+1)^0,c
  2241   003264                     
  2242                           ; BSR set to: 0
  2243                           ;../source/usb/usb_device.c: 2452:     pBDTEntryEP0OutNext->STAT.Val &= ~(0x80);
  2244   003264  C05B  FFD9         	movff	_pBDTEntryEP0OutNext,fsr2l
  2245   003268  C05C  FFDA         	movff	_pBDTEntryEP0OutNext+1,fsr2h
  2246   00326C  0E7F               	movlw	127
  2247   00326E  16DF               	andwf	indf2,f,c
  2248   003270                     
  2249                           ; BSR set to: 0
  2250                           ;../source/usb/usb_device.c: 2454:     inPipes[0].info.Val = 0;
  2251   003270  0E00               	movlw	0
  2252   003272  6F6B               	movwf	(_inPipes+3)& (0+255),b
  2253   003274                     
  2254                           ; BSR set to: 0
  2255                           ;../source/usb/usb_device.c: 2455:     inPipes[0].wCount.Val = 0;
  2256   003274  0E00               	movlw	0
  2257   003276  6F6D               	movwf	(_inPipes+5)& (0+255),b
  2258   003278  0E00               	movlw	0
  2259   00327A  6F6C               	movwf	(_inPipes+4)& (0+255),b
  2260   00327C                     
  2261                           ; BSR set to: 0
  2262                           ;../source/usb/usb_device.c: 2456:     outPipes[0].info.Val = 0;
  2263   00327C  0E00               	movlw	0
  2264   00327E  6F63               	movwf	(_outPipes+3)& (0+255),b
  2265   003280                     
  2266                           ; BSR set to: 0
  2267                           ;../source/usb/usb_device.c: 2457:     outPipes[0].wCount.Val = 0;
  2268   003280  0E00               	movlw	0
  2269   003282  6F65               	movwf	(_outPipes+5)& (0+255),b
  2270   003284  0E00               	movlw	0
  2271   003286  6F64               	movwf	(_outPipes+4)& (0+255),b
  2272   003288                     
  2273                           ; BSR set to: 0
  2274                           ;../source/usb/usb_device.c: 2463:     USBCheckStdRequest();
  2275   003288  EC22  F014         	call	_USBCheckStdRequest	;wreg free
  2276   00328C                     
  2277                           ;../source/usb/usb_device.c: 2464:     USER_USB_CALLBACK_EVENT_HANDLER((USB_EVENT)EVENT_
      +                          EP0_REQUEST,0,0);
  2278   00328C  0E00               	movlw	0
  2279   00328E  6E10               	movwf	(USER_USB_CALLBACK_EVENT_HANDLER@event+1)^0,c
  2280   003290  0E03               	movlw	3
  2281   003292  6E0F               	movwf	USER_USB_CALLBACK_EVENT_HANDLER@event^0,c
  2282   003294  0E00               	movlw	0
  2283   003296  6E11               	movwf	USER_USB_CALLBACK_EVENT_HANDLER@pdata^0,c
  2284   003298  0E00               	movlw	0
  2285   00329A  6E12               	movwf	(USER_USB_CALLBACK_EVENT_HANDLER@pdata+1)^0,c
  2286   00329C  0E00               	movlw	0
  2287   00329E  6E14               	movwf	(USER_USB_CALLBACK_EVENT_HANDLER@size+1)^0,c
  2288   0032A0  0E00               	movlw	0
  2289   0032A2  6E13               	movwf	USER_USB_CALLBACK_EVENT_HANDLER@size^0,c
  2290   0032A4  ECC1  F018         	call	_USER_USB_CALLBACK_EVENT_HANDLER	;wreg free
  2291   0032A8                     
  2292                           ;../source/usb/usb_device.c: 2477:     USBCtrlEPServiceComplete();
  2293   0032A8  ECAB  F011         	call	_USBCtrlEPServiceComplete	;wreg free
  2294   0032AC  0012               	return		;funcret
  2295   0032AE                     __end_of_USBCtrlTrfSetupHandler:
  2296                           	callstack 0
  2297                           
  2298 ;; *************** function _USBCtrlEPServiceComplete *****************
  2299 ;; Defined at:
  2300 ;;		line 1576 in file "../source/usb/usb_device.c"
  2301 ;; Parameters:    Size  Location     Type
  2302 ;;		None
  2303 ;; Auto vars:     Size  Location     Type
  2304 ;;		None
  2305 ;; Return value:  Size  Location     Type
  2306 ;;                  1    wreg      void 
  2307 ;; Registers used:
  2308 ;;		wreg, fsr1l, fsr1h, fsr2l, fsr2h, status,2, status,0, tblptrl, tblptrh, tblptru, cstack
  2309 ;; Tracked objects:
  2310 ;;		On entry : 0/0
  2311 ;;		On exit  : 0/0
  2312 ;;		Unchanged: 0/0
  2313 ;; Data sizes:     COMRAM   BANK0   BANK1   BANK2   BANK3   BANK4   BANK5   BANK6   BANK7
  2314 ;;      Params:         0       0       0       0       0       0       0       0       0
  2315 ;;      Locals:         0       0       0       0       0       0       0       0       0
  2316 ;;      Temps:          0       0       0       0       0       0       0       0       0
  2317 ;;      Totals:         0       0       0       0       0       0       0       0       0
  2318 ;;Total ram usage:        0 bytes
  2319 ;; Hardware stack levels used: 1
  2320 ;; Hardware stack levels required when called: 3
  2321 ;; This function calls:
  2322 ;;		_USBCtrlEPAllowDataStage
  2323 ;;		_USBCtrlEPAllowStatusStage
  2324 ;; This function is called by:
  2325 ;;		_USBCtrlTrfSetupHandler
  2326 ;; This function uses a non-reentrant model
  2327 ;;
  2328                           
  2329                           	psect	text10
  2330   002356                     __ptext10:
  2331                           	callstack 0
  2332   002356                     _USBCtrlEPServiceComplete:
  2333                           	callstack 24
  2334   002356                     
  2335                           ;../source/usb/usb_device.c: 1582:     UCONbits.PKTDIS = 0;
  2336   002356  986D               	bcf	109,4,c	;volatile
  2337                           
  2338                           ;../source/usb/usb_device.c: 1588:     if(inPipes[0].info.bits.busy == 0)
  2339   002358  0100               	movlb	0	; () banked
  2340   00235A  BF6B               	btfsc	(_inPipes+3)& (0+255),7,b
  2341   00235C  EFB2  F011         	goto	u2821
  2342   002360  EFB4  F011         	goto	u2820
  2343   002364                     u2821:
  2344   002364  EFFA  F011         	goto	l213
  2345   002368                     u2820:
  2346   002368                     
  2347                           ; BSR set to: 0
  2348                           ;../source/usb/usb_device.c: 1589:     {;../source/usb/usb_device.c: 1590:         if(ou
      +                          tPipes[0].info.bits.busy == 1)
  2349   002368  AF63               	btfss	(_outPipes+3)& (0+255),7,b
  2350   00236A  EFB9  F011         	goto	u2831
  2351   00236E  EFBB  F011         	goto	u2830
  2352   002372                     u2831:
  2353   002372  EFCE  F011         	goto	l3666
  2354   002376                     u2830:
  2355   002376                     
  2356                           ; BSR set to: 0
  2357                           ;../source/usb/usb_device.c: 1591:         {;../source/usb/usb_device.c: 1592:          
      +                             controlTransferState = 2;
  2358   002376  0E02               	movlw	2
  2359   002378  6F89               	movwf	_controlTransferState& (0+255),b
  2360                           
  2361                           ;../source/usb/usb_device.c: 1603:             if(USBDeferOUTDataStagePackets == 0)
  2362   00237A  517F               	movf	_USBDeferOUTDataStagePackets& (0+255),w,b	;volatile
  2363   00237C  A4D8               	btfss	status,2,c
  2364   00237E  EFC3  F011         	goto	u2841
  2365   002382  EFC5  F011         	goto	u2840
  2366   002386                     u2841:
  2367   002386  EFC7  F011         	goto	l3662
  2368   00238A                     u2840:
  2369   00238A                     
  2370                           ; BSR set to: 0
  2371                           ;../source/usb/usb_device.c: 1604:             {;../source/usb/usb_device.c: 1605:      
      +                                     USBCtrlEPAllowDataStage();
  2372   00238A  EC10  F018         	call	_USBCtrlEPAllowDataStage	;wreg free
  2373   00238E                     l3662:
  2374                           
  2375                           ;../source/usb/usb_device.c: 1610:             USBStatusStageEnabledFlag2 = 0;
  2376   00238E  0E00               	movlw	0
  2377   002390  0100               	movlb	0	; () banked
  2378   002392  6F81               	movwf	_USBStatusStageEnabledFlag2& (0+255),b	;volatile
  2379   002394                     
  2380                           ; BSR set to: 0
  2381                           ;../source/usb/usb_device.c: 1611:             USBStatusStageEnabledFlag1 = 0;
  2382   002394  0E00               	movlw	0
  2383   002396  6F82               	movwf	_USBStatusStageEnabledFlag1& (0+255),b	;volatile
  2384                           
  2385                           ;../source/usb/usb_device.c: 1612:         }
  2386   002398  EF4F  F012         	goto	l223
  2387   00239C                     l3666:
  2388                           
  2389                           ; BSR set to: 0
  2390                           ;../source/usb/usb_device.c: 1614:         {;../source/usb/usb_device.c: 1619:          
      +                             pBDTEntryEP0OutNext->CNT = 8;
  2391   00239C  EE20 F001          	lfsr	2,1
  2392   0023A0  505B               	movf	_pBDTEntryEP0OutNext^0,w,c
  2393   0023A2  26D9               	addwf	fsr2l,f,c
  2394   0023A4  505C               	movf	(_pBDTEntryEP0OutNext+1)^0,w,c
  2395   0023A6  22DA               	addwfc	fsr2h,f,c
  2396   0023A8  0E08               	movlw	8
  2397   0023AA  6EDF               	movwf	indf2,c
  2398                           
  2399                           ;../source/usb/usb_device.c: 1620:             pBDTEntryEP0OutNext->ADR = ((uint16_t)(&S
      +                          etupPkt));
  2400   0023AC  EE20 F002          	lfsr	2,2
  2401   0023B0  505B               	movf	_pBDTEntryEP0OutNext^0,w,c
  2402   0023B2  26D9               	addwf	fsr2l,f,c
  2403   0023B4  505C               	movf	(_pBDTEntryEP0OutNext+1)^0,w,c
  2404   0023B6  22DA               	addwfc	fsr2h,f,c
  2405   0023B8  0E20               	movlw	32
  2406   0023BA  6EDE               	movwf	postinc2,c
  2407   0023BC  0E04               	movlw	4
  2408   0023BE  6EDD               	movwf	postdec2,c
  2409   0023C0                     
  2410                           ; BSR set to: 0
  2411                           ;../source/usb/usb_device.c: 1621:             pBDTEntryEP0OutNext->STAT.Val = 0x00|(0x0
      +                          8 & 0x08)|0x04;
  2412   0023C0  C05B  FFD9         	movff	_pBDTEntryEP0OutNext,fsr2l
  2413   0023C4  C05C  FFDA         	movff	_pBDTEntryEP0OutNext+1,fsr2h
  2414   0023C8  0E0C               	movlw	12
  2415   0023CA  6EDF               	movwf	indf2,c
  2416   0023CC                     
  2417                           ; BSR set to: 0
  2418                           ;../source/usb/usb_device.c: 1622:             pBDTEntryEP0OutNext->STAT.Val |= 0x80;
  2419   0023CC  C05B  FFD9         	movff	_pBDTEntryEP0OutNext,fsr2l
  2420   0023D0  C05C  FFDA         	movff	_pBDTEntryEP0OutNext+1,fsr2h
  2421   0023D4  0E00               	movlw	0
  2422   0023D6  8EDB               	bsf	plusw2,7,c
  2423                           
  2424                           ;../source/usb/usb_device.c: 1623:             pBDTEntryIn[0]->STAT.Val = 0x04;
  2425   0023D8  C057  FFD9         	movff	_pBDTEntryIn,fsr2l
  2426   0023DC  C058  FFDA         	movff	_pBDTEntryIn+1,fsr2h
  2427   0023E0  0E04               	movlw	4
  2428   0023E2  6EDF               	movwf	indf2,c
  2429   0023E4                     
  2430                           ; BSR set to: 0
  2431                           ;../source/usb/usb_device.c: 1624:             pBDTEntryIn[0]->STAT.Val |= 0x80;
  2432   0023E4  C057  FFD9         	movff	_pBDTEntryIn,fsr2l
  2433   0023E8  C058  FFDA         	movff	_pBDTEntryIn+1,fsr2h
  2434   0023EC  0E00               	movlw	0
  2435   0023EE  8EDB               	bsf	plusw2,7,c
  2436   0023F0  EF4F  F012         	goto	l223
  2437   0023F4                     l213:
  2438                           
  2439                           ; BSR set to: 0
  2440                           ;../source/usb/usb_device.c: 1628:     {;../source/usb/usb_device.c: 1629:   if(SetupPkt
      +                          .DataDir == (0x80>>7))
  2441   0023F4  0104               	movlb	4	; () banked
  2442   0023F6  AF20               	btfss	32,7,b	;volatile
  2443   0023F8  EF00  F012         	goto	u2851
  2444   0023FC  EF02  F012         	goto	u2850
  2445   002400                     u2851:
  2446   002400  EF20  F012         	goto	l3686
  2447   002404                     u2850:
  2448   002404                     
  2449                           ; BSR set to: 4
  2450                           ;../source/usb/usb_device.c: 1630:   {;../source/usb/usb_device.c: 1631:    controlTrans
      +                          ferState = 1;
  2451   002404  0E01               	movlw	1
  2452   002406  0100               	movlb	0	; () banked
  2453   002408  6F89               	movwf	_controlTransferState& (0+255),b
  2454                           
  2455                           ;../source/usb/usb_device.c: 1645:    if(USBDeferINDataStagePackets == 0)
  2456   00240A  5180               	movf	_USBDeferINDataStagePackets& (0+255),w,b	;volatile
  2457   00240C  A4D8               	btfss	status,2,c
  2458   00240E  EF0B  F012         	goto	u2861
  2459   002412  EF0D  F012         	goto	u2860
  2460   002416                     u2861:
  2461   002416  EF0F  F012         	goto	l3678
  2462   00241A                     u2860:
  2463   00241A                     
  2464                           ; BSR set to: 0
  2465                           ;../source/usb/usb_device.c: 1646:             {;../source/usb/usb_device.c: 1647:      
      +                                     USBCtrlEPAllowDataStage();
  2466   00241A  EC10  F018         	call	_USBCtrlEPAllowDataStage	;wreg free
  2467   00241E                     l3678:
  2468                           
  2469                           ;../source/usb/usb_device.c: 1670:             USBStatusStageEnabledFlag2 = 0;
  2470   00241E  0E00               	movlw	0
  2471   002420  0100               	movlb	0	; () banked
  2472   002422  6F81               	movwf	_USBStatusStageEnabledFlag2& (0+255),b	;volatile
  2473   002424                     
  2474                           ; BSR set to: 0
  2475                           ;../source/usb/usb_device.c: 1671:             USBStatusStageEnabledFlag1 = 0;
  2476   002424  0E00               	movlw	0
  2477   002426  6F82               	movwf	_USBStatusStageEnabledFlag1& (0+255),b	;volatile
  2478   002428                     
  2479                           ; BSR set to: 0
  2480                           ;../source/usb/usb_device.c: 1672:             if(USBDeferStatusStagePacket == 0)
  2481   002428  5183               	movf	_USBDeferStatusStagePacket& (0+255),w,b	;volatile
  2482   00242A  A4D8               	btfss	status,2,c
  2483   00242C  EF1A  F012         	goto	u2871
  2484   002430  EF1C  F012         	goto	u2870
  2485   002434                     u2871:
  2486   002434  EF4F  F012         	goto	l223
  2487   002438                     u2870:
  2488   002438                     l3684:
  2489                           
  2490                           ; BSR set to: 0
  2491                           ;../source/usb/usb_device.c: 1673:             {;../source/usb/usb_device.c: 1674:      
      +                                     USBCtrlEPAllowStatusStage();
  2492   002438  ECC4  F016         	call	_USBCtrlEPAllowStatusStage	;wreg free
  2493   00243C  EF4F  F012         	goto	l223
  2494   002440                     l3686:
  2495                           
  2496                           ; BSR set to: 4
  2497                           ;../source/usb/usb_device.c: 1678:   {;../source/usb/usb_device.c: 1689:    controlTrans
      +                          ferState = 2;
  2498   002440  0E02               	movlw	2
  2499   002442  0100               	movlb	0	; () banked
  2500   002444  6F89               	movwf	_controlTransferState& (0+255),b
  2501   002446                     
  2502                           ; BSR set to: 0
  2503                           ;../source/usb/usb_device.c: 1692:    pBDTEntryEP0OutNext->CNT = 8;
  2504   002446  EE20 F001          	lfsr	2,1
  2505   00244A  505B               	movf	_pBDTEntryEP0OutNext^0,w,c
  2506   00244C  26D9               	addwf	fsr2l,f,c
  2507   00244E  505C               	movf	(_pBDTEntryEP0OutNext+1)^0,w,c
  2508   002450  22DA               	addwfc	fsr2h,f,c
  2509   002452  0E08               	movlw	8
  2510   002454  6EDF               	movwf	indf2,c
  2511   002456                     
  2512                           ; BSR set to: 0
  2513                           ;../source/usb/usb_device.c: 1693:    pBDTEntryEP0OutNext->ADR = ((uint16_t)(&SetupPkt))
      +                          ;
  2514   002456  EE20 F002          	lfsr	2,2
  2515   00245A  505B               	movf	_pBDTEntryEP0OutNext^0,w,c
  2516   00245C  26D9               	addwf	fsr2l,f,c
  2517   00245E  505C               	movf	(_pBDTEntryEP0OutNext+1)^0,w,c
  2518   002460  22DA               	addwfc	fsr2h,f,c
  2519   002462  0E20               	movlw	32
  2520   002464  6EDE               	movwf	postinc2,c
  2521   002466  0E04               	movlw	4
  2522   002468  6EDD               	movwf	postdec2,c
  2523   00246A                     
  2524                           ; BSR set to: 0
  2525                           ;../source/usb/usb_device.c: 1694:    pBDTEntryEP0OutNext->STAT.Val = 0x04;
  2526   00246A  C05B  FFD9         	movff	_pBDTEntryEP0OutNext,fsr2l
  2527   00246E  C05C  FFDA         	movff	_pBDTEntryEP0OutNext+1,fsr2h
  2528   002472  0E04               	movlw	4
  2529   002474  6EDF               	movwf	indf2,c
  2530   002476                     
  2531                           ; BSR set to: 0
  2532                           ;../source/usb/usb_device.c: 1695:             pBDTEntryEP0OutNext->STAT.Val |= 0x80;
  2533   002476  C05B  FFD9         	movff	_pBDTEntryEP0OutNext,fsr2l
  2534   00247A  C05C  FFDA         	movff	_pBDTEntryEP0OutNext+1,fsr2h
  2535   00247E  0E00               	movlw	0
  2536   002480  8EDB               	bsf	plusw2,7,c
  2537   002482                     
  2538                           ; BSR set to: 0
  2539                           ;../source/usb/usb_device.c: 1698:             USBStatusStageEnabledFlag2 = 0;
  2540   002482  0E00               	movlw	0
  2541   002484  6F81               	movwf	_USBStatusStageEnabledFlag2& (0+255),b	;volatile
  2542   002486                     
  2543                           ; BSR set to: 0
  2544                           ;../source/usb/usb_device.c: 1699:             USBStatusStageEnabledFlag1 = 0;
  2545   002486  0E00               	movlw	0
  2546   002488  6F82               	movwf	_USBStatusStageEnabledFlag1& (0+255),b	;volatile
  2547   00248A                     
  2548                           ; BSR set to: 0
  2549                           ;../source/usb/usb_device.c: 1700:    if(USBDeferStatusStagePacket == 0)
  2550   00248A  5183               	movf	_USBDeferStatusStagePacket& (0+255),w,b	;volatile
  2551   00248C  A4D8               	btfss	status,2,c
  2552   00248E  EF4B  F012         	goto	u2881
  2553   002492  EF4D  F012         	goto	u2880
  2554   002496                     u2881:
  2555   002496  EF4F  F012         	goto	l223
  2556   00249A                     u2880:
  2557   00249A  EF1C  F012         	goto	l3684
  2558   00249E                     l223:
  2559   00249E  0012               	return		;funcret
  2560   0024A0                     __end_of_USBCtrlEPServiceComplete:
  2561                           	callstack 0
  2562                           
  2563 ;; *************** function _USBCtrlEPAllowDataStage *****************
  2564 ;; Defined at:
  2565 ;;		line 1448 in file "../source/usb/usb_device.c"
  2566 ;; Parameters:    Size  Location     Type
  2567 ;;		None
  2568 ;; Auto vars:     Size  Location     Type
  2569 ;;		None
  2570 ;; Return value:  Size  Location     Type
  2571 ;;                  1    wreg      void 
  2572 ;; Registers used:
  2573 ;;		wreg, fsr1l, fsr1h, fsr2l, fsr2h, status,2, status,0, tblptrl, tblptrh, tblptru, cstack
  2574 ;; Tracked objects:
  2575 ;;		On entry : 0/0
  2576 ;;		On exit  : 0/0
  2577 ;;		Unchanged: 0/0
  2578 ;; Data sizes:     COMRAM   BANK0   BANK1   BANK2   BANK3   BANK4   BANK5   BANK6   BANK7
  2579 ;;      Params:         0       0       0       0       0       0       0       0       0
  2580 ;;      Locals:         0       0       0       0       0       0       0       0       0
  2581 ;;      Temps:          0       0       0       0       0       0       0       0       0
  2582 ;;      Totals:         0       0       0       0       0       0       0       0       0
  2583 ;;Total ram usage:        0 bytes
  2584 ;; Hardware stack levels used: 1
  2585 ;; Hardware stack levels required when called: 2
  2586 ;; This function calls:
  2587 ;;		_USBCtrlTrfTxService
  2588 ;; This function is called by:
  2589 ;;		_USBCtrlEPServiceComplete
  2590 ;; This function uses a non-reentrant model
  2591 ;;
  2592                           
  2593                           	psect	text11
  2594   003020                     __ptext11:
  2595                           	callstack 0
  2596   003020                     _USBCtrlEPAllowDataStage:
  2597                           	callstack 24
  2598   003020                     
  2599                           ;../source/usb/usb_device.c: 1450:     USBDeferINDataStagePackets = 0;
  2600   003020  0E00               	movlw	0
  2601   003022  0100               	movlb	0	; () banked
  2602   003024  6F80               	movwf	_USBDeferINDataStagePackets& (0+255),b	;volatile
  2603                           
  2604                           ;../source/usb/usb_device.c: 1451:     USBDeferOUTDataStagePackets = 0;
  2605   003026  0E00               	movlw	0
  2606   003028  6F7F               	movwf	_USBDeferOUTDataStagePackets& (0+255),b	;volatile
  2607   00302A                     
  2608                           ; BSR set to: 0
  2609                           ;../source/usb/usb_device.c: 1453:     if(controlTransferState == 2)
  2610   00302A  0E02               	movlw	2
  2611   00302C  1989               	xorwf	_controlTransferState& (0+255),w,b
  2612   00302E  A4D8               	btfss	status,2,c
  2613   003030  EF1C  F018         	goto	u2481
  2614   003034  EF1E  F018         	goto	u2480
  2615   003038                     u2481:
  2616   003038  EF3E  F018         	goto	l3448
  2617   00303C                     u2480:
  2618   00303C                     
  2619                           ; BSR set to: 0
  2620                           ;../source/usb/usb_device.c: 1454:     {;../source/usb/usb_device.c: 1456:         pBDTE
      +                          ntryEP0OutNext->CNT = 8;
  2621   00303C  EE20 F001          	lfsr	2,1
  2622   003040  505B               	movf	_pBDTEntryEP0OutNext^0,w,c
  2623   003042  26D9               	addwf	fsr2l,f,c
  2624   003044  505C               	movf	(_pBDTEntryEP0OutNext+1)^0,w,c
  2625   003046  22DA               	addwfc	fsr2h,f,c
  2626   003048  0E08               	movlw	8
  2627   00304A  6EDF               	movwf	indf2,c
  2628                           
  2629                           ;../source/usb/usb_device.c: 1457:         pBDTEntryEP0OutNext->ADR = ((uint16_t)(&CtrlT
      +                          rfData));
  2630   00304C  EE20 F002          	lfsr	2,2
  2631   003050  505B               	movf	_pBDTEntryEP0OutNext^0,w,c
  2632   003052  26D9               	addwf	fsr2l,f,c
  2633   003054  505C               	movf	(_pBDTEntryEP0OutNext+1)^0,w,c
  2634   003056  22DA               	addwfc	fsr2h,f,c
  2635   003058  0E28               	movlw	40
  2636   00305A  6EDE               	movwf	postinc2,c
  2637   00305C  0E04               	movlw	4
  2638   00305E  6EDD               	movwf	postdec2,c
  2639   003060                     
  2640                           ; BSR set to: 0
  2641                           ;../source/usb/usb_device.c: 1458:         pBDTEntryEP0OutNext->STAT.Val = 0x40|(0x08 & 
      +                          0x08);
  2642   003060  C05B  FFD9         	movff	_pBDTEntryEP0OutNext,fsr2l
  2643   003064  C05C  FFDA         	movff	_pBDTEntryEP0OutNext+1,fsr2h
  2644   003068  0E48               	movlw	72
  2645   00306A  6EDF               	movwf	indf2,c
  2646   00306C                     
  2647                           ; BSR set to: 0
  2648                           ;../source/usb/usb_device.c: 1459:         pBDTEntryEP0OutNext->STAT.Val |= 0x80;
  2649   00306C  C05B  FFD9         	movff	_pBDTEntryEP0OutNext,fsr2l
  2650   003070  C05C  FFDA         	movff	_pBDTEntryEP0OutNext+1,fsr2h
  2651   003074  0E00               	movlw	0
  2652   003076  8EDB               	bsf	plusw2,7,c
  2653                           
  2654                           ;../source/usb/usb_device.c: 1460:     }
  2655   003078  EF68  F018         	goto	l205
  2656   00307C                     l3448:
  2657                           
  2658                           ; BSR set to: 0
  2659                           ;../source/usb/usb_device.c: 1462:     {;../source/usb/usb_device.c: 1465:   if(SetupPkt
      +                          .wLength < inPipes[0].wCount.Val)
  2660   00307C  516C               	movf	(_inPipes+4)& (0+255),w,b
  2661   00307E  0104               	movlb	4	; () banked
  2662   003080  5D26               	subwf	38,w,b	;volatile
  2663   003082  0100               	movlb	0	; () banked
  2664   003084  516D               	movf	(_inPipes+5)& (0+255),w,b
  2665   003086  0104               	movlb	4	; () banked
  2666   003088  5927               	subwfb	39,w,b	;volatile
  2667   00308A  B0D8               	btfsc	status,0,c
  2668   00308C  EF4A  F018         	goto	u2491
  2669   003090  EF4C  F018         	goto	u2490
  2670   003094                     u2491:
  2671   003094  EF50  F018         	goto	l3452
  2672   003098                     u2490:
  2673   003098                     
  2674                           ; BSR set to: 4
  2675                           ;../source/usb/usb_device.c: 1466:   {;../source/usb/usb_device.c: 1467:    inPipes[0].w
      +                          Count.Val = SetupPkt.wLength;
  2676   003098  C426 F06C          	movff	1062,_inPipes+4	;volatile
  2677   00309C  C427 F06D          	movff	1063,_inPipes+5	;volatile
  2678   0030A0                     l3452:
  2679                           
  2680                           ; BSR set to: 4
  2681                           ;../source/usb/usb_device.c: 1469:   USBCtrlTrfTxService();
  2682   0030A0  ECB1  F014         	call	_USBCtrlTrfTxService	;wreg free
  2683   0030A4                     
  2684                           ;../source/usb/usb_device.c: 1474:   pBDTEntryIn[0]->ADR = ((uint16_t)(&CtrlTrfData));
  2685   0030A4  EE20 F002          	lfsr	2,2
  2686   0030A8  5057               	movf	_pBDTEntryIn^0,w,c
  2687   0030AA  26D9               	addwf	fsr2l,f,c
  2688   0030AC  5058               	movf	(_pBDTEntryIn+1)^0,w,c
  2689   0030AE  22DA               	addwfc	fsr2h,f,c
  2690   0030B0  0E28               	movlw	40
  2691   0030B2  6EDE               	movwf	postinc2,c
  2692   0030B4  0E04               	movlw	4
  2693   0030B6  6EDD               	movwf	postdec2,c
  2694   0030B8                     
  2695                           ;../source/usb/usb_device.c: 1475:   pBDTEntryIn[0]->STAT.Val = 0x40|(0x08 & 0x08);
  2696   0030B8  C057  FFD9         	movff	_pBDTEntryIn,fsr2l
  2697   0030BC  C058  FFDA         	movff	_pBDTEntryIn+1,fsr2h
  2698   0030C0  0E48               	movlw	72
  2699   0030C2  6EDF               	movwf	indf2,c
  2700   0030C4                     
  2701                           ;../source/usb/usb_device.c: 1476:         pBDTEntryIn[0]->STAT.Val |= 0x80;
  2702   0030C4  C057  FFD9         	movff	_pBDTEntryIn,fsr2l
  2703   0030C8  C058  FFDA         	movff	_pBDTEntryIn+1,fsr2h
  2704   0030CC  0E00               	movlw	0
  2705   0030CE  8EDB               	bsf	plusw2,7,c
  2706   0030D0                     l205:
  2707   0030D0  0012               	return		;funcret
  2708   0030D2                     __end_of_USBCtrlEPAllowDataStage:
  2709                           	callstack 0
  2710                           
  2711 ;; *************** function _USBCheckStdRequest *****************
  2712 ;; Defined at:
  2713 ;;		line 2649 in file "../source/usb/usb_device.c"
  2714 ;; Parameters:    Size  Location     Type
  2715 ;;		None
  2716 ;; Auto vars:     Size  Location     Type
  2717 ;;		None
  2718 ;; Return value:  Size  Location     Type
  2719 ;;                  1    wreg      void 
  2720 ;; Registers used:
  2721 ;;		wreg, fsr1l, fsr1h, fsr2l, fsr2h, status,2, status,0, tblptrl, tblptrh, tblptru, prodl, prodh, cstack
  2722 ;; Tracked objects:
  2723 ;;		On entry : 0/0
  2724 ;;		On exit  : 0/0
  2725 ;;		Unchanged: 0/0
  2726 ;; Data sizes:     COMRAM   BANK0   BANK1   BANK2   BANK3   BANK4   BANK5   BANK6   BANK7
  2727 ;;      Params:         0       0       0       0       0       0       0       0       0
  2728 ;;      Locals:         0       0       0       0       0       0       0       0       0
  2729 ;;      Temps:          2       0       0       0       0       0       0       0       0
  2730 ;;      Totals:         2       0       0       0       0       0       0       0       0
  2731 ;;Total ram usage:        2 bytes
  2732 ;; Hardware stack levels used: 1
  2733 ;; Hardware stack levels required when called: 6
  2734 ;; This function calls:
  2735 ;;		_USBStdFeatureReqHandler
  2736 ;;		_USBStdGetDscHandler
  2737 ;;		_USBStdGetStatusHandler
  2738 ;;		_USBStdSetCfgHandler
  2739 ;;		_USER_USB_CALLBACK_EVENT_HANDLER
  2740 ;; This function is called by:
  2741 ;;		_USBCtrlTrfSetupHandler
  2742 ;; This function uses a non-reentrant model
  2743 ;;
  2744                           
  2745                           	psect	text12
  2746   002844                     __ptext12:
  2747                           	callstack 0
  2748   002844                     _USBCheckStdRequest:
  2749                           	callstack 21
  2750   002844                     
  2751                           ;../source/usb/usb_device.c: 2651:     if(SetupPkt.RequestType != (0x00>>5)) return;
  2752   002844  0104               	movlb	4	; () banked
  2753   002846  3920               	swapf	32,w,b	;volatile
  2754   002848  32E8               	rrcf	wreg,f,c
  2755   00284A  0B03               	andlw	3
  2756   00284C  0900               	iorlw	0
  2757   00284E  B4D8               	btfsc	status,2,c
  2758   002850  EF2C  F014         	goto	u2941
  2759   002854  EF2E  F014         	goto	u2940
  2760   002858                     u2941:
  2761   002858  EF77  F014         	goto	l3784
  2762   00285C                     u2940:
  2763   00285C  EFB0  F014         	goto	l337
  2764   002860                     l339:
  2765                           
  2766                           ; BSR set to: 4
  2767                           ;../source/usb/usb_device.c: 2656:             inPipes[0].info.bits.busy = 1;
  2768   002860  0100               	movlb	0	; () banked
  2769   002862  8F6B               	bsf	(_inPipes+3)& (0+255),7,b
  2770   002864                     
  2771                           ; BSR set to: 0
  2772                           ;../source/usb/usb_device.c: 2657:             USBDeviceState = ADR_PENDING_STATE;
  2773   002864  0E08               	movlw	8
  2774   002866  6F8B               	movwf	_USBDeviceState& (0+255),b
  2775                           
  2776                           ;../source/usb/usb_device.c: 2659:             break;
  2777   002868  EFB0  F014         	goto	l337
  2778   00286C                     l3754:
  2779                           
  2780                           ; BSR set to: 4
  2781                           ;../source/usb/usb_device.c: 2661:             USBStdGetDscHandler();
  2782   00286C  EC56  F010         	call	_USBStdGetDscHandler	;wreg free
  2783                           
  2784                           ;../source/usb/usb_device.c: 2662:             break;
  2785   002870  EFB0  F014         	goto	l337
  2786   002874                     l3756:
  2787                           
  2788                           ; BSR set to: 4
  2789                           ;../source/usb/usb_device.c: 2664:             USBStdSetCfgHandler();
  2790   002874  EC3D  F017         	call	_USBStdSetCfgHandler	;wreg free
  2791                           
  2792                           ;../source/usb/usb_device.c: 2665:             break;
  2793   002878  EFB0  F014         	goto	l337
  2794   00287C                     l3758:
  2795                           
  2796                           ; BSR set to: 4
  2797                           ;../source/usb/usb_device.c: 2667:             inPipes[0].pSrc.bRam = (uint8_t*)&USBActi
      +                          veConfiguration;
  2798   00287C  0E90               	movlw	low _USBActiveConfiguration
  2799   00287E  0100               	movlb	0	; () banked
  2800   002880  6F68               	movwf	_inPipes& (0+255),b
  2801   002882  0E00               	movlw	high _USBActiveConfiguration
  2802   002884  6F69               	movwf	(_inPipes+1)& (0+255),b
  2803   002886                     l3760:
  2804                           
  2805                           ; BSR set to: 0
  2806                           ;../source/usb/usb_device.c: 2668:             inPipes[0].info.bits.ctrl_trf_mem = 0x01;
  2807   002886  816B               	bsf	(_inPipes+3)& (0+255),0,b
  2808   002888                     
  2809                           ; BSR set to: 0
  2810                           ;../source/usb/usb_device.c: 2669:             inPipes[0].wCount.v[0] = 1;
  2811   002888  0E01               	movlw	1
  2812   00288A  6F6C               	movwf	(_inPipes+4)& (0+255),b
  2813   00288C                     
  2814                           ; BSR set to: 0
  2815                           ;../source/usb/usb_device.c: 2670:             inPipes[0].info.bits.busy = 1;
  2816   00288C  8F6B               	bsf	(_inPipes+3)& (0+255),7,b
  2817                           
  2818                           ;../source/usb/usb_device.c: 2671:             break;
  2819   00288E  EFB0  F014         	goto	l337
  2820   002892                     l3766:
  2821                           
  2822                           ; BSR set to: 4
  2823                           ;../source/usb/usb_device.c: 2673:             USBStdGetStatusHandler();
  2824   002892  EC91  F013         	call	_USBStdGetStatusHandler	;wreg free
  2825                           
  2826                           ;../source/usb/usb_device.c: 2674:             break;
  2827   002896  EFB0  F014         	goto	l337
  2828   00289A                     l3768:
  2829                           
  2830                           ; BSR set to: 4
  2831                           ;../source/usb/usb_device.c: 2677:             USBStdFeatureReqHandler();
  2832   00289A  EC22  F00B         	call	_USBStdFeatureReqHandler	;wreg free
  2833                           
  2834                           ;../source/usb/usb_device.c: 2678:             break;
  2835   00289E  EFB0  F014         	goto	l337
  2836   0028A2                     l3770:
  2837                           
  2838                           ; BSR set to: 4
  2839                           ;../source/usb/usb_device.c: 2680:             inPipes[0].pSrc.bRam = (uint8_t*)&USBAlte
      +                          rnateInterface[SetupPkt.bIntfID];
  2840   0028A2  0E8F               	movlw	low _USBAlternateInterface
  2841   0028A4  2524               	addwf	36,w,b	;volatile
  2842   0028A6  0100               	movlb	0	; () banked
  2843   0028A8  6F68               	movwf	_inPipes& (0+255),b
  2844   0028AA  6B69               	clrf	(_inPipes+1)& (0+255),b
  2845   0028AC  0E00               	movlw	high _USBAlternateInterface
  2846   0028AE  2369               	addwfc	(_inPipes+1)& (0+255),f,b
  2847   0028B0  EF43  F014         	goto	l3760
  2848   0028B4                     l348:
  2849                           
  2850                           ; BSR set to: 4
  2851                           ;../source/usb/usb_device.c: 2686:             inPipes[0].info.bits.busy = 1;
  2852   0028B4  0100               	movlb	0	; () banked
  2853   0028B6  8F6B               	bsf	(_inPipes+3)& (0+255),7,b
  2854   0028B8                     
  2855                           ; BSR set to: 0
  2856                           ;../source/usb/usb_device.c: 2687:             USBAlternateInterface[SetupPkt.bIntfID] =
      +                           SetupPkt.bAltID;
  2857   0028B8  0E8F               	movlw	low _USBAlternateInterface
  2858   0028BA  0104               	movlb	4	; () banked
  2859   0028BC  2524               	addwf	36,w,b	;volatile
  2860   0028BE  6ED9               	movwf	fsr2l,c
  2861   0028C0  6ADA               	clrf	fsr2h,c
  2862   0028C2  0E00               	movlw	high _USBAlternateInterface
  2863   0028C4  22DA               	addwfc	fsr2h,f,c
  2864   0028C6  C422 FFDF          	movff	1058,indf2	;volatile
  2865                           
  2866                           ;../source/usb/usb_device.c: 2688:             break;
  2867   0028CA  EFB0  F014         	goto	l337
  2868   0028CE                     l3780:
  2869                           
  2870                           ; BSR set to: 4
  2871                           ;../source/usb/usb_device.c: 2690:             USER_USB_CALLBACK_EVENT_HANDLER((USB_EVEN
      +                          T)EVENT_SET_DESCRIPTOR,0,0);
  2872   0028CE  0E00               	movlw	0
  2873   0028D0  6E10               	movwf	(USER_USB_CALLBACK_EVENT_HANDLER@event+1)^0,c
  2874   0028D2  0E02               	movlw	2
  2875   0028D4  6E0F               	movwf	USER_USB_CALLBACK_EVENT_HANDLER@event^0,c
  2876   0028D6  0E00               	movlw	0
  2877   0028D8  6E11               	movwf	USER_USB_CALLBACK_EVENT_HANDLER@pdata^0,c
  2878   0028DA  0E00               	movlw	0
  2879   0028DC  6E12               	movwf	(USER_USB_CALLBACK_EVENT_HANDLER@pdata+1)^0,c
  2880   0028DE  0E00               	movlw	0
  2881   0028E0  6E14               	movwf	(USER_USB_CALLBACK_EVENT_HANDLER@size+1)^0,c
  2882   0028E2  0E00               	movlw	0
  2883   0028E4  6E13               	movwf	USER_USB_CALLBACK_EVENT_HANDLER@size^0,c
  2884   0028E6  ECC1  F018         	call	_USER_USB_CALLBACK_EVENT_HANDLER	;wreg free
  2885                           
  2886                           ;../source/usb/usb_device.c: 2691:             break;
  2887   0028EA  EFB0  F014         	goto	l337
  2888   0028EE                     l3784:
  2889                           
  2890                           ; BSR set to: 4
  2891   0028EE  5121               	movf	33,w,b	;volatile
  2892   0028F0  6E1E               	movwf	??_USBCheckStdRequest^0,c
  2893   0028F2  6A1F               	clrf	(??_USBCheckStdRequest+1)^0,c
  2894                           
  2895                           ; Switch on 2 bytes has been partitioned into a top level switch of size 1, and 1 sub-sw
      +                          itches
  2896                           ; Switch size 1, requested type "simple"
  2897                           ; Number of cases is 1, Range of values is 0 to 0
  2898                           ; switch strategies available:
  2899                           ; Name         Instructions Cycles
  2900                           ; simple_byte            4     3 (average)
  2901                           ;	Chosen strategy is simple_byte
  2902   0028F4  501F               	movf	(??_USBCheckStdRequest+1)^0,w,c
  2903   0028F6  0A00               	xorlw	0	; case 0
  2904   0028F8  B4D8               	btfsc	status,2,c
  2905   0028FA  EF81  F014         	goto	l4936
  2906   0028FE  EFB0  F014         	goto	l337
  2907   002902                     l4936:
  2908                           
  2909                           ; BSR set to: 4
  2910                           ; Switch size 1, requested type "simple"
  2911                           ; Number of cases is 11, Range of values is 0 to 12
  2912                           ; switch strategies available:
  2913                           ; Name         Instructions Cycles
  2914                           ; simple_byte           34    18 (average)
  2915                           ;	Chosen strategy is simple_byte
  2916   002902  501E               	movf	??_USBCheckStdRequest^0,w,c
  2917   002904  0A00               	xorlw	0	; case 0
  2918   002906  B4D8               	btfsc	status,2,c
  2919   002908  EF49  F014         	goto	l3766
  2920   00290C  0A01               	xorlw	1	; case 1
  2921   00290E  B4D8               	btfsc	status,2,c
  2922   002910  EF4D  F014         	goto	l3768
  2923   002914  0A02               	xorlw	2	; case 3
  2924   002916  B4D8               	btfsc	status,2,c
  2925   002918  EF4D  F014         	goto	l3768
  2926   00291C  0A06               	xorlw	6	; case 5
  2927   00291E  B4D8               	btfsc	status,2,c
  2928   002920  EF30  F014         	goto	l339
  2929   002924  0A03               	xorlw	3	; case 6
  2930   002926  B4D8               	btfsc	status,2,c
  2931   002928  EF36  F014         	goto	l3754
  2932   00292C  0A01               	xorlw	1	; case 7
  2933   00292E  B4D8               	btfsc	status,2,c
  2934   002930  EF67  F014         	goto	l3780
  2935   002934  0A0F               	xorlw	15	; case 8
  2936   002936  B4D8               	btfsc	status,2,c
  2937   002938  EF3E  F014         	goto	l3758
  2938   00293C  0A01               	xorlw	1	; case 9
  2939   00293E  B4D8               	btfsc	status,2,c
  2940   002940  EF3A  F014         	goto	l3756
  2941   002944  0A03               	xorlw	3	; case 10
  2942   002946  B4D8               	btfsc	status,2,c
  2943   002948  EF51  F014         	goto	l3770
  2944   00294C  0A01               	xorlw	1	; case 11
  2945   00294E  B4D8               	btfsc	status,2,c
  2946   002950  EF5A  F014         	goto	l348
  2947   002954  0A07               	xorlw	7	; case 12
  2948   002956  B4D8               	btfsc	status,2,c
  2949   002958  EFB0  F014         	goto	l337
  2950   00295C  EFB0  F014         	goto	l337
  2951   002960                     l337:
  2952   002960  0012               	return		;funcret
  2953   002962                     __end_of_USBCheckStdRequest:
  2954                           	callstack 0
  2955                           
  2956 ;; *************** function _USBStdSetCfgHandler *****************
  2957 ;; Defined at:
  2958 ;;		line 1928 in file "../source/usb/usb_device.c"
  2959 ;; Parameters:    Size  Location     Type
  2960 ;;		None
  2961 ;; Auto vars:     Size  Location     Type
  2962 ;;  i               1   22[COMRAM] unsigned char 
  2963 ;; Return value:  Size  Location     Type
  2964 ;;                  1    wreg      void 
  2965 ;; Registers used:
  2966 ;;		wreg, fsr2l, fsr2h, status,2, status,0, prodl, prodh, cstack
  2967 ;; Tracked objects:
  2968 ;;		On entry : 0/0
  2969 ;;		On exit  : 0/0
  2970 ;;		Unchanged: 0/0
  2971 ;; Data sizes:     COMRAM   BANK0   BANK1   BANK2   BANK3   BANK4   BANK5   BANK6   BANK7
  2972 ;;      Params:         0       0       0       0       0       0       0       0       0
  2973 ;;      Locals:         1       0       0       0       0       0       0       0       0
  2974 ;;      Temps:          0       0       0       0       0       0       0       0       0
  2975 ;;      Totals:         1       0       0       0       0       0       0       0       0
  2976 ;;Total ram usage:        1 bytes
  2977 ;; Hardware stack levels used: 1
  2978 ;; Hardware stack levels required when called: 5
  2979 ;; This function calls:
  2980 ;;		_USER_USB_CALLBACK_EVENT_HANDLER
  2981 ;;		_memset
  2982 ;; This function is called by:
  2983 ;;		_USBCheckStdRequest
  2984 ;; This function uses a non-reentrant model
  2985 ;;
  2986                           
  2987                           	psect	text13
  2988   002E7A                     __ptext13:
  2989                           	callstack 0
  2990   002E7A                     _USBStdSetCfgHandler:
  2991                           	callstack 21
  2992   002E7A                     
  2993                           ;../source/usb/usb_device.c: 1930:     uint8_t i;;../source/usb/usb_device.c: 1933:     
      +                          inPipes[0].info.bits.busy = 1;
  2994   002E7A  0100               	movlb	0	; () banked
  2995   002E7C  8F6B               	bsf	(_inPipes+3)& (0+255),7,b
  2996   002E7E                     
  2997                           ; BSR set to: 0
  2998                           ;../source/usb/usb_device.c: 1936:     memset((void*)&UEP1,0x00,(1));;
  2999   002E7E  0E71               	movlw	113
  3000   002E80  6E01               	movwf	memset@dest^0,c
  3001   002E82  0E0F               	movlw	15
  3002   002E84  6E02               	movwf	(memset@dest+1)^0,c
  3003   002E86  0E00               	movlw	0
  3004   002E88  6E04               	movwf	(memset@c+1)^0,c
  3005   002E8A  0E00               	movlw	0
  3006   002E8C  6E03               	movwf	memset@c^0,c
  3007   002E8E  0E00               	movlw	0
  3008   002E90  6E06               	movwf	(memset@n+1)^0,c
  3009   002E92  0E01               	movlw	1
  3010   002E94  6E05               	movwf	memset@n^0,c
  3011   002E96  ECE4  F00E         	call	_memset	;wreg free
  3012                           
  3013                           ;../source/usb/usb_device.c: 1939:     memset((void*)&BDT[0], 0x00, sizeof(BDT));
  3014   002E9A  0E00               	movlw	0
  3015   002E9C  6E01               	movwf	memset@dest^0,c
  3016   002E9E  0E04               	movlw	4
  3017   002EA0  6E02               	movwf	(memset@dest+1)^0,c
  3018   002EA2  0E00               	movlw	0
  3019   002EA4  6E04               	movwf	(memset@c+1)^0,c
  3020   002EA6  0E00               	movlw	0
  3021   002EA8  6E03               	movwf	memset@c^0,c
  3022   002EAA  0E00               	movlw	0
  3023   002EAC  6E06               	movwf	(memset@n+1)^0,c
  3024   002EAE  0E20               	movlw	32
  3025   002EB0  6E05               	movwf	memset@n^0,c
  3026   002EB2  ECE4  F00E         	call	_memset	;wreg free
  3027   002EB6                     
  3028                           ;../source/usb/usb_device.c: 1942:     UCONbits.PPBRST = 1;
  3029   002EB6  8C6D               	bsf	109,6,c	;volatile
  3030   002EB8                     
  3031                           ;../source/usb/usb_device.c: 1947:  for(i = 0; i < (uint8_t)(1 +1u); i++)
  3032   002EB8  0E00               	movlw	0
  3033   002EBA  6E17               	movwf	USBStdSetCfgHandler@i^0,c
  3034   002EBC                     l3472:
  3035                           
  3036                           ;../source/usb/usb_device.c: 1948:  {;../source/usb/usb_device.c: 1949:   ep_data_in[i].
      +                          Val = 0u;
  3037   002EBC  0E7A               	movlw	low _ep_data_in
  3038   002EBE  2417               	addwf	USBStdSetCfgHandler@i^0,w,c
  3039   002EC0  6ED9               	movwf	fsr2l,c
  3040   002EC2  6ADA               	clrf	fsr2h,c
  3041   002EC4  0E00               	movlw	high _ep_data_in
  3042   002EC6  22DA               	addwfc	fsr2h,f,c
  3043   002EC8  0E00               	movlw	0
  3044   002ECA  6EDF               	movwf	indf2,c
  3045                           
  3046                           ;../source/usb/usb_device.c: 1950:         ep_data_out[i].Val = 0u;
  3047   002ECC  0E78               	movlw	low _ep_data_out
  3048   002ECE  2417               	addwf	USBStdSetCfgHandler@i^0,w,c
  3049   002ED0  6ED9               	movwf	fsr2l,c
  3050   002ED2  6ADA               	clrf	fsr2h,c
  3051   002ED4  0E00               	movlw	high _ep_data_out
  3052   002ED6  22DA               	addwfc	fsr2h,f,c
  3053   002ED8  0E00               	movlw	0
  3054   002EDA  6EDF               	movwf	indf2,c
  3055   002EDC                     
  3056                           ;../source/usb/usb_device.c: 1951:  }
  3057   002EDC  2A17               	incf	USBStdSetCfgHandler@i^0,f,c
  3058   002EDE  0E01               	movlw	1
  3059   002EE0  6417               	cpfsgt	USBStdSetCfgHandler@i^0,c
  3060   002EE2  EF75  F017         	goto	u2501
  3061   002EE6  EF77  F017         	goto	u2500
  3062   002EEA                     u2501:
  3063   002EEA  EF5E  F017         	goto	l3472
  3064   002EEE                     u2500:
  3065   002EEE                     
  3066                           ;../source/usb/usb_device.c: 1954:     memset((void*)&USBAlternateInterface,0x00,1);
  3067   002EEE  0E8F               	movlw	low _USBAlternateInterface
  3068   002EF0  6E01               	movwf	memset@dest^0,c
  3069   002EF2  0E00               	movlw	high _USBAlternateInterface
  3070   002EF4  6E02               	movwf	(memset@dest+1)^0,c
  3071   002EF6  0E00               	movlw	0
  3072   002EF8  6E04               	movwf	(memset@c+1)^0,c
  3073   002EFA  0E00               	movlw	0
  3074   002EFC  6E03               	movwf	memset@c^0,c
  3075   002EFE  0E00               	movlw	0
  3076   002F00  6E06               	movwf	(memset@n+1)^0,c
  3077   002F02  0E01               	movlw	1
  3078   002F04  6E05               	movwf	memset@n^0,c
  3079   002F06  ECE4  F00E         	call	_memset	;wreg free
  3080   002F0A                     
  3081                           ;../source/usb/usb_device.c: 1957:     UCONbits.PPBRST = 0;
  3082   002F0A  9C6D               	bcf	109,6,c	;volatile
  3083   002F0C                     
  3084                           ;../source/usb/usb_device.c: 1959:     pBDTEntryIn[0] = (volatile BDT_ENTRY*)&BDT[2];
  3085   002F0C  0E08               	movlw	8
  3086   002F0E  6E57               	movwf	_pBDTEntryIn^0,c
  3087   002F10  0E04               	movlw	4
  3088   002F12  6E58               	movwf	(_pBDTEntryIn+1)^0,c
  3089   002F14                     
  3090                           ;../source/usb/usb_device.c: 1962:     pBDTEntryEP0OutCurrent = (volatile BDT_ENTRY*)&BD
      +                          T[0];
  3091   002F14  0E00               	movlw	0
  3092   002F16  6E5D               	movwf	_pBDTEntryEP0OutCurrent^0,c
  3093   002F18  0E04               	movlw	4
  3094   002F1A  6E5E               	movwf	(_pBDTEntryEP0OutCurrent+1)^0,c
  3095   002F1C                     
  3096                           ;../source/usb/usb_device.c: 1963:     pBDTEntryEP0OutNext = pBDTEntryEP0OutCurrent;
  3097   002F1C  C05D  F05B         	movff	_pBDTEntryEP0OutCurrent,_pBDTEntryEP0OutNext
  3098   002F20  C05E  F05C         	movff	_pBDTEntryEP0OutCurrent+1,_pBDTEntryEP0OutNext+1
  3099   002F24                     
  3100                           ;../source/usb/usb_device.c: 1966:     USBActiveConfiguration = SetupPkt.bConfigurationV
      +                          alue;
  3101   002F24  C422 F090          	movff	1058,_USBActiveConfiguration	;volatile
  3102   002F28                     
  3103                           ;../source/usb/usb_device.c: 1969:     if(USBActiveConfiguration == 0)
  3104   002F28  0100               	movlb	0	; () banked
  3105   002F2A  5190               	movf	_USBActiveConfiguration& (0+255),w,b
  3106   002F2C  A4D8               	btfss	status,2,c
  3107   002F2E  EF9B  F017         	goto	u2511
  3108   002F32  EF9D  F017         	goto	u2510
  3109   002F36                     u2511:
  3110   002F36  EFA1  F017         	goto	l3494
  3111   002F3A                     u2510:
  3112   002F3A                     
  3113                           ; BSR set to: 0
  3114                           ;../source/usb/usb_device.c: 1970:     {;../source/usb/usb_device.c: 1972:         USBDe
      +                          viceState = ADDRESS_STATE;
  3115   002F3A  0E10               	movlw	16
  3116   002F3C  6F8B               	movwf	_USBDeviceState& (0+255),b
  3117                           
  3118                           ;../source/usb/usb_device.c: 1973:     }
  3119   002F3E  EFB2  F017         	goto	l258
  3120   002F42                     l3494:
  3121                           
  3122                           ; BSR set to: 0
  3123                           ;../source/usb/usb_device.c: 1975:     {;../source/usb/usb_device.c: 1977:         USER_
      +                          USB_CALLBACK_EVENT_HANDLER((USB_EVENT)EVENT_CONFIGURED,(void*)&USBActiveConfiguration,1)
      +                          ;
  3124   002F42  0E00               	movlw	0
  3125   002F44  6E10               	movwf	(USER_USB_CALLBACK_EVENT_HANDLER@event+1)^0,c
  3126   002F46  0E01               	movlw	1
  3127   002F48  6E0F               	movwf	USER_USB_CALLBACK_EVENT_HANDLER@event^0,c
  3128   002F4A  0E90               	movlw	low _USBActiveConfiguration
  3129   002F4C  6E11               	movwf	USER_USB_CALLBACK_EVENT_HANDLER@pdata^0,c
  3130   002F4E  0E00               	movlw	high _USBActiveConfiguration
  3131   002F50  6E12               	movwf	(USER_USB_CALLBACK_EVENT_HANDLER@pdata+1)^0,c
  3132   002F52  0E00               	movlw	0
  3133   002F54  6E14               	movwf	(USER_USB_CALLBACK_EVENT_HANDLER@size+1)^0,c
  3134   002F56  0E01               	movlw	1
  3135   002F58  6E13               	movwf	USER_USB_CALLBACK_EVENT_HANDLER@size^0,c
  3136   002F5A  ECC1  F018         	call	_USER_USB_CALLBACK_EVENT_HANDLER	;wreg free
  3137   002F5E                     
  3138                           ;../source/usb/usb_device.c: 1982:         USBDeviceState = CONFIGURED_STATE;
  3139   002F5E  0E20               	movlw	32
  3140   002F60  0100               	movlb	0	; () banked
  3141   002F62  6F8B               	movwf	_USBDeviceState& (0+255),b
  3142   002F64                     l258:
  3143                           
  3144                           ; BSR set to: 0
  3145   002F64  0012               	return		;funcret
  3146   002F66                     __end_of_USBStdSetCfgHandler:
  3147                           	callstack 0
  3148                           
  3149 ;; *************** function _memset *****************
  3150 ;; Defined at:
  3151 ;;		line 4 in file "C:\Program Files\Microchip\xc8\v2.40\pic\sources\c99\common\memset.c"
  3152 ;; Parameters:    Size  Location     Type
  3153 ;;  dest            2    0[COMRAM] PTR void 
  3154 ;;		 -> USBAlternateInterface(1), BDT(32), UEP1(1), 
  3155 ;;  c               2    2[COMRAM] int 
  3156 ;;  n               2    4[COMRAM] unsigned int 
  3157 ;; Auto vars:     Size  Location     Type
  3158 ;;  s               2   10[COMRAM] PTR unsigned char 
  3159 ;;		 -> USBAlternateInterface(1), BDT(32), UEP1(1), 
  3160 ;;  k               2    8[COMRAM] unsigned int 
  3161 ;; Return value:  Size  Location     Type
  3162 ;;                  2    0[COMRAM] PTR void 
  3163 ;; Registers used:
  3164 ;;		wreg, fsr2l, fsr2h, status,2, status,0
  3165 ;; Tracked objects:
  3166 ;;		On entry : 0/0
  3167 ;;		On exit  : 0/0
  3168 ;;		Unchanged: 0/0
  3169 ;; Data sizes:     COMRAM   BANK0   BANK1   BANK2   BANK3   BANK4   BANK5   BANK6   BANK7
  3170 ;;      Params:         6       0       0       0       0       0       0       0       0
  3171 ;;      Locals:         4       0       0       0       0       0       0       0       0
  3172 ;;      Temps:          2       0       0       0       0       0       0       0       0
  3173 ;;      Totals:        12       0       0       0       0       0       0       0       0
  3174 ;;Total ram usage:       12 bytes
  3175 ;; Hardware stack levels used: 1
  3176 ;; Hardware stack levels required when called: 1
  3177 ;; This function calls:
  3178 ;;		Nothing
  3179 ;; This function is called by:
  3180 ;;		_USBDeviceInit
  3181 ;;		_USBStdSetCfgHandler
  3182 ;; This function uses a non-reentrant model
  3183 ;;
  3184                           
  3185                           	psect	text14
  3186   001DC8                     __ptext14:
  3187                           	callstack 0
  3188   001DC8                     _memset:
  3189                           	callstack 27
  3190   001DC8  C001  F00B         	movff	memset@dest,memset@s
  3191   001DCC  C002  F00C         	movff	memset@dest+1,memset@s+1
  3192   001DD0  5005               	movf	memset@n^0,w,c
  3193   001DD2  1006               	iorwf	(memset@n+1)^0,w,c
  3194   001DD4  A4D8               	btfss	status,2,c
  3195   001DD6  EFEF  F00E         	goto	u2311
  3196   001DDA  EFF1  F00E         	goto	u2310
  3197   001DDE                     u2311:
  3198   001DDE  EFF3  F00E         	goto	l3310
  3199   001DE2                     u2310:
  3200   001DE2  EF9E  F00F         	goto	l1278
  3201   001DE6                     l3310:
  3202   001DE6  C00B  FFD9         	movff	memset@s,fsr2l
  3203   001DEA  C00C  FFDA         	movff	memset@s+1,fsr2h
  3204   001DEE  C003  FFDF         	movff	memset@c,indf2
  3205   001DF2  5005               	movf	memset@n^0,w,c
  3206   001DF4  240B               	addwf	memset@s^0,w,c
  3207   001DF6  6E07               	movwf	??_memset^0,c
  3208   001DF8  5006               	movf	(memset@n+1)^0,w,c
  3209   001DFA  200C               	addwfc	(memset@s+1)^0,w,c
  3210   001DFC  6E08               	movwf	(??_memset+1)^0,c
  3211   001DFE  0EFF               	movlw	255
  3212   001E00  2407               	addwf	??_memset^0,w,c
  3213   001E02  6ED9               	movwf	fsr2l,c
  3214   001E04  0EFF               	movlw	255
  3215   001E06  2008               	addwfc	(??_memset+1)^0,w,c
  3216   001E08  6EDA               	movwf	fsr2h,c
  3217   001E0A  C003  FFDF         	movff	memset@c,indf2
  3218   001E0E  5006               	movf	(memset@n+1)^0,w,c
  3219   001E10  E107               	bnz	u2321
  3220   001E12  0E03               	movlw	3
  3221   001E14  5C05               	subwf	memset@n^0,w,c
  3222   001E16  B0D8               	btfsc	status,0,c
  3223   001E18  EF10  F00F         	goto	u2321
  3224   001E1C  EF12  F00F         	goto	u2320
  3225   001E20                     u2321:
  3226   001E20  EF14  F00F         	goto	l3316
  3227   001E24                     u2320:
  3228   001E24  EF9E  F00F         	goto	l1278
  3229   001E28                     l3316:
  3230   001E28  EE20 F001          	lfsr	2,1
  3231   001E2C  500B               	movf	memset@s^0,w,c
  3232   001E2E  26D9               	addwf	fsr2l,f,c
  3233   001E30  500C               	movf	(memset@s+1)^0,w,c
  3234   001E32  22DA               	addwfc	fsr2h,f,c
  3235   001E34  C003  FFDF         	movff	memset@c,indf2
  3236   001E38  EE20 F002          	lfsr	2,2
  3237   001E3C  500B               	movf	memset@s^0,w,c
  3238   001E3E  26D9               	addwf	fsr2l,f,c
  3239   001E40  500C               	movf	(memset@s+1)^0,w,c
  3240   001E42  22DA               	addwfc	fsr2h,f,c
  3241   001E44  C003  FFDF         	movff	memset@c,indf2
  3242   001E48  5005               	movf	memset@n^0,w,c
  3243   001E4A  240B               	addwf	memset@s^0,w,c
  3244   001E4C  6E07               	movwf	??_memset^0,c
  3245   001E4E  5006               	movf	(memset@n+1)^0,w,c
  3246   001E50  200C               	addwfc	(memset@s+1)^0,w,c
  3247   001E52  6E08               	movwf	(??_memset+1)^0,c
  3248   001E54  0EFE               	movlw	254
  3249   001E56  2407               	addwf	??_memset^0,w,c
  3250   001E58  6ED9               	movwf	fsr2l,c
  3251   001E5A  0EFF               	movlw	255
  3252   001E5C  2008               	addwfc	(??_memset+1)^0,w,c
  3253   001E5E  6EDA               	movwf	fsr2h,c
  3254   001E60  C003  FFDF         	movff	memset@c,indf2
  3255   001E64  5005               	movf	memset@n^0,w,c
  3256   001E66  240B               	addwf	memset@s^0,w,c
  3257   001E68  6E07               	movwf	??_memset^0,c
  3258   001E6A  5006               	movf	(memset@n+1)^0,w,c
  3259   001E6C  200C               	addwfc	(memset@s+1)^0,w,c
  3260   001E6E  6E08               	movwf	(??_memset+1)^0,c
  3261   001E70  0EFD               	movlw	253
  3262   001E72  2407               	addwf	??_memset^0,w,c
  3263   001E74  6ED9               	movwf	fsr2l,c
  3264   001E76  0EFF               	movlw	255
  3265   001E78  2008               	addwfc	(??_memset+1)^0,w,c
  3266   001E7A  6EDA               	movwf	fsr2h,c
  3267   001E7C  C003  FFDF         	movff	memset@c,indf2
  3268   001E80  5006               	movf	(memset@n+1)^0,w,c
  3269   001E82  E107               	bnz	u2331
  3270   001E84  0E07               	movlw	7
  3271   001E86  5C05               	subwf	memset@n^0,w,c
  3272   001E88  B0D8               	btfsc	status,0,c
  3273   001E8A  EF49  F00F         	goto	u2331
  3274   001E8E  EF4B  F00F         	goto	u2330
  3275   001E92                     u2331:
  3276   001E92  EF4D  F00F         	goto	l3322
  3277   001E96                     u2330:
  3278   001E96  EF9E  F00F         	goto	l1278
  3279   001E9A                     l3322:
  3280   001E9A  EE20 F003          	lfsr	2,3
  3281   001E9E  500B               	movf	memset@s^0,w,c
  3282   001EA0  26D9               	addwf	fsr2l,f,c
  3283   001EA2  500C               	movf	(memset@s+1)^0,w,c
  3284   001EA4  22DA               	addwfc	fsr2h,f,c
  3285   001EA6  C003  FFDF         	movff	memset@c,indf2
  3286   001EAA  5005               	movf	memset@n^0,w,c
  3287   001EAC  240B               	addwf	memset@s^0,w,c
  3288   001EAE  6E07               	movwf	??_memset^0,c
  3289   001EB0  5006               	movf	(memset@n+1)^0,w,c
  3290   001EB2  200C               	addwfc	(memset@s+1)^0,w,c
  3291   001EB4  6E08               	movwf	(??_memset+1)^0,c
  3292   001EB6  0EFC               	movlw	252
  3293   001EB8  2407               	addwf	??_memset^0,w,c
  3294   001EBA  6ED9               	movwf	fsr2l,c
  3295   001EBC  0EFF               	movlw	255
  3296   001EBE  2008               	addwfc	(??_memset+1)^0,w,c
  3297   001EC0  6EDA               	movwf	fsr2h,c
  3298   001EC2  C003  FFDF         	movff	memset@c,indf2
  3299   001EC6  5006               	movf	(memset@n+1)^0,w,c
  3300   001EC8  E107               	bnz	u2341
  3301   001ECA  0E09               	movlw	9
  3302   001ECC  5C05               	subwf	memset@n^0,w,c
  3303   001ECE  B0D8               	btfsc	status,0,c
  3304   001ED0  EF6C  F00F         	goto	u2341
  3305   001ED4  EF6E  F00F         	goto	u2340
  3306   001ED8                     u2341:
  3307   001ED8  EF70  F00F         	goto	l3328
  3308   001EDC                     u2340:
  3309   001EDC  EF9E  F00F         	goto	l1278
  3310   001EE0                     l3328:
  3311   001EE0  C00B  F007         	movff	memset@s,??_memset
  3312   001EE4  C00C  F008         	movff	memset@s+1,??_memset+1
  3313   001EE8  1E07               	comf	??_memset^0,f,c
  3314   001EEA  1E08               	comf	(??_memset+1)^0,f,c
  3315   001EEC  4A07               	infsnz	??_memset^0,f,c
  3316   001EEE  2A08               	incf	(??_memset+1)^0,f,c
  3317   001EF0  0E03               	movlw	3
  3318   001EF2  1407               	andwf	??_memset^0,w,c
  3319   001EF4  6E09               	movwf	memset@k^0,c
  3320   001EF6  6A0A               	clrf	(memset@k+1)^0,c
  3321   001EF8  5009               	movf	memset@k^0,w,c
  3322   001EFA  260B               	addwf	memset@s^0,f,c
  3323   001EFC  500A               	movf	(memset@k+1)^0,w,c
  3324   001EFE  220C               	addwfc	(memset@s+1)^0,f,c
  3325   001F00  5009               	movf	memset@k^0,w,c
  3326   001F02  5E05               	subwf	memset@n^0,f,c
  3327   001F04  500A               	movf	(memset@k+1)^0,w,c
  3328   001F06  5A06               	subwfb	(memset@n+1)^0,f,c
  3329   001F08  0EFC               	movlw	252
  3330   001F0A  1605               	andwf	memset@n^0,f,c
  3331   001F0C  0EFF               	movlw	255
  3332   001F0E  1606               	andwf	(memset@n+1)^0,f,c
  3333   001F10  EF95  F00F         	goto	l3336
  3334   001F14                     l3330:
  3335   001F14  C00B  FFD9         	movff	memset@s,fsr2l
  3336   001F18  C00C  FFDA         	movff	memset@s+1,fsr2h
  3337   001F1C  C003  FFDF         	movff	memset@c,indf2
  3338   001F20  0605               	decf	memset@n^0,f,c
  3339   001F22  A0D8               	btfss	status,0,c
  3340   001F24  0606               	decf	(memset@n+1)^0,f,c
  3341   001F26  4A0B               	infsnz	memset@s^0,f,c
  3342   001F28  2A0C               	incf	(memset@s+1)^0,f,c
  3343   001F2A                     l3336:
  3344   001F2A  5005               	movf	memset@n^0,w,c
  3345   001F2C  1006               	iorwf	(memset@n+1)^0,w,c
  3346   001F2E  A4D8               	btfss	status,2,c
  3347   001F30  EF9C  F00F         	goto	u2351
  3348   001F34  EF9E  F00F         	goto	u2350
  3349   001F38                     u2351:
  3350   001F38  EF8A  F00F         	goto	l3330
  3351   001F3C                     u2350:
  3352   001F3C                     l1278:
  3353   001F3C  0012               	return		;funcret
  3354   001F3E                     __end_of_memset:
  3355                           	callstack 0
  3356                           
  3357 ;; *************** function _USBStdGetStatusHandler *****************
  3358 ;; Defined at:
  3359 ;;		line 2089 in file "../source/usb/usb_device.c"
  3360 ;; Parameters:    Size  Location     Type
  3361 ;;		None
  3362 ;; Auto vars:     Size  Location     Type
  3363 ;;  p               2    2[COMRAM] PTR struct __BDT
  3364 ;;		 -> RAM(2047), NULL(0), BDT(32), 
  3365 ;; Return value:  Size  Location     Type
  3366 ;;                  1    wreg      void 
  3367 ;; Registers used:
  3368 ;;		wreg, fsr2l, fsr2h, status,2, status,0, prodl, prodh
  3369 ;; Tracked objects:
  3370 ;;		On entry : 0/0
  3371 ;;		On exit  : 0/0
  3372 ;;		Unchanged: 0/0
  3373 ;; Data sizes:     COMRAM   BANK0   BANK1   BANK2   BANK3   BANK4   BANK5   BANK6   BANK7
  3374 ;;      Params:         0       0       0       0       0       0       0       0       0
  3375 ;;      Locals:         2       0       0       0       0       0       0       0       0
  3376 ;;      Temps:          2       0       0       0       0       0       0       0       0
  3377 ;;      Totals:         4       0       0       0       0       0       0       0       0
  3378 ;;Total ram usage:        4 bytes
  3379 ;; Hardware stack levels used: 1
  3380 ;; Hardware stack levels required when called: 1
  3381 ;; This function calls:
  3382 ;;		Nothing
  3383 ;; This function is called by:
  3384 ;;		_USBCheckStdRequest
  3385 ;; This function uses a non-reentrant model
  3386 ;;
  3387                           
  3388                           	psect	text15
  3389   002722                     __ptext15:
  3390                           	callstack 0
  3391   002722                     _USBStdGetStatusHandler:
  3392                           	callstack 25
  3393   002722                     
  3394                           ;../source/usb/usb_device.c: 2091:     CtrlTrfData[0] = 0;
  3395   002722  0E00               	movlw	0
  3396   002724  0104               	movlb	4	; () banked
  3397   002726  6F28               	movwf	40,b	;volatile
  3398                           
  3399                           ;../source/usb/usb_device.c: 2092:     CtrlTrfData[1] = 0;
  3400   002728  0E00               	movlw	0
  3401   00272A  6F29               	movwf	41,b	;volatile
  3402                           
  3403                           ;../source/usb/usb_device.c: 2094:     switch(SetupPkt.Recipient)
  3404   00272C  EFF8  F013         	goto	l3558
  3405   002730                     l276:
  3406                           
  3407                           ; BSR set to: 4
  3408                           ;../source/usb/usb_device.c: 2097:             inPipes[0].info.bits.busy = 1;
  3409   002730  0100               	movlb	0	; () banked
  3410   002732  8F6B               	bsf	(_inPipes+3)& (0+255),7,b
  3411   002734                     
  3412                           ; BSR set to: 0
  3413                           ;../source/usb/usb_device.c: 2107:             if(RemoteWakeup == 1)
  3414   002734  0588               	decf	_RemoteWakeup& (0+255),w,b
  3415   002736  A4D8               	btfss	status,2,c
  3416   002738  EFA0  F013         	goto	u2581
  3417   00273C  EFA2  F013         	goto	u2580
  3418   002740                     u2581:
  3419   002740  EF12  F014         	goto	l279
  3420   002744                     u2580:
  3421   002744                     
  3422                           ; BSR set to: 0
  3423                           ;../source/usb/usb_device.c: 2108:             {;../source/usb/usb_device.c: 2109:      
      +                                     CtrlTrfData[0]|=0x02;
  3424   002744  0104               	movlb	4	; () banked
  3425   002746  8328               	bsf	40,1,b	;volatile
  3426   002748  EF12  F014         	goto	l279
  3427   00274C                     l280:
  3428                           
  3429                           ; BSR set to: 4
  3430                           ;../source/usb/usb_device.c: 2113:             inPipes[0].info.bits.busy = 1;
  3431   00274C  0100               	movlb	0	; () banked
  3432   00274E  8F6B               	bsf	(_inPipes+3)& (0+255),7,b
  3433                           
  3434                           ;../source/usb/usb_device.c: 2114:             break;
  3435   002750  EF12  F014         	goto	l279
  3436   002754                     l281:
  3437                           
  3438                           ; BSR set to: 4
  3439                           ;../source/usb/usb_device.c: 2116:             inPipes[0].info.bits.busy = 1;
  3440   002754  0100               	movlb	0	; () banked
  3441   002756  8F6B               	bsf	(_inPipes+3)& (0+255),7,b
  3442   002758                     
  3443                           ; BSR set to: 0
  3444                           ;../source/usb/usb_device.c: 2120:             if(SetupPkt.EPNum != 0)
  3445   002758  0104               	movlb	4	; () banked
  3446   00275A  5124               	movf	36,w,b	;volatile
  3447   00275C  0B0F               	andlw	15
  3448   00275E  0900               	iorlw	0
  3449   002760  B4D8               	btfsc	status,2,c
  3450   002762  EFB5  F013         	goto	u2591
  3451   002766  EFB7  F013         	goto	u2590
  3452   00276A                     u2591:
  3453   00276A  EF12  F014         	goto	l279
  3454   00276E                     u2590:
  3455   00276E                     
  3456                           ; BSR set to: 4
  3457                           ;../source/usb/usb_device.c: 2121:             {;../source/usb/usb_device.c: 2122:      
      +                                     BDT_ENTRY *p;;../source/usb/usb_device.c: 2124:                 if(SetupPkt.E
      +                          PDir == 0)
  3458   00276E  BF24               	btfsc	36,7,b	;volatile
  3459   002770  EFBC  F013         	goto	u2601
  3460   002774  EFBE  F013         	goto	u2600
  3461   002778                     u2601:
  3462   002778  EFCF  F013         	goto	l3548
  3463   00277C                     u2600:
  3464   00277C                     
  3465                           ; BSR set to: 4
  3466                           ;../source/usb/usb_device.c: 2125:                 {;../source/usb/usb_device.c: 2126:  
      +                                             p = (BDT_ENTRY*)pBDTEntryOut[SetupPkt.EPNum];
  3467   00277C  5124               	movf	36,w,b	;volatile
  3468   00277E  0B0F               	andlw	15
  3469   002780  6E01               	movwf	??_USBStdGetStatusHandler^0,c
  3470   002782  5001               	movf	??_USBStdGetStatusHandler^0,w,c
  3471   002784  0D02               	mullw	2
  3472   002786  0E72               	movlw	low _pBDTEntryOut
  3473   002788  24F3               	addwf	243,w,c
  3474   00278A  6ED9               	movwf	fsr2l,c
  3475   00278C  0E00               	movlw	high _pBDTEntryOut
  3476   00278E  20F4               	addwfc	prodh,w,c
  3477   002790  6EDA               	movwf	fsr2h,c
  3478   002792  CFDE F003          	movff	postinc2,USBStdGetStatusHandler@p
  3479   002796  CFDD F004          	movff	postdec2,USBStdGetStatusHandler@p+1
  3480                           
  3481                           ;../source/usb/usb_device.c: 2127:                 }
  3482   00279A  EFDE  F013         	goto	l3550
  3483   00279E                     l3548:
  3484                           
  3485                           ; BSR set to: 4
  3486                           ;../source/usb/usb_device.c: 2129:                 {;../source/usb/usb_device.c: 2130:  
      +                                             p = (BDT_ENTRY*)pBDTEntryIn[SetupPkt.EPNum];
  3487   00279E  5124               	movf	36,w,b	;volatile
  3488   0027A0  0B0F               	andlw	15
  3489   0027A2  6E01               	movwf	??_USBStdGetStatusHandler^0,c
  3490   0027A4  5001               	movf	??_USBStdGetStatusHandler^0,w,c
  3491   0027A6  0D02               	mullw	2
  3492   0027A8  0E57               	movlw	low _pBDTEntryIn
  3493   0027AA  24F3               	addwf	243,w,c
  3494   0027AC  6ED9               	movwf	fsr2l,c
  3495   0027AE  0E00               	movlw	high _pBDTEntryIn
  3496   0027B0  20F4               	addwfc	prodh,w,c
  3497   0027B2  6EDA               	movwf	fsr2h,c
  3498   0027B4  CFDE F003          	movff	postinc2,USBStdGetStatusHandler@p
  3499   0027B8  CFDD F004          	movff	postdec2,USBStdGetStatusHandler@p+1
  3500   0027BC                     l3550:
  3501                           
  3502                           ; BSR set to: 4
  3503                           ;../source/usb/usb_device.c: 2133:                 if((p->STAT.UOWN == 1) && (p->STAT.BS
      +                          TALL == 1))
  3504   0027BC  C003  FFD9         	movff	USBStdGetStatusHandler@p,fsr2l
  3505   0027C0  C004  FFDA         	movff	USBStdGetStatusHandler@p+1,fsr2h
  3506   0027C4  AEDF               	btfss	indf2,7,c
  3507   0027C6  EFE7  F013         	goto	u2611
  3508   0027CA  EFE9  F013         	goto	u2610
  3509   0027CE                     u2611:
  3510   0027CE  EF12  F014         	goto	l279
  3511   0027D2                     u2610:
  3512   0027D2                     
  3513                           ; BSR set to: 4
  3514   0027D2  C003  FFD9         	movff	USBStdGetStatusHandler@p,fsr2l
  3515   0027D6  C004  FFDA         	movff	USBStdGetStatusHandler@p+1,fsr2h
  3516   0027DA  A4DF               	btfss	indf2,2,c
  3517   0027DC  EFF2  F013         	goto	u2621
  3518   0027E0  EFF4  F013         	goto	u2620
  3519   0027E4                     u2621:
  3520   0027E4  EF12  F014         	goto	l279
  3521   0027E8                     u2620:
  3522   0027E8                     
  3523                           ; BSR set to: 4
  3524                           ;../source/usb/usb_device.c: 2134:                 {;../source/usb/usb_device.c: 2135:  
      +                                             CtrlTrfData[0]=0x01;
  3525   0027E8  0E01               	movlw	1
  3526   0027EA  6F28               	movwf	40,b	;volatile
  3527   0027EC  EF12  F014         	goto	l279
  3528   0027F0                     l3558:
  3529                           
  3530                           ; BSR set to: 4
  3531   0027F0  5120               	movf	32,w,b	;volatile
  3532   0027F2  0B1F               	andlw	31
  3533   0027F4  6E01               	movwf	??_USBStdGetStatusHandler^0,c
  3534   0027F6  6A02               	clrf	(??_USBStdGetStatusHandler+1)^0,c
  3535                           
  3536                           ; Switch on 2 bytes has been partitioned into a top level switch of size 1, and 1 sub-sw
      +                          itches
  3537                           ; Switch size 1, requested type "simple"
  3538                           ; Number of cases is 1, Range of values is 0 to 0
  3539                           ; switch strategies available:
  3540                           ; Name         Instructions Cycles
  3541                           ; simple_byte            4     3 (average)
  3542                           ;	Chosen strategy is simple_byte
  3543   0027F8  5002               	movf	(??_USBStdGetStatusHandler+1)^0,w,c
  3544   0027FA  0A00               	xorlw	0	; case 0
  3545   0027FC  B4D8               	btfsc	status,2,c
  3546   0027FE  EF03  F014         	goto	l4938
  3547   002802  EF12  F014         	goto	l279
  3548   002806                     l4938:
  3549                           
  3550                           ; BSR set to: 4
  3551                           ; Switch size 1, requested type "simple"
  3552                           ; Number of cases is 3, Range of values is 0 to 2
  3553                           ; switch strategies available:
  3554                           ; Name         Instructions Cycles
  3555                           ; simple_byte           10     6 (average)
  3556                           ;	Chosen strategy is simple_byte
  3557   002806  5001               	movf	??_USBStdGetStatusHandler^0,w,c
  3558   002808  0A00               	xorlw	0	; case 0
  3559   00280A  B4D8               	btfsc	status,2,c
  3560   00280C  EF98  F013         	goto	l276
  3561   002810  0A01               	xorlw	1	; case 1
  3562   002812  B4D8               	btfsc	status,2,c
  3563   002814  EFA6  F013         	goto	l280
  3564   002818  0A03               	xorlw	3	; case 2
  3565   00281A  B4D8               	btfsc	status,2,c
  3566   00281C  EFAA  F013         	goto	l281
  3567   002820  EF12  F014         	goto	l279
  3568   002824                     l279:
  3569                           
  3570                           ;../source/usb/usb_device.c: 2141:     if(inPipes[0].info.bits.busy == 1)
  3571   002824  0100               	movlb	0	; () banked
  3572   002826  AF6B               	btfss	(_inPipes+3)& (0+255),7,b
  3573   002828  EF18  F014         	goto	u2631
  3574   00282C  EF1A  F014         	goto	u2630
  3575   002830                     u2631:
  3576   002830  EF21  F014         	goto	l287
  3577   002834                     u2630:
  3578   002834                     
  3579                           ; BSR set to: 0
  3580                           ;../source/usb/usb_device.c: 2142:     {;../source/usb/usb_device.c: 2143:         inPip
      +                          es[0].pSrc.bRam = (uint8_t*)&CtrlTrfData;
  3581   002834  0E28               	movlw	40
  3582   002836  6F68               	movwf	_inPipes& (0+255),b
  3583   002838  0E04               	movlw	4
  3584   00283A  6F69               	movwf	(_inPipes+1)& (0+255),b
  3585   00283C                     
  3586                           ; BSR set to: 0
  3587                           ;../source/usb/usb_device.c: 2144:         inPipes[0].info.bits.ctrl_trf_mem = 0x01;
  3588   00283C  816B               	bsf	(_inPipes+3)& (0+255),0,b
  3589   00283E                     
  3590                           ; BSR set to: 0
  3591                           ;../source/usb/usb_device.c: 2145:         inPipes[0].wCount.v[0] = 2;
  3592   00283E  0E02               	movlw	2
  3593   002840  6F6C               	movwf	(_inPipes+4)& (0+255),b
  3594   002842                     l287:
  3595                           
  3596                           ; BSR set to: 0
  3597   002842  0012               	return		;funcret
  3598   002844                     __end_of_USBStdGetStatusHandler:
  3599                           	callstack 0
  3600                           
  3601 ;; *************** function _USBStdGetDscHandler *****************
  3602 ;; Defined at:
  3603 ;;		line 2003 in file "../source/usb/usb_device.c"
  3604 ;; Parameters:    Size  Location     Type
  3605 ;;		None
  3606 ;; Auto vars:     Size  Location     Type
  3607 ;;		None
  3608 ;; Return value:  Size  Location     Type
  3609 ;;                  1    wreg      void 
  3610 ;; Registers used:
  3611 ;;		wreg, fsr1l, fsr1h, status,2, status,0, tblptrl, tblptrh, tblptru, prodl, prodh
  3612 ;; Tracked objects:
  3613 ;;		On entry : 0/0
  3614 ;;		On exit  : 0/0
  3615 ;;		Unchanged: 0/0
  3616 ;; Data sizes:     COMRAM   BANK0   BANK1   BANK2   BANK3   BANK4   BANK5   BANK6   BANK7
  3617 ;;      Params:         0       0       0       0       0       0       0       0       0
  3618 ;;      Locals:         0       0       0       0       0       0       0       0       0
  3619 ;;      Temps:          2       0       0       0       0       0       0       0       0
  3620 ;;      Totals:         2       0       0       0       0       0       0       0       0
  3621 ;;Total ram usage:        2 bytes
  3622 ;; Hardware stack levels used: 1
  3623 ;; Hardware stack levels required when called: 1
  3624 ;; This function calls:
  3625 ;;		Nothing
  3626 ;; This function is called by:
  3627 ;;		_USBCheckStdRequest
  3628 ;; This function uses a non-reentrant model
  3629 ;;
  3630                           
  3631                           	psect	text16
  3632   0020AC                     __ptext16:
  3633                           	callstack 0
  3634   0020AC                     _USBStdGetDscHandler:
  3635                           	callstack 25
  3636   0020AC                     
  3637                           ;../source/usb/usb_device.c: 2005:     if(SetupPkt.bmRequestType == 0x80)
  3638   0020AC  0E80               	movlw	128
  3639   0020AE  0104               	movlb	4	; () banked
  3640   0020B0  1920               	xorwf	32,w,b	;volatile
  3641   0020B2  A4D8               	btfss	status,2,c
  3642   0020B4  EF5E  F010         	goto	u2521
  3643   0020B8  EF60  F010         	goto	u2520
  3644   0020BC                     u2521:
  3645   0020BC  EF05  F011         	goto	l272
  3646   0020C0                     u2520:
  3647   0020C0                     
  3648                           ; BSR set to: 4
  3649                           ;../source/usb/usb_device.c: 2006:     {;../source/usb/usb_device.c: 2007:         inPip
      +                          es[0].info.Val = 0x00 | 0x80 | 0x40;
  3650   0020C0  0EC0               	movlw	192
  3651   0020C2  0100               	movlb	0	; () banked
  3652   0020C4  6F6B               	movwf	(_inPipes+3)& (0+255),b
  3653                           
  3654                           ;../source/usb/usb_device.c: 2009:         switch(SetupPkt.bDescriptorType)
  3655   0020C6  EFEB  F010         	goto	l3528
  3656   0020CA                     l3502:
  3657                           
  3658                           ; BSR set to: 4
  3659                           ;../source/usb/usb_device.c: 2015:                     inPipes[0].pSrc.bRom = (const uin
      +                          t8_t*)&device_dsc;
  3660   0020CA  0E90               	movlw	low _device_dsc
  3661   0020CC  0100               	movlb	0	; () banked
  3662   0020CE  6F68               	movwf	_inPipes& (0+255),b
  3663   0020D0  0E08               	movlw	high _device_dsc
  3664   0020D2  6F69               	movwf	(_inPipes+1)& (0+255),b
  3665   0020D4                     
  3666                           ; BSR set to: 0
  3667                           ;../source/usb/usb_device.c: 2017:                 inPipes[0].wCount.Val = sizeof(device
      +                          _dsc);
  3668   0020D4  0E00               	movlw	0
  3669   0020D6  6F6D               	movwf	(_inPipes+5)& (0+255),b
  3670   0020D8  0E12               	movlw	18
  3671   0020DA  6F6C               	movwf	(_inPipes+4)& (0+255),b
  3672                           
  3673                           ;../source/usb/usb_device.c: 2018:                 break;
  3674   0020DC  EF05  F011         	goto	l272
  3675   0020E0                     l3506:
  3676                           
  3677                           ; BSR set to: 4
  3678                           ;../source/usb/usb_device.c: 2023:                 if(SetupPkt.bDscIndex < 1)
  3679   0020E0  5122               	movf	34,w,b	;volatile
  3680   0020E2  A4D8               	btfss	status,2,c
  3681   0020E4  EF76  F010         	goto	u2531
  3682   0020E8  EF78  F010         	goto	u2530
  3683   0020EC                     u2531:
  3684   0020EC  EFB9  F010         	goto	l3514
  3685   0020F0                     u2530:
  3686   0020F0                     
  3687                           ; BSR set to: 4
  3688                           ;../source/usb/usb_device.c: 2024:                 {;../source/usb/usb_device.c: 2028:  
      +                                                 inPipes[0].pSrc.bRom = *(USB_CD_Ptr+SetupPkt.bDscIndex);
  3689   0020F0  5122               	movf	34,w,b	;volatile
  3690   0020F2  0D02               	mullw	2
  3691   0020F4  0E07               	movlw	low _USB_CD_Ptr
  3692   0020F6  24F3               	addwf	243,w,c
  3693   0020F8  6EF6               	movwf	tblptrl,c
  3694   0020FA  0E08               	movlw	high _USB_CD_Ptr
  3695   0020FC  20F4               	addwfc	244,w,c
  3696   0020FE  6EF7               	movwf	tblptrh,c
  3697   002100                     	if	0	;There are less than 3 active tblptr bytes
  3698   002100                     	endif
  3699   002100  0009               	tblrd		*+
  3700   002102  CFF5 F068          	movff	tablat,_inPipes
  3701   002106  000A               	tblrd		*-
  3702   002108  CFF5 F069          	movff	tablat,_inPipes+1
  3703   00210C                     
  3704                           ; BSR set to: 4
  3705                           ;../source/usb/usb_device.c: 2034:                     inPipes[0].wCount.byte.LB = *(inP
      +                          ipes[0].pSrc.bRom+2);
  3706   00210C  0E02               	movlw	2
  3707   00210E  0100               	movlb	0	; () banked
  3708   002110  2568               	addwf	_inPipes& (0+255),w,b
  3709   002112  6E01               	movwf	??_USBStdGetDscHandler^0,c
  3710   002114  0E00               	movlw	0
  3711   002116  2169               	addwfc	(_inPipes+1)& (0+255),w,b
  3712   002118  6E02               	movwf	(??_USBStdGetDscHandler+1)^0,c
  3713   00211A  C001  FFF6         	movff	??_USBStdGetDscHandler,tblptrl
  3714   00211E  C002  FFF7         	movff	??_USBStdGetDscHandler+1,tblptrh
  3715   002122  6AF8               	clrf	tblptru,c
  3716   002124  0E07               	movlw	(high __ramtop+-1)
  3717   002126  64F7               	cpfsgt	tblptrh,c
  3718   002128  D003               	bra	u2547
  3719   00212A  0008               	tblrd		*
  3720   00212C  50F5               	movf	tablat,w,c
  3721   00212E  D005               	bra	u2540
  3722   002130                     u2547:
  3723   002130  CFF6 FFE1          	movff	tblptrl,fsr1l
  3724   002134  CFF7 FFE2          	movff	tblptrh,fsr1h
  3725   002138  50E7               	movf	indf1,w,c
  3726   00213A                     u2540:
  3727   00213A  0100               	movlb	0	; () banked
  3728   00213C  6F6C               	movwf	(_inPipes+4)& (0+255),b
  3729   00213E                     
  3730                           ; BSR set to: 0
  3731                           ;../source/usb/usb_device.c: 2035:                     inPipes[0].wCount.byte.HB = *(inP
      +                          ipes[0].pSrc.bRom+3);
  3732   00213E  0E03               	movlw	3
  3733   002140  2568               	addwf	_inPipes& (0+255),w,b
  3734   002142  6E01               	movwf	??_USBStdGetDscHandler^0,c
  3735   002144  0E00               	movlw	0
  3736   002146  2169               	addwfc	(_inPipes+1)& (0+255),w,b
  3737   002148  6E02               	movwf	(??_USBStdGetDscHandler+1)^0,c
  3738   00214A  C001  FFF6         	movff	??_USBStdGetDscHandler,tblptrl
  3739   00214E  C002  FFF7         	movff	??_USBStdGetDscHandler+1,tblptrh
  3740   002152  6AF8               	clrf	tblptru,c
  3741   002154  0E07               	movlw	(high __ramtop+-1)
  3742   002156  64F7               	cpfsgt	tblptrh,c
  3743   002158  D003               	bra	u2557
  3744   00215A  0008               	tblrd		*
  3745   00215C  50F5               	movf	tablat,w,c
  3746   00215E  D005               	bra	u2550
  3747   002160                     u2557:
  3748   002160  CFF6 FFE1          	movff	tblptrl,fsr1l
  3749   002164  CFF7 FFE2          	movff	tblptrh,fsr1h
  3750   002168  50E7               	movf	indf1,w,c
  3751   00216A                     u2550:
  3752   00216A  0100               	movlb	0	; () banked
  3753   00216C  6F6D               	movwf	(_inPipes+5)& (0+255),b
  3754                           
  3755                           ;../source/usb/usb_device.c: 2036:                 }
  3756   00216E  EF05  F011         	goto	l272
  3757   002172                     l3514:
  3758                           
  3759                           ; BSR set to: 4
  3760                           ;../source/usb/usb_device.c: 2038:     {;../source/usb/usb_device.c: 2039:      inPipes[
      +                          0].info.Val = 0;
  3761   002172  0E00               	movlw	0
  3762   002174  0100               	movlb	0	; () banked
  3763   002176  6F6B               	movwf	(_inPipes+3)& (0+255),b
  3764   002178  EF05  F011         	goto	l272
  3765   00217C                     l3516:
  3766                           
  3767                           ; BSR set to: 4
  3768                           ;../source/usb/usb_device.c: 2046:                 if(SetupPkt.bDscIndex<3)
  3769   00217C  0E03               	movlw	3
  3770   00217E  6122               	cpfslt	34,b	;volatile
  3771   002180  EFC4  F010         	goto	u2561
  3772   002184  EFC6  F010         	goto	u2560
  3773   002188                     u2561:
  3774   002188  EFB9  F010         	goto	l3514
  3775   00218C                     u2560:
  3776   00218C                     
  3777                           ; BSR set to: 4
  3778                           ;../source/usb/usb_device.c: 2047:                 {;../source/usb/usb_device.c: 2049:  
      +                                             inPipes[0].pSrc.bRom = *(USB_SD_Ptr+SetupPkt.bDscIndex);
  3779   00218C  5122               	movf	34,w,b	;volatile
  3780   00218E  0D02               	mullw	2
  3781   002190  0E01               	movlw	low _USB_SD_Ptr
  3782   002192  24F3               	addwf	243,w,c
  3783   002194  6EF6               	movwf	tblptrl,c
  3784   002196  0E08               	movlw	high _USB_SD_Ptr
  3785   002198  20F4               	addwfc	244,w,c
  3786   00219A  6EF7               	movwf	tblptrh,c
  3787   00219C                     	if	0	;There are less than 3 active tblptr bytes
  3788   00219C                     	endif
  3789   00219C  0009               	tblrd		*+
  3790   00219E  CFF5 F068          	movff	tablat,_inPipes
  3791   0021A2  000A               	tblrd		*-
  3792   0021A4  CFF5 F069          	movff	tablat,_inPipes+1
  3793   0021A8                     
  3794                           ; BSR set to: 4
  3795                           ;../source/usb/usb_device.c: 2051:                     inPipes[0].wCount.Val = *inPipes[
      +                          0].pSrc.bRom;
  3796   0021A8  C068  FFF6         	movff	_inPipes,tblptrl
  3797   0021AC  C069  FFF7         	movff	_inPipes+1,tblptrh
  3798   0021B0  6AF8               	clrf	tblptru,c
  3799   0021B2  0E07               	movlw	(high __ramtop+-1)
  3800   0021B4  64F7               	cpfsgt	tblptrh,c
  3801   0021B6  D003               	bra	u2577
  3802   0021B8  0008               	tblrd		*
  3803   0021BA  50F5               	movf	tablat,w,c
  3804   0021BC  D005               	bra	u2570
  3805   0021BE                     u2577:
  3806   0021BE  CFF6 FFE1          	movff	tblptrl,fsr1l
  3807   0021C2  CFF7 FFE2          	movff	tblptrh,fsr1h
  3808   0021C6  50E7               	movf	indf1,w,c
  3809   0021C8                     u2570:
  3810   0021C8  6E01               	movwf	??_USBStdGetDscHandler^0,c
  3811   0021CA  5001               	movf	??_USBStdGetDscHandler^0,w,c
  3812   0021CC  0100               	movlb	0	; () banked
  3813   0021CE  6F6C               	movwf	(_inPipes+4)& (0+255),b
  3814   0021D0  6B6D               	clrf	(_inPipes+5)& (0+255),b
  3815                           
  3816                           ;../source/usb/usb_device.c: 2052:                 }
  3817   0021D2  EF05  F011         	goto	l272
  3818   0021D6                     l3528:
  3819                           
  3820                           ; BSR set to: 0
  3821   0021D6  0104               	movlb	4	; () banked
  3822   0021D8  5123               	movf	35,w,b	;volatile
  3823   0021DA  6E01               	movwf	??_USBStdGetDscHandler^0,c
  3824   0021DC  6A02               	clrf	(??_USBStdGetDscHandler+1)^0,c
  3825                           
  3826                           ; Switch on 2 bytes has been partitioned into a top level switch of size 1, and 1 sub-sw
      +                          itches
  3827                           ; Switch size 1, requested type "simple"
  3828                           ; Number of cases is 1, Range of values is 0 to 0
  3829                           ; switch strategies available:
  3830                           ; Name         Instructions Cycles
  3831                           ; simple_byte            4     3 (average)
  3832                           ;	Chosen strategy is simple_byte
  3833   0021DE  5002               	movf	(??_USBStdGetDscHandler+1)^0,w,c
  3834   0021E0  0A00               	xorlw	0	; case 0
  3835   0021E2  B4D8               	btfsc	status,2,c
  3836   0021E4  EFF6  F010         	goto	l4940
  3837   0021E8  EFB9  F010         	goto	l3514
  3838   0021EC                     l4940:
  3839                           
  3840                           ; BSR set to: 4
  3841                           ; Switch size 1, requested type "simple"
  3842                           ; Number of cases is 3, Range of values is 1 to 3
  3843                           ; switch strategies available:
  3844                           ; Name         Instructions Cycles
  3845                           ; simple_byte           10     6 (average)
  3846                           ;	Chosen strategy is simple_byte
  3847   0021EC  5001               	movf	??_USBStdGetDscHandler^0,w,c
  3848   0021EE  0A01               	xorlw	1	; case 1
  3849   0021F0  B4D8               	btfsc	status,2,c
  3850   0021F2  EF65  F010         	goto	l3502
  3851   0021F6  0A03               	xorlw	3	; case 2
  3852   0021F8  B4D8               	btfsc	status,2,c
  3853   0021FA  EF70  F010         	goto	l3506
  3854   0021FE  0A01               	xorlw	1	; case 3
  3855   002200  B4D8               	btfsc	status,2,c
  3856   002202  EFBE  F010         	goto	l3516
  3857   002206  EFB9  F010         	goto	l3514
  3858   00220A                     l272:
  3859   00220A  0012               	return		;funcret
  3860   00220C                     __end_of_USBStdGetDscHandler:
  3861                           	callstack 0
  3862                           
  3863 ;; *************** function _USBStdFeatureReqHandler *****************
  3864 ;; Defined at:
  3865 ;;		line 2717 in file "../source/usb/usb_device.c"
  3866 ;; Parameters:    Size  Location     Type
  3867 ;;		None
  3868 ;; Auto vars:     Size  Location     Type
  3869 ;;  p               2   27[COMRAM] PTR struct __BDT
  3870 ;;		 -> RAM(2047), NULL(0), BDT(32), 
  3871 ;;  pUEP            2   24[COMRAM] PTR unsigned char 
  3872 ;;		 -> UEP0(1), 
  3873 ;;  current_ep_d    1   26[COMRAM] struct .
  3874 ;; Return value:  Size  Location     Type
  3875 ;;                  1    wreg      void 
  3876 ;; Registers used:
  3877 ;;		wreg, fsr2l, fsr2h, status,2, status,0, prodl, prodh, cstack
  3878 ;; Tracked objects:
  3879 ;;		On entry : 0/0
  3880 ;;		On exit  : 0/0
  3881 ;;		Unchanged: 0/0
  3882 ;; Data sizes:     COMRAM   BANK0   BANK1   BANK2   BANK3   BANK4   BANK5   BANK6   BANK7
  3883 ;;      Params:         0       0       0       0       0       0       0       0       0
  3884 ;;      Locals:         5       0       0       0       0       0       0       0       0
  3885 ;;      Temps:          2       0       0       0       0       0       0       0       0
  3886 ;;      Totals:         7       0       0       0       0       0       0       0       0
  3887 ;;Total ram usage:        7 bytes
  3888 ;; Hardware stack levels used: 1
  3889 ;; Hardware stack levels required when called: 5
  3890 ;; This function calls:
  3891 ;;		_USER_USB_CALLBACK_EVENT_HANDLER
  3892 ;; This function is called by:
  3893 ;;		_USBCheckStdRequest
  3894 ;; This function uses a non-reentrant model
  3895 ;;
  3896                           
  3897                           	psect	text17
  3898   001644                     __ptext17:
  3899                           	callstack 0
  3900   001644                     _USBStdFeatureReqHandler:
  3901                           	callstack 21
  3902   001644                     
  3903                           ;../source/usb/usb_device.c: 2719:     BDT_ENTRY *p;;../source/usb/usb_device.c: 2720:  
      +                             EP_STATUS current_ep_data;;../source/usb/usb_device.c: 2724:         unsigned char* p
      +                          UEP;;../source/usb/usb_device.c: 2728:     if((SetupPkt.bFeature == 1)&&
  3904   001644  0104               	movlb	4	; () banked
  3905   001646  0522               	decf	34,w,b	;volatile
  3906   001648  A4D8               	btfss	status,2,c
  3907   00164A  EF29  F00B         	goto	u2641
  3908   00164E  EF2B  F00B         	goto	u2640
  3909   001652                     u2641:
  3910   001652  EF49  F00B         	goto	l354
  3911   001656                     u2640:
  3912   001656                     
  3913                           ; BSR set to: 4
  3914   001656  5120               	movf	32,w,b	;volatile
  3915   001658  0B1F               	andlw	31
  3916   00165A  0900               	iorlw	0
  3917   00165C  A4D8               	btfss	status,2,c
  3918   00165E  EF33  F00B         	goto	u2651
  3919   001662  EF35  F00B         	goto	u2650
  3920   001666                     u2651:
  3921   001666  EF49  F00B         	goto	l354
  3922   00166A                     u2650:
  3923   00166A                     
  3924                           ; BSR set to: 4
  3925                           ;../source/usb/usb_device.c: 2730:     {;../source/usb/usb_device.c: 2731:         inPip
      +                          es[0].info.bits.busy = 1;
  3926   00166A  0100               	movlb	0	; () banked
  3927   00166C  8F6B               	bsf	(_inPipes+3)& (0+255),7,b
  3928   00166E                     
  3929                           ; BSR set to: 0
  3930                           ;../source/usb/usb_device.c: 2732:         if(SetupPkt.bRequest == 3)
  3931   00166E  0E03               	movlw	3
  3932   001670  0104               	movlb	4	; () banked
  3933   001672  1921               	xorwf	33,w,b	;volatile
  3934   001674  A4D8               	btfss	status,2,c
  3935   001676  EF3F  F00B         	goto	u2661
  3936   00167A  EF41  F00B         	goto	u2660
  3937   00167E                     u2661:
  3938   00167E  EF46  F00B         	goto	l3580
  3939   001682                     u2660:
  3940   001682                     
  3941                           ; BSR set to: 4
  3942                           ;../source/usb/usb_device.c: 2733:             RemoteWakeup = 1;
  3943   001682  0E01               	movlw	1
  3944   001684  0100               	movlb	0	; () banked
  3945   001686  6F88               	movwf	_RemoteWakeup& (0+255),b
  3946   001688  EF49  F00B         	goto	l354
  3947   00168C                     l3580:
  3948                           
  3949                           ; BSR set to: 4
  3950                           ;../source/usb/usb_device.c: 2735:             RemoteWakeup = 0;
  3951   00168C  0E00               	movlw	0
  3952   00168E  0100               	movlb	0	; () banked
  3953   001690  6F88               	movwf	_RemoteWakeup& (0+255),b
  3954   001692                     l354:
  3955                           
  3956                           ;../source/usb/usb_device.c: 2739:     if((SetupPkt.bFeature == 0)&&
  3957   001692  0104               	movlb	4	; () banked
  3958   001694  5122               	movf	34,w,b	;volatile
  3959   001696  A4D8               	btfss	status,2,c
  3960   001698  EF50  F00B         	goto	u2671
  3961   00169C  EF52  F00B         	goto	u2670
  3962   0016A0                     u2671:
  3963   0016A0  EFD2  F00C         	goto	l377
  3964   0016A4                     u2670:
  3965   0016A4                     
  3966                           ; BSR set to: 4
  3967   0016A4  5120               	movf	32,w,b	;volatile
  3968   0016A6  0B1F               	andlw	31
  3969   0016A8  0A02               	xorlw	2
  3970   0016AA  A4D8               	btfss	status,2,c
  3971   0016AC  EF5A  F00B         	goto	u2681
  3972   0016B0  EF5C  F00B         	goto	u2680
  3973   0016B4                     u2681:
  3974   0016B4  EFD2  F00C         	goto	l377
  3975   0016B8                     u2680:
  3976   0016B8                     
  3977                           ; BSR set to: 4
  3978   0016B8  5124               	movf	36,w,b	;volatile
  3979   0016BA  0B0F               	andlw	15
  3980   0016BC  0900               	iorlw	0
  3981   0016BE  B4D8               	btfsc	status,2,c
  3982   0016C0  EF64  F00B         	goto	u2691
  3983   0016C4  EF66  F00B         	goto	u2690
  3984   0016C8                     u2691:
  3985   0016C8  EFD2  F00C         	goto	l377
  3986   0016CC                     u2690:
  3987   0016CC                     
  3988                           ; BSR set to: 4
  3989   0016CC  5124               	movf	36,w,b	;volatile
  3990   0016CE  0B0F               	andlw	15
  3991   0016D0  6E17               	movwf	??_USBStdFeatureReqHandler^0,c
  3992   0016D2  0E02               	movlw	2
  3993   0016D4  6017               	cpfslt	??_USBStdFeatureReqHandler^0,c
  3994   0016D6  EF6F  F00B         	goto	u2701
  3995   0016DA  EF71  F00B         	goto	u2700
  3996   0016DE                     u2701:
  3997   0016DE  EFD2  F00C         	goto	l377
  3998   0016E2                     u2700:
  3999   0016E2                     
  4000                           ; BSR set to: 4
  4001   0016E2  0E20               	movlw	32
  4002   0016E4  0100               	movlb	0	; () banked
  4003   0016E6  198B               	xorwf	_USBDeviceState& (0+255),w,b
  4004   0016E8  A4D8               	btfss	status,2,c
  4005   0016EA  EF79  F00B         	goto	u2711
  4006   0016EE  EF7B  F00B         	goto	u2710
  4007   0016F2                     u2711:
  4008   0016F2  EFD2  F00C         	goto	l377
  4009   0016F6                     u2710:
  4010   0016F6                     
  4011                           ; BSR set to: 0
  4012                           ;../source/usb/usb_device.c: 2743:     {;../source/usb/usb_device.c: 2746:   inPipes[0].
      +                          info.bits.busy = 1;
  4013   0016F6  8F6B               	bsf	(_inPipes+3)& (0+255),7,b
  4014                           
  4015                           ;../source/usb/usb_device.c: 2749:         if(SetupPkt.EPDir == 0)
  4016   0016F8  0104               	movlb	4	; () banked
  4017   0016FA  BF24               	btfsc	36,7,b	;volatile
  4018   0016FC  EF82  F00B         	goto	u2721
  4019   001700  EF84  F00B         	goto	u2720
  4020   001704                     u2721:
  4021   001704  EFA1  F00B         	goto	l3596
  4022   001708                     u2720:
  4023   001708                     
  4024                           ; BSR set to: 4
  4025                           ;../source/usb/usb_device.c: 2750:         {;../source/usb/usb_device.c: 2751:          
      +                             p = (BDT_ENTRY*)pBDTEntryOut[SetupPkt.EPNum];
  4026   001708  5124               	movf	36,w,b	;volatile
  4027   00170A  0B0F               	andlw	15
  4028   00170C  6E17               	movwf	??_USBStdFeatureReqHandler^0,c
  4029   00170E  5017               	movf	??_USBStdFeatureReqHandler^0,w,c
  4030   001710  0D02               	mullw	2
  4031   001712  0E72               	movlw	low _pBDTEntryOut
  4032   001714  24F3               	addwf	243,w,c
  4033   001716  6ED9               	movwf	fsr2l,c
  4034   001718  0E00               	movlw	high _pBDTEntryOut
  4035   00171A  20F4               	addwfc	prodh,w,c
  4036   00171C  6EDA               	movwf	fsr2h,c
  4037   00171E  CFDE F01C          	movff	postinc2,USBStdFeatureReqHandler@p
  4038   001722  CFDD F01D          	movff	postdec2,USBStdFeatureReqHandler@p+1
  4039   001726                     
  4040                           ; BSR set to: 4
  4041                           ;../source/usb/usb_device.c: 2752:             current_ep_data.Val = ep_data_out[SetupPk
      +                          t.EPNum].Val;
  4042   001726  5124               	movf	36,w,b	;volatile
  4043   001728  0B0F               	andlw	15
  4044   00172A  6E17               	movwf	??_USBStdFeatureReqHandler^0,c
  4045   00172C  6A18               	clrf	(??_USBStdFeatureReqHandler+1)^0,c
  4046   00172E  0E78               	movlw	low _ep_data_out
  4047   001730  2417               	addwf	??_USBStdFeatureReqHandler^0,w,c
  4048   001732  6ED9               	movwf	fsr2l,c
  4049   001734  0E00               	movlw	high _ep_data_out
  4050   001736  2018               	addwfc	(??_USBStdFeatureReqHandler+1)^0,w,c
  4051   001738  6EDA               	movwf	fsr2h,c
  4052   00173A  50DF               	movf	indf2,w,c
  4053   00173C  6E1B               	movwf	USBStdFeatureReqHandler@current_ep_data^0,c
  4054                           
  4055                           ;../source/usb/usb_device.c: 2753:         }
  4056   00173E  EFBC  F00B         	goto	l3600
  4057   001742                     l3596:
  4058                           
  4059                           ; BSR set to: 4
  4060                           ;../source/usb/usb_device.c: 2755:         {;../source/usb/usb_device.c: 2756:          
      +                             p = (BDT_ENTRY*)pBDTEntryIn[SetupPkt.EPNum];
  4061   001742  5124               	movf	36,w,b	;volatile
  4062   001744  0B0F               	andlw	15
  4063   001746  6E17               	movwf	??_USBStdFeatureReqHandler^0,c
  4064   001748  5017               	movf	??_USBStdFeatureReqHandler^0,w,c
  4065   00174A  0D02               	mullw	2
  4066   00174C  0E57               	movlw	low _pBDTEntryIn
  4067   00174E  24F3               	addwf	243,w,c
  4068   001750  6ED9               	movwf	fsr2l,c
  4069   001752  0E00               	movlw	high _pBDTEntryIn
  4070   001754  20F4               	addwfc	prodh,w,c
  4071   001756  6EDA               	movwf	fsr2h,c
  4072   001758  CFDE F01C          	movff	postinc2,USBStdFeatureReqHandler@p
  4073   00175C  CFDD F01D          	movff	postdec2,USBStdFeatureReqHandler@p+1
  4074   001760                     
  4075                           ; BSR set to: 4
  4076                           ;../source/usb/usb_device.c: 2757:             current_ep_data.Val = ep_data_in[SetupPkt
      +                          .EPNum].Val;
  4077   001760  5124               	movf	36,w,b	;volatile
  4078   001762  0B0F               	andlw	15
  4079   001764  6E17               	movwf	??_USBStdFeatureReqHandler^0,c
  4080   001766  6A18               	clrf	(??_USBStdFeatureReqHandler+1)^0,c
  4081   001768  0E7A               	movlw	low _ep_data_in
  4082   00176A  2417               	addwf	??_USBStdFeatureReqHandler^0,w,c
  4083   00176C  6ED9               	movwf	fsr2l,c
  4084   00176E  0E00               	movlw	high _ep_data_in
  4085   001770  2018               	addwfc	(??_USBStdFeatureReqHandler+1)^0,w,c
  4086   001772  6EDA               	movwf	fsr2h,c
  4087   001774  50DF               	movf	indf2,w,c
  4088   001776  6E1B               	movwf	USBStdFeatureReqHandler@current_ep_data^0,c
  4089   001778                     l3600:
  4090                           
  4091                           ; BSR set to: 4
  4092                           ;../source/usb/usb_device.c: 2764:             if(current_ep_data.bits.ping_pong_state =
      +                          = 0)
  4093   001778  B01B               	btfsc	USBStdFeatureReqHandler@current_ep_data^0,0,c
  4094   00177A  EFC1  F00B         	goto	u2731
  4095   00177E  EFC3  F00B         	goto	u2730
  4096   001782                     u2731:
  4097   001782  EFCB  F00B         	goto	l3604
  4098   001786                     u2730:
  4099   001786                     
  4100                           ; BSR set to: 4
  4101                           ;../source/usb/usb_device.c: 2765:             {;../source/usb/usb_device.c: 2766:      
      +                                     p = (BDT_ENTRY*)(((uint16_t)p) & (~0x0004));
  4102   001786  0EFB               	movlw	251
  4103   001788  141C               	andwf	USBStdFeatureReqHandler@p^0,w,c
  4104   00178A  6E1C               	movwf	USBStdFeatureReqHandler@p^0,c
  4105   00178C  0EFF               	movlw	255
  4106   00178E  141D               	andwf	(USBStdFeatureReqHandler@p+1)^0,w,c
  4107   001790  6E1D               	movwf	(USBStdFeatureReqHandler@p+1)^0,c
  4108                           
  4109                           ;../source/usb/usb_device.c: 2767:             }
  4110   001792  EFD0  F00B         	goto	l3606
  4111   001796                     l3604:
  4112                           
  4113                           ; BSR set to: 4
  4114                           ;../source/usb/usb_device.c: 2769:             {;../source/usb/usb_device.c: 2770:      
      +                                     p = (BDT_ENTRY*)(((uint16_t)p) | 0x0004);
  4115   001796  0E04               	movlw	4
  4116   001798  101C               	iorwf	USBStdFeatureReqHandler@p^0,w,c
  4117   00179A  6E1C               	movwf	USBStdFeatureReqHandler@p^0,c
  4118   00179C  501D               	movf	(USBStdFeatureReqHandler@p+1)^0,w,c
  4119   00179E  6E1D               	movwf	(USBStdFeatureReqHandler@p+1)^0,c
  4120   0017A0                     l3606:
  4121                           
  4122                           ; BSR set to: 4
  4123                           ;../source/usb/usb_device.c: 2776:         if(SetupPkt.EPDir == 0)
  4124   0017A0  BF24               	btfsc	36,7,b	;volatile
  4125   0017A2  EFD5  F00B         	goto	u2741
  4126   0017A6  EFD7  F00B         	goto	u2740
  4127   0017AA                     u2741:
  4128   0017AA  EFE8  F00B         	goto	l3610
  4129   0017AE                     u2740:
  4130   0017AE                     
  4131                           ; BSR set to: 4
  4132                           ;../source/usb/usb_device.c: 2777:         {;../source/usb/usb_device.c: 2778:          
      +                             pBDTEntryOut[SetupPkt.EPNum] = (volatile BDT_ENTRY *)p;
  4133   0017AE  5124               	movf	36,w,b	;volatile
  4134   0017B0  0B0F               	andlw	15
  4135   0017B2  6E17               	movwf	??_USBStdFeatureReqHandler^0,c
  4136   0017B4  5017               	movf	??_USBStdFeatureReqHandler^0,w,c
  4137   0017B6  0D02               	mullw	2
  4138   0017B8  0E72               	movlw	low _pBDTEntryOut
  4139   0017BA  24F3               	addwf	243,w,c
  4140   0017BC  6ED9               	movwf	fsr2l,c
  4141   0017BE  0E00               	movlw	high _pBDTEntryOut
  4142   0017C0  20F4               	addwfc	prodh,w,c
  4143   0017C2  6EDA               	movwf	fsr2h,c
  4144   0017C4  C01C  FFDE         	movff	USBStdFeatureReqHandler@p,postinc2
  4145   0017C8  C01D  FFDD         	movff	USBStdFeatureReqHandler@p+1,postdec2
  4146                           
  4147                           ;../source/usb/usb_device.c: 2779:         }
  4148   0017CC  EFF7  F00B         	goto	l3612
  4149   0017D0                     l3610:
  4150                           
  4151                           ; BSR set to: 4
  4152                           ;../source/usb/usb_device.c: 2781:         {;../source/usb/usb_device.c: 2782:          
      +                             pBDTEntryIn[SetupPkt.EPNum] = (volatile BDT_ENTRY *)p;
  4153   0017D0  5124               	movf	36,w,b	;volatile
  4154   0017D2  0B0F               	andlw	15
  4155   0017D4  6E17               	movwf	??_USBStdFeatureReqHandler^0,c
  4156   0017D6  5017               	movf	??_USBStdFeatureReqHandler^0,w,c
  4157   0017D8  0D02               	mullw	2
  4158   0017DA  0E57               	movlw	low _pBDTEntryIn
  4159   0017DC  24F3               	addwf	243,w,c
  4160   0017DE  6ED9               	movwf	fsr2l,c
  4161   0017E0  0E00               	movlw	high _pBDTEntryIn
  4162   0017E2  20F4               	addwfc	prodh,w,c
  4163   0017E4  6EDA               	movwf	fsr2h,c
  4164   0017E6  C01C  FFDE         	movff	USBStdFeatureReqHandler@p,postinc2
  4165   0017EA  C01D  FFDD         	movff	USBStdFeatureReqHandler@p+1,postdec2
  4166   0017EE                     l3612:
  4167                           
  4168                           ; BSR set to: 4
  4169                           ;../source/usb/usb_device.c: 2786:         if(SetupPkt.bRequest == 3)
  4170   0017EE  0E03               	movlw	3
  4171   0017F0  1921               	xorwf	33,w,b	;volatile
  4172   0017F2  A4D8               	btfss	status,2,c
  4173   0017F4  EFFE  F00B         	goto	u2751
  4174   0017F8  EF00  F00C         	goto	u2750
  4175   0017FC                     u2751:
  4176   0017FC  EF3A  F00C         	goto	l3622
  4177   001800                     u2750:
  4178   001800                     
  4179                           ; BSR set to: 4
  4180                           ;../source/usb/usb_device.c: 2787:         {;../source/usb/usb_device.c: 2788:          
      +                             if(p->STAT.UOWN == 1)
  4181   001800  C01C  FFD9         	movff	USBStdFeatureReqHandler@p,fsr2l
  4182   001804  C01D  FFDA         	movff	USBStdFeatureReqHandler@p+1,fsr2h
  4183   001808  AEDF               	btfss	indf2,7,c
  4184   00180A  EF09  F00C         	goto	u2761
  4185   00180E  EF0B  F00C         	goto	u2760
  4186   001812                     u2761:
  4187   001812  EF2C  F00C         	goto	l365
  4188   001816                     u2760:
  4189   001816                     
  4190                           ; BSR set to: 4
  4191                           ;../source/usb/usb_device.c: 2789:             {;../source/usb/usb_device.c: 2792:      
      +                                     if(SetupPkt.EPDir == 0)
  4192   001816  BF24               	btfsc	36,7,b	;volatile
  4193   001818  EF10  F00C         	goto	u2771
  4194   00181C  EF12  F00C         	goto	u2770
  4195   001820                     u2771:
  4196   001820  EF20  F00C         	goto	l3620
  4197   001824                     u2770:
  4198   001824                     
  4199                           ; BSR set to: 4
  4200                           ;../source/usb/usb_device.c: 2793:                 {;../source/usb/usb_device.c: 2794:  
      +                                             ep_data_out[SetupPkt.EPNum].bits.transfer_terminated = 1;
  4201   001824  5124               	movf	36,w,b	;volatile
  4202   001826  0B0F               	andlw	15
  4203   001828  6E17               	movwf	??_USBStdFeatureReqHandler^0,c
  4204   00182A  6A18               	clrf	(??_USBStdFeatureReqHandler+1)^0,c
  4205   00182C  0E78               	movlw	low _ep_data_out
  4206   00182E  2417               	addwf	??_USBStdFeatureReqHandler^0,w,c
  4207   001830  6ED9               	movwf	fsr2l,c
  4208   001832  0E00               	movlw	high _ep_data_out
  4209   001834  2018               	addwfc	(??_USBStdFeatureReqHandler+1)^0,w,c
  4210   001836  6EDA               	movwf	fsr2h,c
  4211   001838  0100               	movlb	0	; () banked
  4212   00183A  82DF               	bsf	indf2,1,c
  4213                           
  4214                           ;../source/usb/usb_device.c: 2795:                 }
  4215   00183C  EF2C  F00C         	goto	l365
  4216   001840                     l3620:
  4217                           
  4218                           ; BSR set to: 4
  4219                           ;../source/usb/usb_device.c: 2797:                 {;../source/usb/usb_device.c: 2798:  
      +                                             ep_data_in[SetupPkt.EPNum].bits.transfer_terminated = 1;
  4220   001840  5124               	movf	36,w,b	;volatile
  4221   001842  0B0F               	andlw	15
  4222   001844  6E17               	movwf	??_USBStdFeatureReqHandler^0,c
  4223   001846  6A18               	clrf	(??_USBStdFeatureReqHandler+1)^0,c
  4224   001848  0E7A               	movlw	low _ep_data_in
  4225   00184A  2417               	addwf	??_USBStdFeatureReqHandler^0,w,c
  4226   00184C  6ED9               	movwf	fsr2l,c
  4227   00184E  0E00               	movlw	high _ep_data_in
  4228   001850  2018               	addwfc	(??_USBStdFeatureReqHandler+1)^0,w,c
  4229   001852  6EDA               	movwf	fsr2h,c
  4230   001854  0100               	movlb	0	; () banked
  4231   001856  82DF               	bsf	indf2,1,c
  4232   001858                     l365:
  4233                           
  4234                           ;../source/usb/usb_device.c: 2803:             p->STAT.Val |= 0x04;
  4235   001858  C01C  FFD9         	movff	USBStdFeatureReqHandler@p,fsr2l
  4236   00185C  C01D  FFDA         	movff	USBStdFeatureReqHandler@p+1,fsr2h
  4237   001860  0E00               	movlw	0
  4238   001862  84DB               	bsf	plusw2,2,c
  4239                           
  4240                           ;../source/usb/usb_device.c: 2804:             p->STAT.Val |= 0x80;
  4241   001864  C01C  FFD9         	movff	USBStdFeatureReqHandler@p,fsr2l
  4242   001868  C01D  FFDA         	movff	USBStdFeatureReqHandler@p+1,fsr2h
  4243   00186C  0E00               	movlw	0
  4244   00186E  8EDB               	bsf	plusw2,7,c
  4245                           
  4246                           ;../source/usb/usb_device.c: 2805:         }
  4247   001870  EFD2  F00C         	goto	l377
  4248   001874                     l3622:
  4249                           
  4250                           ; BSR set to: 4
  4251                           ;../source/usb/usb_device.c: 2807:         {;../source/usb/usb_device.c: 2811:          
      +                                 p = (BDT_ENTRY*)(((uint16_t)p) ^ 0x0004);
  4252   001874  0E04               	movlw	4
  4253   001876  181C               	xorwf	USBStdFeatureReqHandler@p^0,w,c
  4254   001878  6E1C               	movwf	USBStdFeatureReqHandler@p^0,c
  4255   00187A  501D               	movf	(USBStdFeatureReqHandler@p+1)^0,w,c
  4256   00187C  6E1D               	movwf	(USBStdFeatureReqHandler@p+1)^0,c
  4257   00187E                     
  4258                           ; BSR set to: 4
  4259                           ;../source/usb/usb_device.c: 2813:                 if(p->STAT.UOWN == 1)
  4260   00187E  C01C  FFD9         	movff	USBStdFeatureReqHandler@p,fsr2l
  4261   001882  C01D  FFDA         	movff	USBStdFeatureReqHandler@p+1,fsr2h
  4262   001886  AEDF               	btfss	indf2,7,c
  4263   001888  EF48  F00C         	goto	u2781
  4264   00188C  EF4A  F00C         	goto	u2780
  4265   001890                     u2781:
  4266   001890  EF66  F00C         	goto	l3632
  4267   001894                     u2780:
  4268   001894                     
  4269                           ; BSR set to: 4
  4270                           ;../source/usb/usb_device.c: 2814:                 {;../source/usb/usb_device.c: 2817:  
      +                                             p->STAT.Val &= (~0x80);
  4271   001894  C01C  FFD9         	movff	USBStdFeatureReqHandler@p,fsr2l
  4272   001898  C01D  FFDA         	movff	USBStdFeatureReqHandler@p+1,fsr2h
  4273   00189C  0E7F               	movlw	127
  4274   00189E  16DF               	andwf	indf2,f,c
  4275   0018A0                     
  4276                           ; BSR set to: 4
  4277                           ;../source/usb/usb_device.c: 2818:                     p->STAT.Val |= 0x40;
  4278   0018A0  C01C  FFD9         	movff	USBStdFeatureReqHandler@p,fsr2l
  4279   0018A4  C01D  FFDA         	movff	USBStdFeatureReqHandler@p+1,fsr2h
  4280   0018A8  0E00               	movlw	0
  4281   0018AA  8CDB               	bsf	plusw2,6,c
  4282   0018AC                     
  4283                           ; BSR set to: 4
  4284                           ;../source/usb/usb_device.c: 2819:                     USER_USB_CALLBACK_EVENT_HANDLER((
      +                          USB_EVENT)EVENT_TRANSFER_TERMINATED,p,sizeof(p));
  4285   0018AC  0E00               	movlw	0
  4286   0018AE  6E10               	movwf	(USER_USB_CALLBACK_EVENT_HANDLER@event+1)^0,c
  4287   0018B0  0E05               	movlw	5
  4288   0018B2  6E0F               	movwf	USER_USB_CALLBACK_EVENT_HANDLER@event^0,c
  4289   0018B4  C01C  F011         	movff	USBStdFeatureReqHandler@p,USER_USB_CALLBACK_EVENT_HANDLER@pdata
  4290   0018B8  C01D  F012         	movff	USBStdFeatureReqHandler@p+1,USER_USB_CALLBACK_EVENT_HANDLER@pdata+1
  4291   0018BC  0E00               	movlw	0
  4292   0018BE  6E14               	movwf	(USER_USB_CALLBACK_EVENT_HANDLER@size+1)^0,c
  4293   0018C0  0E02               	movlw	2
  4294   0018C2  6E13               	movwf	USER_USB_CALLBACK_EVENT_HANDLER@size^0,c
  4295   0018C4  ECC1  F018         	call	_USER_USB_CALLBACK_EVENT_HANDLER	;wreg free
  4296                           
  4297                           ;../source/usb/usb_device.c: 2820:                 }
  4298   0018C8  EF6C  F00C         	goto	l3634
  4299   0018CC                     l3632:
  4300                           
  4301                           ; BSR set to: 4
  4302                           ;../source/usb/usb_device.c: 2822:                 {;../source/usb/usb_device.c: 2824:  
      +                              p->STAT.Val |= 0x40;
  4303   0018CC  C01C  FFD9         	movff	USBStdFeatureReqHandler@p,fsr2l
  4304   0018D0  C01D  FFDA         	movff	USBStdFeatureReqHandler@p+1,fsr2h
  4305   0018D4  0E00               	movlw	0
  4306   0018D6  8CDB               	bsf	plusw2,6,c
  4307   0018D8                     l3634:
  4308                           
  4309                           ;../source/usb/usb_device.c: 2829:                 p = (BDT_ENTRY*)(((uint16_t)p) ^ 0x00
      +                          04);
  4310   0018D8  0E04               	movlw	4
  4311   0018DA  181C               	xorwf	USBStdFeatureReqHandler@p^0,w,c
  4312   0018DC  6E1C               	movwf	USBStdFeatureReqHandler@p^0,c
  4313   0018DE  501D               	movf	(USBStdFeatureReqHandler@p+1)^0,w,c
  4314   0018E0  6E1D               	movwf	(USBStdFeatureReqHandler@p+1)^0,c
  4315   0018E2                     
  4316                           ;../source/usb/usb_device.c: 2835:                 if((current_ep_data.bits.transfer_ter
      +                          minated != 0) || (p->STAT.UOWN == 1))
  4317   0018E2  B21B               	btfsc	USBStdFeatureReqHandler@current_ep_data^0,1,c
  4318   0018E4  EF76  F00C         	goto	u2791
  4319   0018E8  EF78  F00C         	goto	u2790
  4320   0018EC                     u2791:
  4321   0018EC  EF83  F00C         	goto	l373
  4322   0018F0                     u2790:
  4323   0018F0  C01C  FFD9         	movff	USBStdFeatureReqHandler@p,fsr2l
  4324   0018F4  C01D  FFDA         	movff	USBStdFeatureReqHandler@p+1,fsr2h
  4325   0018F8  AEDF               	btfss	indf2,7,c
  4326   0018FA  EF81  F00C         	goto	u2801
  4327   0018FE  EF83  F00C         	goto	u2800
  4328   001902                     u2801:
  4329   001902  EFBB  F00C         	goto	l3648
  4330   001906                     u2800:
  4331   001906                     l373:
  4332                           
  4333                           ;../source/usb/usb_device.c: 2836:                 {;../source/usb/usb_device.c: 2837:  
      +                                             if(SetupPkt.EPDir == 0)
  4334   001906  0104               	movlb	4	; () banked
  4335   001908  BF24               	btfsc	36,7,b	;volatile
  4336   00190A  EF89  F00C         	goto	u2811
  4337   00190E  EF8B  F00C         	goto	u2810
  4338   001912                     u2811:
  4339   001912  EF99  F00C         	goto	l3642
  4340   001916                     u2810:
  4341   001916                     
  4342                           ; BSR set to: 4
  4343                           ;../source/usb/usb_device.c: 2838:                     {;../source/usb/usb_device.c: 283
      +                          9:                         ep_data_out[SetupPkt.EPNum].bits.transfer_terminated = 0;
  4344   001916  5124               	movf	36,w,b	;volatile
  4345   001918  0B0F               	andlw	15
  4346   00191A  6E17               	movwf	??_USBStdFeatureReqHandler^0,c
  4347   00191C  6A18               	clrf	(??_USBStdFeatureReqHandler+1)^0,c
  4348   00191E  0E78               	movlw	low _ep_data_out
  4349   001920  2417               	addwf	??_USBStdFeatureReqHandler^0,w,c
  4350   001922  6ED9               	movwf	fsr2l,c
  4351   001924  0E00               	movlw	high _ep_data_out
  4352   001926  2018               	addwfc	(??_USBStdFeatureReqHandler+1)^0,w,c
  4353   001928  6EDA               	movwf	fsr2h,c
  4354   00192A  0100               	movlb	0	; () banked
  4355   00192C  92DF               	bcf	indf2,1,c
  4356                           
  4357                           ;../source/usb/usb_device.c: 2840:                     }
  4358   00192E  EFA5  F00C         	goto	l3644
  4359   001932                     l3642:
  4360                           
  4361                           ; BSR set to: 4
  4362                           ;../source/usb/usb_device.c: 2842:                     {;../source/usb/usb_device.c: 284
      +                          3:                         ep_data_in[SetupPkt.EPNum].bits.transfer_terminated = 0;
  4363   001932  5124               	movf	36,w,b	;volatile
  4364   001934  0B0F               	andlw	15
  4365   001936  6E17               	movwf	??_USBStdFeatureReqHandler^0,c
  4366   001938  6A18               	clrf	(??_USBStdFeatureReqHandler+1)^0,c
  4367   00193A  0E7A               	movlw	low _ep_data_in
  4368   00193C  2417               	addwf	??_USBStdFeatureReqHandler^0,w,c
  4369   00193E  6ED9               	movwf	fsr2l,c
  4370   001940  0E00               	movlw	high _ep_data_in
  4371   001942  2018               	addwfc	(??_USBStdFeatureReqHandler+1)^0,w,c
  4372   001944  6EDA               	movwf	fsr2h,c
  4373   001946  0100               	movlb	0	; () banked
  4374   001948  92DF               	bcf	indf2,1,c
  4375   00194A                     l3644:
  4376                           
  4377                           ; BSR set to: 0
  4378                           ;../source/usb/usb_device.c: 2846:                     p->STAT.Val &= ~(0x80 | 0x40 | 0x
      +                          04);
  4379   00194A  C01C  FFD9         	movff	USBStdFeatureReqHandler@p,fsr2l
  4380   00194E  C01D  FFDA         	movff	USBStdFeatureReqHandler@p+1,fsr2h
  4381   001952  0E3B               	movlw	59
  4382   001954  16DF               	andwf	indf2,f,c
  4383   001956                     
  4384                           ; BSR set to: 0
  4385                           ;../source/usb/usb_device.c: 2849:                     USER_USB_CALLBACK_EVENT_HANDLER((
      +                          USB_EVENT)EVENT_TRANSFER_TERMINATED,p,sizeof(p));
  4386   001956  0E00               	movlw	0
  4387   001958  6E10               	movwf	(USER_USB_CALLBACK_EVENT_HANDLER@event+1)^0,c
  4388   00195A  0E05               	movlw	5
  4389   00195C  6E0F               	movwf	USER_USB_CALLBACK_EVENT_HANDLER@event^0,c
  4390   00195E  C01C  F011         	movff	USBStdFeatureReqHandler@p,USER_USB_CALLBACK_EVENT_HANDLER@pdata
  4391   001962  C01D  F012         	movff	USBStdFeatureReqHandler@p+1,USER_USB_CALLBACK_EVENT_HANDLER@pdata+1
  4392   001966  0E00               	movlw	0
  4393   001968  6E14               	movwf	(USER_USB_CALLBACK_EVENT_HANDLER@size+1)^0,c
  4394   00196A  0E02               	movlw	2
  4395   00196C  6E13               	movwf	USER_USB_CALLBACK_EVENT_HANDLER@size^0,c
  4396   00196E  ECC1  F018         	call	_USER_USB_CALLBACK_EVENT_HANDLER	;wreg free
  4397                           
  4398                           ;../source/usb/usb_device.c: 2850:                 }
  4399   001972  EFC1  F00C         	goto	l3650
  4400   001976                     l3648:
  4401                           
  4402                           ;../source/usb/usb_device.c: 2852:                 {;../source/usb/usb_device.c: 2854:  
      +                                             p->STAT.Val &= ~(0x80 | 0x40 | 0x04);
  4403   001976  C01C  FFD9         	movff	USBStdFeatureReqHandler@p,fsr2l
  4404   00197A  C01D  FFDA         	movff	USBStdFeatureReqHandler@p+1,fsr2h
  4405   00197E  0E3B               	movlw	59
  4406   001980  16DF               	andwf	indf2,f,c
  4407   001982                     l3650:
  4408                           
  4409                           ;../source/usb/usb_device.c: 2902:                 pUEP = (unsigned char*)(&UEP0+SetupPk
      +                          t.EPNum);
  4410   001982  0104               	movlb	4	; () banked
  4411   001984  5124               	movf	36,w,b	;volatile
  4412   001986  0B0F               	andlw	15
  4413   001988  6E17               	movwf	??_USBStdFeatureReqHandler^0,c
  4414   00198A  6A18               	clrf	(??_USBStdFeatureReqHandler+1)^0,c
  4415   00198C  0E70               	movlw	112
  4416   00198E  2417               	addwf	??_USBStdFeatureReqHandler^0,w,c
  4417   001990  6E19               	movwf	USBStdFeatureReqHandler@pUEP^0,c
  4418   001992  0E0F               	movlw	15
  4419   001994  2018               	addwfc	(??_USBStdFeatureReqHandler+1)^0,w,c
  4420   001996  6E1A               	movwf	(USBStdFeatureReqHandler@pUEP+1)^0,c
  4421   001998                     
  4422                           ; BSR set to: 4
  4423                           ;../source/usb/usb_device.c: 2906:             *pUEP &= ~0x0001;
  4424   001998  C019  FFD9         	movff	USBStdFeatureReqHandler@pUEP,fsr2l
  4425   00199C  C01A  FFDA         	movff	USBStdFeatureReqHandler@pUEP+1,fsr2h
  4426   0019A0  0EFE               	movlw	254
  4427   0019A2  16DF               	andwf	indf2,f,c
  4428   0019A4                     l377:
  4429   0019A4  0012               	return		;funcret
  4430   0019A6                     __end_of_USBStdFeatureReqHandler:
  4431                           	callstack 0
  4432                           
  4433 ;; *************** function _USER_USB_CALLBACK_EVENT_HANDLER *****************
  4434 ;; Defined at:
  4435 ;;		line 30 in file "../source/usb/usb_events.c"
  4436 ;; Parameters:    Size  Location     Type
  4437 ;;  event           2   14[COMRAM] enum E3412
  4438 ;;  pdata           2   16[COMRAM] PTR void 
  4439 ;;		 -> RAM(2047), USTATcopy(1), USBActiveConfiguration(1), NULL(0), 
  4440 ;;		 -> BDT(32), 
  4441 ;;  size            2   18[COMRAM] unsigned short 
  4442 ;; Auto vars:     Size  Location     Type
  4443 ;;		None
  4444 ;; Return value:  Size  Location     Type
  4445 ;;                  1    wreg      _Bool 
  4446 ;; Registers used:
  4447 ;;		wreg, fsr2l, fsr2h, status,2, status,0, prodl, prodh, cstack
  4448 ;; Tracked objects:
  4449 ;;		On entry : 0/0
  4450 ;;		On exit  : 0/0
  4451 ;;		Unchanged: 0/0
  4452 ;; Data sizes:     COMRAM   BANK0   BANK1   BANK2   BANK3   BANK4   BANK5   BANK6   BANK7
  4453 ;;      Params:         6       0       0       0       0       0       0       0       0
  4454 ;;      Locals:         0       0       0       0       0       0       0       0       0
  4455 ;;      Temps:          2       0       0       0       0       0       0       0       0
  4456 ;;      Totals:         8       0       0       0       0       0       0       0       0
  4457 ;;Total ram usage:        8 bytes
  4458 ;; Hardware stack levels used: 1
  4459 ;; Hardware stack levels required when called: 4
  4460 ;; This function calls:
  4461 ;;		_APP_DeviceJoystickInitialize
  4462 ;;		_SYSTEM_Initialize
  4463 ;;		_USBCheckHIDRequest
  4464 ;; This function is called by:
  4465 ;;		_USBDeviceTasks
  4466 ;;		_USBStdSetCfgHandler
  4467 ;;		_USBSuspend
  4468 ;;		_USBWakeFromSuspend
  4469 ;;		_USBCtrlTrfSetupHandler
  4470 ;;		_USBCheckStdRequest
  4471 ;;		_USBStdFeatureReqHandler
  4472 ;; This function uses a non-reentrant model
  4473 ;;
  4474                           
  4475                           	psect	text18
  4476   003182                     __ptext18:
  4477                           	callstack 0
  4478   003182                     _USER_USB_CALLBACK_EVENT_HANDLER:
  4479                           	callstack 25
  4480   003182                     
  4481                           ;../source/usb/usb_events.c: 30: _Bool USER_USB_CALLBACK_EVENT_HANDLER(USB_EVENT event, 
      +                          void *pdata, uint16_t size);../source/usb/usb_events.c: 31: {;../source/usb/usb_events.c
      +                          : 32:     switch( (int) event )
  4482   003182  EFD5  F018         	goto	l3350
  4483   003186                     l3340:
  4484                           
  4485                           ;../source/usb/usb_events.c: 49:             SYSTEM_Initialize(SYSTEM_STATE_USB_SUSPEND)
      +                          ;
  4486   003186  0E01               	movlw	1
  4487   003188  EC00  F01A         	call	_SYSTEM_Initialize
  4488                           
  4489                           ;../source/usb/usb_events.c: 50:             break;
  4490   00318C  EF0E  F019         	goto	l457
  4491   003190                     l3342:
  4492                           
  4493                           ;../source/usb/usb_events.c: 58:             SYSTEM_Initialize(SYSTEM_STATE_USB_RESUME);
  4494   003190  0E02               	movlw	2
  4495   003192  EC00  F01A         	call	_SYSTEM_Initialize
  4496                           
  4497                           ;../source/usb/usb_events.c: 59:             break;
  4498   003196  EF0E  F019         	goto	l457
  4499   00319A                     l3344:
  4500                           
  4501                           ;../source/usb/usb_events.c: 64:             APP_DeviceJoystickInitialize();
  4502   00319A  EC5B  F01B         	call	_APP_DeviceJoystickInitialize	;wreg free
  4503                           
  4504                           ;../source/usb/usb_events.c: 65:             break;
  4505   00319E  EF0E  F019         	goto	l457
  4506   0031A2                     l3346:
  4507                           
  4508                           ;../source/usb/usb_events.c: 73:             USBCheckHIDRequest();
  4509   0031A2  EC9F  F00F         	call	_USBCheckHIDRequest	;wreg free
  4510                           
  4511                           ;../source/usb/usb_events.c: 74:             break;
  4512   0031A6  EF0E  F019         	goto	l457
  4513   0031AA                     l3350:
  4514   0031AA  C00F  F015         	movff	USER_USB_CALLBACK_EVENT_HANDLER@event,??_USER_USB_CALLBACK_EVENT_HANDLER
  4515   0031AE  C010  F016         	movff	USER_USB_CALLBACK_EVENT_HANDLER@event+1,??_USER_USB_CALLBACK_EVENT_HANDLER+1
  4516                           
  4517                           ; Switch on 2 bytes has been partitioned into a top level switch of size 1, and 2 sub-sw
      +                          itches
  4518                           ; Switch size 1, requested type "simple"
  4519                           ; Number of cases is 2, Range of values is 0 to 127
  4520                           ; switch strategies available:
  4521                           ; Name         Instructions Cycles
  4522                           ; simple_byte            7     4 (average)
  4523                           ;	Chosen strategy is simple_byte
  4524   0031B2  5016               	movf	(??_USER_USB_CALLBACK_EVENT_HANDLER+1)^0,w,c
  4525   0031B4  0A00               	xorlw	0	; case 0
  4526   0031B6  B4D8               	btfsc	status,2,c
  4527   0031B8  EFE4  F018         	goto	l4942
  4528   0031BC  0A7F               	xorlw	127	; case 127
  4529   0031BE  B4D8               	btfsc	status,2,c
  4530   0031C0  EF07  F019         	goto	l4944
  4531   0031C4  EF0E  F019         	goto	l457
  4532   0031C8                     l4942:
  4533                           
  4534                           ; Switch size 1, requested type "simple"
  4535                           ; Number of cases is 8, Range of values is 1 to 117
  4536                           ; switch strategies available:
  4537                           ; Name         Instructions Cycles
  4538                           ; simple_byte           25    13 (average)
  4539                           ;	Chosen strategy is simple_byte
  4540   0031C8  5015               	movf	??_USER_USB_CALLBACK_EVENT_HANDLER^0,w,c
  4541   0031CA  0A01               	xorlw	1	; case 1
  4542   0031CC  B4D8               	btfsc	status,2,c
  4543   0031CE  EFCD  F018         	goto	l3344
  4544   0031D2  0A03               	xorlw	3	; case 2
  4545   0031D4  B4D8               	btfsc	status,2,c
  4546   0031D6  EF0E  F019         	goto	l457
  4547   0031DA  0A01               	xorlw	1	; case 3
  4548   0031DC  B4D8               	btfsc	status,2,c
  4549   0031DE  EFD1  F018         	goto	l3346
  4550   0031E2  0A06               	xorlw	6	; case 5
  4551   0031E4  B4D8               	btfsc	status,2,c
  4552   0031E6  EF0E  F019         	goto	l457
  4553   0031EA  0A77               	xorlw	119	; case 114
  4554   0031EC  B4D8               	btfsc	status,2,c
  4555   0031EE  EF0E  F019         	goto	l457
  4556   0031F2  0A01               	xorlw	1	; case 115
  4557   0031F4  B4D8               	btfsc	status,2,c
  4558   0031F6  EF0E  F019         	goto	l457
  4559   0031FA  0A07               	xorlw	7	; case 116
  4560   0031FC  B4D8               	btfsc	status,2,c
  4561   0031FE  EFC8  F018         	goto	l3342
  4562   003202  0A01               	xorlw	1	; case 117
  4563   003204  B4D8               	btfsc	status,2,c
  4564   003206  EFC3  F018         	goto	l3340
  4565   00320A  EF0E  F019         	goto	l457
  4566   00320E                     l4944:
  4567                           
  4568                           ; Switch size 1, requested type "simple"
  4569                           ; Number of cases is 1, Range of values is 255 to 255
  4570                           ; switch strategies available:
  4571                           ; Name         Instructions Cycles
  4572                           ; simple_byte            4     3 (average)
  4573                           ;	Chosen strategy is simple_byte
  4574   00320E  5015               	movf	??_USER_USB_CALLBACK_EVENT_HANDLER^0,w,c
  4575   003210  0AFF               	xorlw	255	; case 255
  4576   003212  B4D8               	btfsc	status,2,c
  4577   003214  EF0E  F019         	goto	l457
  4578   003218  EF0E  F019         	goto	l457
  4579   00321C                     l457:
  4580   00321C  0012               	return		;funcret
  4581   00321E                     __end_of_USER_USB_CALLBACK_EVENT_HANDLER:
  4582                           	callstack 0
  4583                           
  4584 ;; *************** function _USBCheckHIDRequest *****************
  4585 ;; Defined at:
  4586 ;;		line 118 in file "../source/usb/usb_device_hid.c"
  4587 ;; Parameters:    Size  Location     Type
  4588 ;;		None
  4589 ;; Auto vars:     Size  Location     Type
  4590 ;;		None
  4591 ;; Return value:  Size  Location     Type
  4592 ;;                  1    wreg      void 
  4593 ;; Registers used:
  4594 ;;		wreg, status,2, status,0
  4595 ;; Tracked objects:
  4596 ;;		On entry : 0/0
  4597 ;;		On exit  : 0/0
  4598 ;;		Unchanged: 0/0
  4599 ;; Data sizes:     COMRAM   BANK0   BANK1   BANK2   BANK3   BANK4   BANK5   BANK6   BANK7
  4600 ;;      Params:         0       0       0       0       0       0       0       0       0
  4601 ;;      Locals:         0       0       0       0       0       0       0       0       0
  4602 ;;      Temps:          2       0       0       0       0       0       0       0       0
  4603 ;;      Totals:         2       0       0       0       0       0       0       0       0
  4604 ;;Total ram usage:        2 bytes
  4605 ;; Hardware stack levels used: 1
  4606 ;; Hardware stack levels required when called: 1
  4607 ;; This function calls:
  4608 ;;		Nothing
  4609 ;; This function is called by:
  4610 ;;		_USER_USB_CALLBACK_EVENT_HANDLER
  4611 ;; This function uses a non-reentrant model
  4612 ;;
  4613                           
  4614                           	psect	text19
  4615   001F3E                     __ptext19:
  4616                           	callstack 0
  4617   001F3E                     _USBCheckHIDRequest:
  4618                           	callstack 27
  4619   001F3E                     
  4620                           ;../source/usb/usb_device_hid.c: 120:     if(SetupPkt.Recipient != (0x01)) return;
  4621   001F3E  0104               	movlb	4	; () banked
  4622   001F40  5120               	movf	32,w,b	;volatile
  4623   001F42  0B1F               	andlw	31
  4624   001F44  06E8               	decf	wreg,f,c
  4625   001F46  B4D8               	btfsc	status,2,c
  4626   001F48  EFA8  F00F         	goto	u2261
  4627   001F4C  EFAA  F00F         	goto	u2260
  4628   001F50                     u2261:
  4629   001F50  EFAC  F00F         	goto	l3222
  4630   001F54                     u2260:
  4631   001F54  EF55  F010         	goto	l419
  4632   001F58                     l3222:
  4633                           
  4634                           ; BSR set to: 4
  4635                           ;../source/usb/usb_device_hid.c: 121:     if(SetupPkt.bIntfID != 0x00) return;
  4636   001F58  5124               	movf	36,w,b	;volatile
  4637   001F5A  B4D8               	btfsc	status,2,c
  4638   001F5C  EFB2  F00F         	goto	u2271
  4639   001F60  EFB4  F00F         	goto	u2270
  4640   001F64                     u2271:
  4641   001F64  EFB6  F00F         	goto	l3226
  4642   001F68                     u2270:
  4643   001F68  EF55  F010         	goto	l419
  4644   001F6C                     l3226:
  4645                           
  4646                           ; BSR set to: 4
  4647                           ;../source/usb/usb_device_hid.c: 128:     if(SetupPkt.bRequest == 6)
  4648   001F6C  0E06               	movlw	6
  4649   001F6E  1921               	xorwf	33,w,b	;volatile
  4650   001F70  A4D8               	btfss	status,2,c
  4651   001F72  EFBD  F00F         	goto	u2281
  4652   001F76  EFBF  F00F         	goto	u2280
  4653   001F7A                     u2281:
  4654   001F7A  EFFA  F00F         	goto	l3248
  4655   001F7E                     u2280:
  4656   001F7E  EFE1  F00F         	goto	l3246
  4657   001F82                     l3230:
  4658                           
  4659                           ; BSR set to: 4
  4660                           ;../source/usb/usb_device_hid.c: 133:                 if(USBActiveConfiguration == 1)
  4661   001F82  0100               	movlb	0	; () banked
  4662   001F84  0590               	decf	_USBActiveConfiguration& (0+255),w,b
  4663   001F86  A4D8               	btfss	status,2,c
  4664   001F88  EFC8  F00F         	goto	u2291
  4665   001F8C  EFCA  F00F         	goto	u2290
  4666   001F90                     u2291:
  4667   001F90  EFFA  F00F         	goto	l3248
  4668   001F94                     u2290:
  4669   001F94                     
  4670                           ; BSR set to: 0
  4671                           ;../source/usb/usb_device_hid.c: 134:                 {;../source/usb/usb_device_hid.c: 
      +                          135:                     { inPipes[0].pSrc.bRom = (const uint8_t*)&configDescriptor1 + 1
      +                          8; inPipes[0].wCount.Val = sizeof(USB_HID_DSC)+3; inPipes[0].info.Val = 0x40 | 0x80 | 0x
      +                          00; };
  4672   001F94  0E67               	movlw	low (_configDescriptor1+18)
  4673   001F96  6F68               	movwf	_inPipes& (0+255),b
  4674   001F98  0E08               	movlw	high (_configDescriptor1+18)
  4675   001F9A  6F69               	movwf	(_inPipes+1)& (0+255),b
  4676   001F9C                     
  4677                           ; BSR set to: 0
  4678   001F9C  0E00               	movlw	0
  4679   001F9E  6F6D               	movwf	(_inPipes+5)& (0+255),b
  4680   001FA0  0E09               	movlw	9
  4681   001FA2  6F6C               	movwf	(_inPipes+4)& (0+255),b
  4682   001FA4                     l3236:
  4683                           
  4684                           ; BSR set to: 0
  4685   001FA4  0EC0               	movlw	192
  4686   001FA6  6F6B               	movwf	(_inPipes+3)& (0+255),b
  4687   001FA8  EFFA  F00F         	goto	l3248
  4688   001FAC                     l3238:
  4689                           
  4690                           ; BSR set to: 4
  4691                           ;../source/usb/usb_device_hid.c: 143:                 {;../source/usb/usb_device_hid.c: 
      +                          144:                     { inPipes[0].pSrc.bRom = (const uint8_t*)&hid_rpt01; inPipes[0]
      +                          .wCount.Val = 25; inPipes[0].info.Val = 0x40 | 0x80 | 0x00; };
  4692   001FAC  0E77               	movlw	low _hid_rpt01
  4693   001FAE  0100               	movlb	0	; () banked
  4694   001FB0  6F68               	movwf	_inPipes& (0+255),b
  4695   001FB2  0E08               	movlw	high _hid_rpt01
  4696   001FB4  6F69               	movwf	(_inPipes+1)& (0+255),b
  4697   001FB6                     
  4698                           ; BSR set to: 0
  4699   001FB6  0E00               	movlw	0
  4700   001FB8  6F6D               	movwf	(_inPipes+5)& (0+255),b
  4701   001FBA  0E19               	movlw	25
  4702   001FBC  6F6C               	movwf	(_inPipes+4)& (0+255),b
  4703   001FBE  EFD2  F00F         	goto	l3236
  4704   001FC2                     l3246:
  4705                           
  4706                           ; BSR set to: 4
  4707   001FC2  5123               	movf	35,w,b	;volatile
  4708   001FC4  6E01               	movwf	??_USBCheckHIDRequest^0,c
  4709   001FC6  6A02               	clrf	(??_USBCheckHIDRequest+1)^0,c
  4710                           
  4711                           ; Switch on 2 bytes has been partitioned into a top level switch of size 1, and 1 sub-sw
      +                          itches
  4712                           ; Switch size 1, requested type "simple"
  4713                           ; Number of cases is 1, Range of values is 0 to 0
  4714                           ; switch strategies available:
  4715                           ; Name         Instructions Cycles
  4716                           ; simple_byte            4     3 (average)
  4717                           ;	Chosen strategy is simple_byte
  4718   001FC8  5002               	movf	(??_USBCheckHIDRequest+1)^0,w,c
  4719   001FCA  0A00               	xorlw	0	; case 0
  4720   001FCC  B4D8               	btfsc	status,2,c
  4721   001FCE  EFEB  F00F         	goto	l4946
  4722   001FD2  EFFA  F00F         	goto	l3248
  4723   001FD6                     l4946:
  4724                           
  4725                           ; BSR set to: 4
  4726                           ; Switch size 1, requested type "simple"
  4727                           ; Number of cases is 3, Range of values is 33 to 35
  4728                           ; switch strategies available:
  4729                           ; Name         Instructions Cycles
  4730                           ; simple_byte           10     6 (average)
  4731                           ;	Chosen strategy is simple_byte
  4732   001FD6  5001               	movf	??_USBCheckHIDRequest^0,w,c
  4733   001FD8  0A21               	xorlw	33	; case 33
  4734   001FDA  B4D8               	btfsc	status,2,c
  4735   001FDC  EFC1  F00F         	goto	l3230
  4736   001FE0  0A03               	xorlw	3	; case 34
  4737   001FE2  B4D8               	btfsc	status,2,c
  4738   001FE4  EFD6  F00F         	goto	l3238
  4739   001FE8  0A01               	xorlw	1	; case 35
  4740   001FEA  B4D8               	btfsc	status,2,c
  4741   001FEC  EFFA  F00F         	goto	l3248
  4742   001FF0  EFFA  F00F         	goto	l3248
  4743   001FF4                     l3248:
  4744                           
  4745                           ;../source/usb/usb_device_hid.c: 166:     if(SetupPkt.RequestType != (0x20>>5))
  4746   001FF4  0104               	movlb	4	; () banked
  4747   001FF6  3920               	swapf	32,w,b	;volatile
  4748   001FF8  32E8               	rrcf	wreg,f,c
  4749   001FFA  0B03               	andlw	3
  4750   001FFC  06E8               	decf	wreg,f,c
  4751   001FFE  B4D8               	btfsc	status,2,c
  4752   002000  EF04  F010         	goto	u2301
  4753   002004  EF06  F010         	goto	u2300
  4754   002008                     u2301:
  4755   002008  EF30  F010         	goto	l3274
  4756   00200C                     u2300:
  4757   00200C  EF55  F010         	goto	l419
  4758   002010                     l3252:
  4759                           
  4760                           ; BSR set to: 4
  4761                           ;../source/usb/usb_device_hid.c: 184:             { inPipes[0].pSrc.bRam = (uint8_t*)&id
      +                          le_rate; inPipes[0].wCount.Val = 1; inPipes[0].info.Val = 0x40 | 0x80 | 0x01; };
  4762   002010  0E8D               	movlw	low _idle_rate
  4763   002012  0100               	movlb	0	; () banked
  4764   002014  6F68               	movwf	_inPipes& (0+255),b
  4765   002016  0E00               	movlw	high _idle_rate
  4766   002018  6F69               	movwf	(_inPipes+1)& (0+255),b
  4767   00201A                     
  4768                           ; BSR set to: 0
  4769   00201A  0E00               	movlw	0
  4770   00201C  6F6D               	movwf	(_inPipes+5)& (0+255),b
  4771   00201E  0E01               	movlw	1
  4772   002020  6F6C               	movwf	(_inPipes+4)& (0+255),b
  4773   002022                     
  4774                           ; BSR set to: 0
  4775   002022  0EC1               	movlw	193
  4776   002024  6F6B               	movwf	(_inPipes+3)& (0+255),b
  4777                           
  4778                           ;../source/usb/usb_device_hid.c: 188:             break;
  4779   002026  EF55  F010         	goto	l419
  4780   00202A                     l3258:
  4781                           
  4782                           ; BSR set to: 4
  4783                           ;../source/usb/usb_device_hid.c: 190:             inPipes[0].info.Val = 0x00 | 0x80;
  4784   00202A  0E80               	movlw	128
  4785   00202C  0100               	movlb	0	; () banked
  4786   00202E  6F6B               	movwf	(_inPipes+3)& (0+255),b
  4787   002030                     
  4788                           ; BSR set to: 0
  4789                           ;../source/usb/usb_device_hid.c: 191:             idle_rate = SetupPkt.W_Value.byte.HB;
  4790   002030  C423 F08D          	movff	1059,_idle_rate	;volatile
  4791                           
  4792                           ;../source/usb/usb_device_hid.c: 193:             break;
  4793   002034  EF55  F010         	goto	l419
  4794   002038                     l3262:
  4795                           
  4796                           ; BSR set to: 4
  4797                           ;../source/usb/usb_device_hid.c: 195:             { inPipes[0].pSrc.bRam = (uint8_t*)&ac
      +                          tive_protocol; inPipes[0].wCount.Val = 1; inPipes[0].info.Val = 0x00 | 0x80 | 0x01; };
  4798   002038  0E8C               	movlw	low _active_protocol
  4799   00203A  0100               	movlb	0	; () banked
  4800   00203C  6F68               	movwf	_inPipes& (0+255),b
  4801   00203E  0E00               	movlw	high _active_protocol
  4802   002040  6F69               	movwf	(_inPipes+1)& (0+255),b
  4803   002042                     
  4804                           ; BSR set to: 0
  4805   002042  0E00               	movlw	0
  4806   002044  6F6D               	movwf	(_inPipes+5)& (0+255),b
  4807   002046  0E01               	movlw	1
  4808   002048  6F6C               	movwf	(_inPipes+4)& (0+255),b
  4809   00204A                     
  4810                           ; BSR set to: 0
  4811   00204A  0E81               	movlw	129
  4812   00204C  6F6B               	movwf	(_inPipes+3)& (0+255),b
  4813                           
  4814                           ;../source/usb/usb_device_hid.c: 199:             break;
  4815   00204E  EF55  F010         	goto	l419
  4816   002052                     l3268:
  4817                           
  4818                           ; BSR set to: 4
  4819                           ;../source/usb/usb_device_hid.c: 201:             inPipes[0].info.Val = 0x00 | 0x80;
  4820   002052  0E80               	movlw	128
  4821   002054  0100               	movlb	0	; () banked
  4822   002056  6F6B               	movwf	(_inPipes+3)& (0+255),b
  4823   002058                     
  4824                           ; BSR set to: 0
  4825                           ;../source/usb/usb_device_hid.c: 202:             active_protocol = SetupPkt.W_Value.byt
      +                          e.LB;
  4826   002058  C422 F08C          	movff	1058,_active_protocol	;volatile
  4827                           
  4828                           ;../source/usb/usb_device_hid.c: 203:             break;
  4829   00205C  EF55  F010         	goto	l419
  4830   002060                     l3274:
  4831                           
  4832                           ; BSR set to: 4
  4833   002060  5121               	movf	33,w,b	;volatile
  4834   002062  6E01               	movwf	??_USBCheckHIDRequest^0,c
  4835   002064  6A02               	clrf	(??_USBCheckHIDRequest+1)^0,c
  4836                           
  4837                           ; Switch on 2 bytes has been partitioned into a top level switch of size 1, and 1 sub-sw
      +                          itches
  4838                           ; Switch size 1, requested type "simple"
  4839                           ; Number of cases is 1, Range of values is 0 to 0
  4840                           ; switch strategies available:
  4841                           ; Name         Instructions Cycles
  4842                           ; simple_byte            4     3 (average)
  4843                           ;	Chosen strategy is simple_byte
  4844   002066  5002               	movf	(??_USBCheckHIDRequest+1)^0,w,c
  4845   002068  0A00               	xorlw	0	; case 0
  4846   00206A  B4D8               	btfsc	status,2,c
  4847   00206C  EF3A  F010         	goto	l4948
  4848   002070  EF55  F010         	goto	l419
  4849   002074                     l4948:
  4850                           
  4851                           ; BSR set to: 4
  4852                           ; Switch size 1, requested type "simple"
  4853                           ; Number of cases is 6, Range of values is 1 to 11
  4854                           ; switch strategies available:
  4855                           ; Name         Instructions Cycles
  4856                           ; simple_byte           19    10 (average)
  4857                           ;	Chosen strategy is simple_byte
  4858   002074  5001               	movf	??_USBCheckHIDRequest^0,w,c
  4859   002076  0A01               	xorlw	1	; case 1
  4860   002078  B4D8               	btfsc	status,2,c
  4861   00207A  EF55  F010         	goto	l419
  4862   00207E  0A03               	xorlw	3	; case 2
  4863   002080  B4D8               	btfsc	status,2,c
  4864   002082  EF08  F010         	goto	l3252
  4865   002086  0A01               	xorlw	1	; case 3
  4866   002088  B4D8               	btfsc	status,2,c
  4867   00208A  EF1C  F010         	goto	l3262
  4868   00208E  0A0A               	xorlw	10	; case 9
  4869   002090  B4D8               	btfsc	status,2,c
  4870   002092  EF55  F010         	goto	l419
  4871   002096  0A03               	xorlw	3	; case 10
  4872   002098  B4D8               	btfsc	status,2,c
  4873   00209A  EF15  F010         	goto	l3258
  4874   00209E  0A01               	xorlw	1	; case 11
  4875   0020A0  B4D8               	btfsc	status,2,c
  4876   0020A2  EF29  F010         	goto	l3268
  4877   0020A6  EF55  F010         	goto	l419
  4878   0020AA                     l419:
  4879   0020AA  0012               	return		;funcret
  4880   0020AC                     __end_of_USBCheckHIDRequest:
  4881                           	callstack 0
  4882                           
  4883 ;; *************** function _SYSTEM_Initialize *****************
  4884 ;; Defined at:
  4885 ;;		line 57 in file "system.c"
  4886 ;; Parameters:    Size  Location     Type
  4887 ;;  state           1    wreg     enum E3889
  4888 ;; Auto vars:     Size  Location     Type
  4889 ;;  state           1    5[COMRAM] enum E3889
  4890 ;; Return value:  Size  Location     Type
  4891 ;;                  1    wreg      void 
  4892 ;; Registers used:
  4893 ;;		wreg, status,2, status,0, cstack
  4894 ;; Tracked objects:
  4895 ;;		On entry : 0/0
  4896 ;;		On exit  : 0/0
  4897 ;;		Unchanged: 0/0
  4898 ;; Data sizes:     COMRAM   BANK0   BANK1   BANK2   BANK3   BANK4   BANK5   BANK6   BANK7
  4899 ;;      Params:         0       0       0       0       0       0       0       0       0
  4900 ;;      Locals:         1       0       0       0       0       0       0       0       0
  4901 ;;      Temps:          2       0       0       0       0       0       0       0       0
  4902 ;;      Totals:         3       0       0       0       0       0       0       0       0
  4903 ;;Total ram usage:        3 bytes
  4904 ;; Hardware stack levels used: 1
  4905 ;; Hardware stack levels required when called: 2
  4906 ;; This function calls:
  4907 ;;		_ADC_Enable
  4908 ;;		_ADC_SetConfiguration
  4909 ;; This function is called by:
  4910 ;;		_USER_USB_CALLBACK_EVENT_HANDLER
  4911 ;;		_main
  4912 ;; This function uses a non-reentrant model
  4913 ;;
  4914                           
  4915                           	psect	text20
  4916   003400                     __ptext20:
  4917                           	callstack 0
  4918   003400                     _SYSTEM_Initialize:
  4919                           	callstack 26
  4920                           
  4921                           ;incstack = 0
  4922                           ;SYSTEM_Initialize@state stored from wreg
  4923   003400  6E06               	movwf	SYSTEM_Initialize@state^0,c
  4924   003402                     
  4925                           ;system.c: 57: void SYSTEM_Initialize( SYSTEM_STATE state );system.c: 58: {;system.c: 59
      +                          :     switch(state)
  4926   003402  EF11  F01A         	goto	l3296
  4927   003406                     l3286:
  4928                           
  4929                           ;system.c: 65:             ADC_SetConfiguration(ADC_CONFIGURATION_DEFAULT);
  4930   003406  0E00               	movlw	0
  4931   003408  EC48  F01B         	call	_ADC_SetConfiguration
  4932   00340C                     
  4933                           ;system.c: 66:             ADC_Enable(ADC_CHANNEL_0);
  4934   00340C  0E00               	movlw	0
  4935   00340E  EC53  F01A         	call	_ADC_Enable
  4936   003412                     
  4937                           ;system.c: 67:             ADC_Enable(ADC_CHANNEL_1);
  4938   003412  0E01               	movlw	1
  4939   003414  EC53  F01A         	call	_ADC_Enable
  4940   003418                     
  4941                           ;system.c: 68:             ADC_Enable(ADC_CHANNEL_2);
  4942   003418  0E02               	movlw	2
  4943   00341A  EC53  F01A         	call	_ADC_Enable
  4944                           
  4945                           ;system.c: 70:             break;
  4946   00341E  EF2A  F01A         	goto	l589
  4947   003422                     l3296:
  4948   003422  5006               	movf	SYSTEM_Initialize@state^0,w,c
  4949   003424  6E04               	movwf	??_SYSTEM_Initialize^0,c
  4950   003426  6A05               	clrf	(??_SYSTEM_Initialize+1)^0,c
  4951                           
  4952                           ; Switch on 2 bytes has been partitioned into a top level switch of size 1, and 1 sub-sw
      +                          itches
  4953                           ; Switch size 1, requested type "simple"
  4954                           ; Number of cases is 1, Range of values is 0 to 0
  4955                           ; switch strategies available:
  4956                           ; Name         Instructions Cycles
  4957                           ; simple_byte            4     3 (average)
  4958                           ;	Chosen strategy is simple_byte
  4959   003428  5005               	movf	(??_SYSTEM_Initialize+1)^0,w,c
  4960   00342A  0A00               	xorlw	0	; case 0
  4961   00342C  B4D8               	btfsc	status,2,c
  4962   00342E  EF1B  F01A         	goto	l4950
  4963   003432  EF2A  F01A         	goto	l589
  4964   003436                     l4950:
  4965                           
  4966                           ; Switch size 1, requested type "simple"
  4967                           ; Number of cases is 3, Range of values is 0 to 2
  4968                           ; switch strategies available:
  4969                           ; Name         Instructions Cycles
  4970                           ; simple_byte           10     6 (average)
  4971                           ;	Chosen strategy is simple_byte
  4972   003436  5004               	movf	??_SYSTEM_Initialize^0,w,c
  4973   003438  0A00               	xorlw	0	; case 0
  4974   00343A  B4D8               	btfsc	status,2,c
  4975   00343C  EF03  F01A         	goto	l3286
  4976   003440  0A01               	xorlw	1	; case 1
  4977   003442  B4D8               	btfsc	status,2,c
  4978   003444  EF2A  F01A         	goto	l589
  4979   003448  0A03               	xorlw	3	; case 2
  4980   00344A  B4D8               	btfsc	status,2,c
  4981   00344C  EF2A  F01A         	goto	l589
  4982   003450  EF2A  F01A         	goto	l589
  4983   003454                     l589:
  4984   003454  0012               	return		;funcret
  4985   003456                     __end_of_SYSTEM_Initialize:
  4986                           	callstack 0
  4987                           
  4988 ;; *************** function _ADC_SetConfiguration *****************
  4989 ;; Defined at:
  4990 ;;		line 178 in file "../source/adc.c"
  4991 ;; Parameters:    Size  Location     Type
  4992 ;;  configuratio    1    wreg     enum E48
  4993 ;; Auto vars:     Size  Location     Type
  4994 ;;  configuratio    1    0[COMRAM] enum E48
  4995 ;; Return value:  Size  Location     Type
  4996 ;;                  1    wreg      _Bool 
  4997 ;; Registers used:
  4998 ;;		wreg, status,2
  4999 ;; Tracked objects:
  5000 ;;		On entry : 0/0
  5001 ;;		On exit  : 0/0
  5002 ;;		Unchanged: 0/0
  5003 ;; Data sizes:     COMRAM   BANK0   BANK1   BANK2   BANK3   BANK4   BANK5   BANK6   BANK7
  5004 ;;      Params:         0       0       0       0       0       0       0       0       0
  5005 ;;      Locals:         1       0       0       0       0       0       0       0       0
  5006 ;;      Temps:          0       0       0       0       0       0       0       0       0
  5007 ;;      Totals:         1       0       0       0       0       0       0       0       0
  5008 ;;Total ram usage:        1 bytes
  5009 ;; Hardware stack levels used: 1
  5010 ;; Hardware stack levels required when called: 1
  5011 ;; This function calls:
  5012 ;;		Nothing
  5013 ;; This function is called by:
  5014 ;;		_SYSTEM_Initialize
  5015 ;; This function uses a non-reentrant model
  5016 ;;
  5017                           
  5018                           	psect	text21
  5019   003690                     __ptext21:
  5020                           	callstack 0
  5021   003690                     _ADC_SetConfiguration:
  5022                           	callstack 26
  5023                           
  5024                           ;incstack = 0
  5025                           ;ADC_SetConfiguration@configuration stored from wreg
  5026   003690  6E01               	movwf	ADC_SetConfiguration@configuration^0,c
  5027   003692                     
  5028                           ;../source/adc.c: 178: _Bool ADC_SetConfiguration(ADC_CONFIGURATION configuration);../so
      +                          urce/adc.c: 179: {;../source/adc.c: 180:     if(configuration == ADC_CONFIGURATION_DEFAU
      +                          LT)
  5029   003692  5001               	movf	ADC_SetConfiguration@configuration^0,w,c
  5030   003694  A4D8               	btfss	status,2,c
  5031   003696  EF4F  F01B         	goto	u2251
  5032   00369A  EF51  F01B         	goto	u2250
  5033   00369E                     u2251:
  5034   00369E  EF5A  F01B         	goto	l511
  5035   0036A2                     u2250:
  5036   0036A2                     
  5037                           ;../source/adc.c: 181:     {;../source/adc.c: 182:         ADCON0=0x01;
  5038   0036A2  0E01               	movlw	1
  5039   0036A4  6EC2               	movwf	194,c	;volatile
  5040   0036A6                     
  5041                           ;../source/adc.c: 183:         ADCON1bits.PCFG = 0b0101;
  5042   0036A6  50C1               	movf	193,w,c	;volatile
  5043   0036A8  0BF0               	andlw	-16
  5044   0036AA  0905               	iorlw	5
  5045   0036AC  6EC1               	movwf	193,c	;volatile
  5046   0036AE                     
  5047                           ;../source/adc.c: 184:         ADCON2=0x3C;
  5048   0036AE  0E3C               	movlw	60
  5049   0036B0  6EC0               	movwf	192,c	;volatile
  5050   0036B2                     
  5051                           ;../source/adc.c: 185:         ADCON2bits.ADFM = 1;
  5052   0036B2  8EC0               	bsf	192,7,c	;volatile
  5053   0036B4                     l511:
  5054   0036B4  0012               	return		;funcret
  5055   0036B6                     __end_of_ADC_SetConfiguration:
  5056                           	callstack 0
  5057                           
  5058 ;; *************** function _ADC_Enable *****************
  5059 ;; Defined at:
  5060 ;;		line 125 in file "../source/adc.c"
  5061 ;; Parameters:    Size  Location     Type
  5062 ;;  channel         1    wreg     enum E36
  5063 ;; Auto vars:     Size  Location     Type
  5064 ;;  channel         1    2[COMRAM] enum E36
  5065 ;; Return value:  Size  Location     Type
  5066 ;;                  1    wreg      _Bool 
  5067 ;; Registers used:
  5068 ;;		wreg, status,2, status,0
  5069 ;; Tracked objects:
  5070 ;;		On entry : 0/0
  5071 ;;		On exit  : 0/0
  5072 ;;		Unchanged: 0/0
  5073 ;; Data sizes:     COMRAM   BANK0   BANK1   BANK2   BANK3   BANK4   BANK5   BANK6   BANK7
  5074 ;;      Params:         0       0       0       0       0       0       0       0       0
  5075 ;;      Locals:         1       0       0       0       0       0       0       0       0
  5076 ;;      Temps:          2       0       0       0       0       0       0       0       0
  5077 ;;      Totals:         3       0       0       0       0       0       0       0       0
  5078 ;;Total ram usage:        3 bytes
  5079 ;; Hardware stack levels used: 1
  5080 ;; Hardware stack levels required when called: 1
  5081 ;; This function calls:
  5082 ;;		Nothing
  5083 ;; This function is called by:
  5084 ;;		_SYSTEM_Initialize
  5085 ;; This function uses a non-reentrant model
  5086 ;;
  5087                           
  5088                           	psect	text22
  5089   0034A6                     __ptext22:
  5090                           	callstack 0
  5091   0034A6                     _ADC_Enable:
  5092                           	callstack 26
  5093                           
  5094                           ;incstack = 0
  5095                           ;ADC_Enable@channel stored from wreg
  5096   0034A6  6E03               	movwf	ADC_Enable@channel^0,c
  5097   0034A8                     
  5098                           ;../source/adc.c: 125: _Bool ADC_Enable(ADC_CHANNEL channel);../source/adc.c: 126: {;../
      +                          source/adc.c: 127:     switch(channel)
  5099   0034A8  EF5F  F01A         	goto	l3200
  5100   0034AC                     l502:
  5101                           
  5102                           ;../source/adc.c: 130:             TRISAbits.TRISA0 = 1;
  5103   0034AC  8092               	bsf	146,0,c	;volatile
  5104                           
  5105                           ;../source/adc.c: 131:             return 1;;	Return value of _ADC_Enable is never used
  5106   0034AE  EF78  F01A         	goto	l503
  5107   0034B2                     l504:
  5108                           
  5109                           ;../source/adc.c: 133:             TRISAbits.TRISA1 = 1;
  5110   0034B2  8292               	bsf	146,1,c	;volatile
  5111                           
  5112                           ;../source/adc.c: 134:             return 1;;	Return value of _ADC_Enable is never used
  5113   0034B4  EF78  F01A         	goto	l503
  5114   0034B8                     l505:
  5115                           
  5116                           ;../source/adc.c: 136:             TRISAbits.TRISA2 = 1;
  5117   0034B8  8492               	bsf	146,2,c	;volatile
  5118                           
  5119                           ;../source/adc.c: 137:             return 1;;	Return value of _ADC_Enable is never used
  5120   0034BA  EF78  F01A         	goto	l503
  5121   0034BE                     l3200:
  5122   0034BE  5003               	movf	ADC_Enable@channel^0,w,c
  5123   0034C0  6E01               	movwf	??_ADC_Enable^0,c
  5124   0034C2  6A02               	clrf	(??_ADC_Enable+1)^0,c
  5125                           
  5126                           ; Switch on 2 bytes has been partitioned into a top level switch of size 1, and 1 sub-sw
      +                          itches
  5127                           ; Switch size 1, requested type "simple"
  5128                           ; Number of cases is 1, Range of values is 0 to 0
  5129                           ; switch strategies available:
  5130                           ; Name         Instructions Cycles
  5131                           ; simple_byte            4     3 (average)
  5132                           ;	Chosen strategy is simple_byte
  5133   0034C4  5002               	movf	(??_ADC_Enable+1)^0,w,c
  5134   0034C6  0A00               	xorlw	0	; case 0
  5135   0034C8  B4D8               	btfsc	status,2,c
  5136   0034CA  EF69  F01A         	goto	l4952
  5137   0034CE  EF78  F01A         	goto	l503
  5138   0034D2                     l4952:
  5139                           
  5140                           ; Switch size 1, requested type "simple"
  5141                           ; Number of cases is 3, Range of values is 0 to 2
  5142                           ; switch strategies available:
  5143                           ; Name         Instructions Cycles
  5144                           ; simple_byte           10     6 (average)
  5145                           ;	Chosen strategy is simple_byte
  5146   0034D2  5001               	movf	??_ADC_Enable^0,w,c
  5147   0034D4  0A00               	xorlw	0	; case 0
  5148   0034D6  B4D8               	btfsc	status,2,c
  5149   0034D8  EF56  F01A         	goto	l502
  5150   0034DC  0A01               	xorlw	1	; case 1
  5151   0034DE  B4D8               	btfsc	status,2,c
  5152   0034E0  EF59  F01A         	goto	l504
  5153   0034E4  0A03               	xorlw	3	; case 2
  5154   0034E6  B4D8               	btfsc	status,2,c
  5155   0034E8  EF5C  F01A         	goto	l505
  5156   0034EC  EF78  F01A         	goto	l503
  5157   0034F0                     l503:
  5158   0034F0  0012               	return		;funcret
  5159   0034F2                     __end_of_ADC_Enable:
  5160                           	callstack 0
  5161                           
  5162 ;; *************** function _APP_DeviceJoystickInitialize *****************
  5163 ;; Defined at:
  5164 ;;		line 102 in file "../source/app_device_joystick.c"
  5165 ;; Parameters:    Size  Location     Type
  5166 ;;		None
  5167 ;; Auto vars:     Size  Location     Type
  5168 ;;		None
  5169 ;; Return value:  Size  Location     Type
  5170 ;;                  1    wreg      void 
  5171 ;; Registers used:
  5172 ;;		wreg, fsr2l, fsr2h, status,2, status,0, prodl, prodh, cstack
  5173 ;; Tracked objects:
  5174 ;;		On entry : 0/0
  5175 ;;		On exit  : 0/0
  5176 ;;		Unchanged: 0/0
  5177 ;; Data sizes:     COMRAM   BANK0   BANK1   BANK2   BANK3   BANK4   BANK5   BANK6   BANK7
  5178 ;;      Params:         0       0       0       0       0       0       0       0       0
  5179 ;;      Locals:         0       0       0       0       0       0       0       0       0
  5180 ;;      Temps:          0       0       0       0       0       0       0       0       0
  5181 ;;      Totals:         0       0       0       0       0       0       0       0       0
  5182 ;;Total ram usage:        0 bytes
  5183 ;; Hardware stack levels used: 1
  5184 ;; Hardware stack levels required when called: 3
  5185 ;; This function calls:
  5186 ;;		_USBEnableEndpoint
  5187 ;; This function is called by:
  5188 ;;		_USER_USB_CALLBACK_EVENT_HANDLER
  5189 ;; This function uses a non-reentrant model
  5190 ;;
  5191                           
  5192                           	psect	text23
  5193   0036B6                     __ptext23:
  5194                           	callstack 0
  5195   0036B6                     _APP_DeviceJoystickInitialize:
  5196                           	callstack 25
  5197   0036B6                     
  5198                           ;../source/app_device_joystick.c: 106:     lastTransmission = 0;
  5199   0036B6  0E00               	movlw	0
  5200   0036B8  0100               	movlb	0	; () banked
  5201   0036BA  6F76               	movwf	_lastTransmission& (0+255),b
  5202   0036BC  0E00               	movlw	0
  5203   0036BE  6F77               	movwf	(_lastTransmission+1)& (0+255),b
  5204   0036C0                     
  5205                           ; BSR set to: 0
  5206                           ;../source/app_device_joystick.c: 109:     USBEnableEndpoint(1,0x02|0x10|0x08);
  5207   0036C0  0E1A               	movlw	26
  5208   0036C2  6E0B               	movwf	USBEnableEndpoint@options^0,c
  5209   0036C4  0E01               	movlw	1
  5210   0036C6  EC79  F01A         	call	_USBEnableEndpoint
  5211   0036CA  0012               	return		;funcret
  5212   0036CC                     __end_of_APP_DeviceJoystickInitialize:
  5213                           	callstack 0
  5214                           
  5215 ;; *************** function _USBEnableEndpoint *****************
  5216 ;; Defined at:
  5217 ;;		line 838 in file "../source/usb/usb_device.c"
  5218 ;; Parameters:    Size  Location     Type
  5219 ;;  ep              1    wreg     unsigned char 
  5220 ;;  options         1   10[COMRAM] unsigned char 
  5221 ;; Auto vars:     Size  Location     Type
  5222 ;;  ep              1   13[COMRAM] unsigned char 
  5223 ;;  p               2   11[COMRAM] PTR unsigned char 
  5224 ;;		 -> UEP0(1), 
  5225 ;; Return value:  Size  Location     Type
  5226 ;;                  1    wreg      void 
  5227 ;; Registers used:
  5228 ;;		wreg, fsr2l, fsr2h, status,2, status,0, prodl, prodh, cstack
  5229 ;; Tracked objects:
  5230 ;;		On entry : 0/0
  5231 ;;		On exit  : 0/0
  5232 ;;		Unchanged: 0/0
  5233 ;; Data sizes:     COMRAM   BANK0   BANK1   BANK2   BANK3   BANK4   BANK5   BANK6   BANK7
  5234 ;;      Params:         1       0       0       0       0       0       0       0       0
  5235 ;;      Locals:         3       0       0       0       0       0       0       0       0
  5236 ;;      Temps:          0       0       0       0       0       0       0       0       0
  5237 ;;      Totals:         4       0       0       0       0       0       0       0       0
  5238 ;;Total ram usage:        4 bytes
  5239 ;; Hardware stack levels used: 1
  5240 ;; Hardware stack levels required when called: 2
  5241 ;; This function calls:
  5242 ;;		_USBConfigureEndpoint
  5243 ;; This function is called by:
  5244 ;;		_APP_DeviceJoystickInitialize
  5245 ;; This function uses a non-reentrant model
  5246 ;;
  5247                           
  5248                           	psect	text24
  5249   0034F2                     __ptext24:
  5250                           	callstack 0
  5251   0034F2                     _USBEnableEndpoint:
  5252                           	callstack 25
  5253                           
  5254                           ;incstack = 0
  5255                           ;USBEnableEndpoint@ep stored from wreg
  5256   0034F2  6E0E               	movwf	USBEnableEndpoint@ep^0,c
  5257   0034F4                     
  5258                           ;../source/usb/usb_device.c: 838: void USBEnableEndpoint(uint8_t ep, uint8_t options);..
      +                          /source/usb/usb_device.c: 839: {;../source/usb/usb_device.c: 840:     unsigned char* p;;
      +                          ../source/usb/usb_device.c: 844:     if(options & 0x04)
  5259   0034F4  A40B               	btfss	USBEnableEndpoint@options^0,2,c
  5260   0034F6  EF7F  F01A         	goto	u2231
  5261   0034FA  EF81  F01A         	goto	u2230
  5262   0034FE                     u2231:
  5263   0034FE  EF86  F01A         	goto	l3188
  5264   003502                     u2230:
  5265   003502                     
  5266                           ;../source/usb/usb_device.c: 845:     {;../source/usb/usb_device.c: 846:         USBConf
      +                          igureEndpoint(ep, 0);
  5267   003502  0E00               	movlw	0
  5268   003504  6E01               	movwf	USBConfigureEndpoint@direction^0,c
  5269   003506  500E               	movf	USBEnableEndpoint@ep^0,w,c
  5270   003508  EC69  F018         	call	_USBConfigureEndpoint
  5271   00350C                     l3188:
  5272                           
  5273                           ;../source/usb/usb_device.c: 848:     if(options & 0x02)
  5274   00350C  A20B               	btfss	USBEnableEndpoint@options^0,1,c
  5275   00350E  EF8B  F01A         	goto	u2241
  5276   003512  EF8D  F01A         	goto	u2240
  5277   003516                     u2241:
  5278   003516  EF92  F01A         	goto	l3192
  5279   00351A                     u2240:
  5280   00351A                     
  5281                           ;../source/usb/usb_device.c: 849:     {;../source/usb/usb_device.c: 850:         USBConf
      +                          igureEndpoint(ep, 1);
  5282   00351A  0E01               	movlw	1
  5283   00351C  6E01               	movwf	USBConfigureEndpoint@direction^0,c
  5284   00351E  500E               	movf	USBEnableEndpoint@ep^0,w,c
  5285   003520  EC69  F018         	call	_USBConfigureEndpoint
  5286   003524                     l3192:
  5287                           
  5288                           ;../source/usb/usb_device.c: 859:         p = (unsigned char*)(&UEP0+ep);
  5289   003524  0E70               	movlw	112
  5290   003526  240E               	addwf	USBEnableEndpoint@ep^0,w,c
  5291   003528  6E0C               	movwf	USBEnableEndpoint@p^0,c
  5292   00352A  6A0D               	clrf	(USBEnableEndpoint@p+1)^0,c
  5293   00352C  0E0F               	movlw	15
  5294   00352E  220D               	addwfc	(USBEnableEndpoint@p+1)^0,f,c
  5295   003530                     
  5296                           ;../source/usb/usb_device.c: 861:     *p = options;
  5297   003530  C00C  FFD9         	movff	USBEnableEndpoint@p,fsr2l
  5298   003534  C00D  FFDA         	movff	USBEnableEndpoint@p+1,fsr2h
  5299   003538  C00B  FFDF         	movff	USBEnableEndpoint@options,indf2
  5300   00353C  0012               	return		;funcret
  5301   00353E                     __end_of_USBEnableEndpoint:
  5302                           	callstack 0
  5303                           
  5304 ;; *************** function _USBConfigureEndpoint *****************
  5305 ;; Defined at:
  5306 ;;		line 1503 in file "../source/usb/usb_device.c"
  5307 ;; Parameters:    Size  Location     Type
  5308 ;;  EPNum           1    wreg     unsigned char 
  5309 ;;  direction       1    0[COMRAM] unsigned char 
  5310 ;; Auto vars:     Size  Location     Type
  5311 ;;  EPNum           1    7[COMRAM] unsigned char 
  5312 ;;  handle          2    8[COMRAM] PTR volatile struct __BD
  5313 ;;		 -> BDT(32), 
  5314 ;; Return value:  Size  Location     Type
  5315 ;;                  1    wreg      void 
  5316 ;; Registers used:
  5317 ;;		wreg, fsr2l, fsr2h, status,2, status,0, prodl, prodh
  5318 ;; Tracked objects:
  5319 ;;		On entry : 0/0
  5320 ;;		On exit  : 0/0
  5321 ;;		Unchanged: 0/0
  5322 ;; Data sizes:     COMRAM   BANK0   BANK1   BANK2   BANK3   BANK4   BANK5   BANK6   BANK7
  5323 ;;      Params:         1       0       0       0       0       0       0       0       0
  5324 ;;      Locals:         3       0       0       0       0       0       0       0       0
  5325 ;;      Temps:          6       0       0       0       0       0       0       0       0
  5326 ;;      Totals:        10       0       0       0       0       0       0       0       0
  5327 ;;Total ram usage:       10 bytes
  5328 ;; Hardware stack levels used: 1
  5329 ;; Hardware stack levels required when called: 1
  5330 ;; This function calls:
  5331 ;;		Nothing
  5332 ;; This function is called by:
  5333 ;;		_USBEnableEndpoint
  5334 ;; This function uses a non-reentrant model
  5335 ;;
  5336                           
  5337                           	psect	text25
  5338   0030D2                     __ptext25:
  5339                           	callstack 0
  5340   0030D2                     _USBConfigureEndpoint:
  5341                           	callstack 25
  5342                           
  5343                           ;incstack = 0
  5344                           ;USBConfigureEndpoint@EPNum stored from wreg
  5345   0030D2  6E08               	movwf	USBConfigureEndpoint@EPNum^0,c
  5346   0030D4                     
  5347                           ;../source/usb/usb_device.c: 1503: static void USBConfigureEndpoint(uint8_t EPNum, uint8
      +                          _t direction);../source/usb/usb_device.c: 1504: {;../source/usb/usb_device.c: 1505:     
      +                          volatile BDT_ENTRY* handle;;../source/usb/usb_device.c: 1509:     handle = (volatile BDT
      +                          _ENTRY*)&BDT[0];
  5348   0030D4  0E00               	movlw	0
  5349   0030D6  6E09               	movwf	USBConfigureEndpoint@handle^0,c
  5350   0030D8  0E04               	movlw	4
  5351   0030DA  6E0A               	movwf	(USBConfigureEndpoint@handle+1)^0,c
  5352   0030DC                     
  5353                           ;../source/usb/usb_device.c: 1510:     handle += (4*EPNum+2*direction+0u);
  5354   0030DC  5001               	movf	USBConfigureEndpoint@direction^0,w,c
  5355   0030DE  6E02               	movwf	??_USBConfigureEndpoint^0,c
  5356   0030E0  6A03               	clrf	(??_USBConfigureEndpoint+1)^0,c
  5357   0030E2  90D8               	bcf	status,0,c
  5358   0030E4  3602               	rlcf	??_USBConfigureEndpoint^0,f,c
  5359   0030E6  3603               	rlcf	(??_USBConfigureEndpoint+1)^0,f,c
  5360   0030E8  5008               	movf	USBConfigureEndpoint@EPNum^0,w,c
  5361   0030EA  6E04               	movwf	(??_USBConfigureEndpoint+2)^0,c
  5362   0030EC  6A05               	clrf	(??_USBConfigureEndpoint+3)^0,c
  5363   0030EE  90D8               	bcf	status,0,c
  5364   0030F0  3604               	rlcf	(??_USBConfigureEndpoint+2)^0,f,c
  5365   0030F2  3605               	rlcf	(??_USBConfigureEndpoint+3)^0,f,c
  5366   0030F4  90D8               	bcf	status,0,c
  5367   0030F6  3604               	rlcf	(??_USBConfigureEndpoint+2)^0,f,c
  5368   0030F8  3605               	rlcf	(??_USBConfigureEndpoint+3)^0,f,c
  5369   0030FA  5002               	movf	??_USBConfigureEndpoint^0,w,c
  5370   0030FC  2404               	addwf	(??_USBConfigureEndpoint+2)^0,w,c
  5371   0030FE  6E06               	movwf	(??_USBConfigureEndpoint+4)^0,c
  5372   003100  5003               	movf	(??_USBConfigureEndpoint+1)^0,w,c
  5373   003102  2005               	addwfc	(??_USBConfigureEndpoint+3)^0,w,c
  5374   003104  6E07               	movwf	(??_USBConfigureEndpoint+5)^0,c
  5375   003106  90D8               	bcf	status,0,c
  5376   003108  3606               	rlcf	(??_USBConfigureEndpoint+4)^0,f,c
  5377   00310A  3607               	rlcf	(??_USBConfigureEndpoint+5)^0,f,c
  5378   00310C  90D8               	bcf	status,0,c
  5379   00310E  3606               	rlcf	(??_USBConfigureEndpoint+4)^0,f,c
  5380   003110  3607               	rlcf	(??_USBConfigureEndpoint+5)^0,f,c
  5381   003112  5006               	movf	(??_USBConfigureEndpoint+4)^0,w,c
  5382   003114  2609               	addwf	USBConfigureEndpoint@handle^0,f,c
  5383   003116  5007               	movf	(??_USBConfigureEndpoint+5)^0,w,c
  5384   003118  220A               	addwfc	(USBConfigureEndpoint@handle+1)^0,f,c
  5385   00311A                     
  5386                           ;../source/usb/usb_device.c: 1512:     handle->STAT.UOWN = 0;
  5387   00311A  C009  FFD9         	movff	USBConfigureEndpoint@handle,fsr2l
  5388   00311E  C00A  FFDA         	movff	USBConfigureEndpoint@handle+1,fsr2h
  5389   003122  9EDF               	bcf	indf2,7,c
  5390   003124                     
  5391                           ;../source/usb/usb_device.c: 1517:     if(direction == 0)
  5392   003124  5001               	movf	USBConfigureEndpoint@direction^0,w,c
  5393   003126  A4D8               	btfss	status,2,c
  5394   003128  EF98  F018         	goto	u2221
  5395   00312C  EF9A  F018         	goto	u2220
  5396   003130                     u2221:
  5397   003130  EFA8  F018         	goto	l3178
  5398   003134                     u2220:
  5399   003134                     
  5400                           ;../source/usb/usb_device.c: 1518:     {;../source/usb/usb_device.c: 1519:         pBDTE
      +                          ntryOut[EPNum] = handle;
  5401   003134  5008               	movf	USBConfigureEndpoint@EPNum^0,w,c
  5402   003136  0D02               	mullw	2
  5403   003138  0E72               	movlw	low _pBDTEntryOut
  5404   00313A  24F3               	addwf	243,w,c
  5405   00313C  6ED9               	movwf	fsr2l,c
  5406   00313E  0E00               	movlw	high _pBDTEntryOut
  5407   003140  20F4               	addwfc	prodh,w,c
  5408   003142  6EDA               	movwf	fsr2h,c
  5409   003144  C009  FFDE         	movff	USBConfigureEndpoint@handle,postinc2
  5410   003148  C00A  FFDD         	movff	USBConfigureEndpoint@handle+1,postdec2
  5411                           
  5412                           ;../source/usb/usb_device.c: 1520:     }
  5413   00314C  EFB4  F018         	goto	l3180
  5414   003150                     l3178:
  5415                           
  5416                           ;../source/usb/usb_device.c: 1522:     {;../source/usb/usb_device.c: 1523:         pBDTE
      +                          ntryIn[EPNum] = handle;
  5417   003150  5008               	movf	USBConfigureEndpoint@EPNum^0,w,c
  5418   003152  0D02               	mullw	2
  5419   003154  0E57               	movlw	low _pBDTEntryIn
  5420   003156  24F3               	addwf	243,w,c
  5421   003158  6ED9               	movwf	fsr2l,c
  5422   00315A  0E00               	movlw	high _pBDTEntryIn
  5423   00315C  20F4               	addwfc	prodh,w,c
  5424   00315E  6EDA               	movwf	fsr2h,c
  5425   003160  C009  FFDE         	movff	USBConfigureEndpoint@handle,postinc2
  5426   003164  C00A  FFDD         	movff	USBConfigureEndpoint@handle+1,postdec2
  5427   003168                     l3180:
  5428                           
  5429                           ;../source/usb/usb_device.c: 1527:         handle->STAT.DTS = 0;
  5430   003168  C009  FFD9         	movff	USBConfigureEndpoint@handle,fsr2l
  5431   00316C  C00A  FFDA         	movff	USBConfigureEndpoint@handle+1,fsr2h
  5432   003170  9CDF               	bcf	indf2,6,c
  5433   003172                     
  5434                           ;../source/usb/usb_device.c: 1528:         (handle+1)->STAT.DTS = 1;
  5435   003172  EE20 F004          	lfsr	2,4
  5436   003176  5009               	movf	USBConfigureEndpoint@handle^0,w,c
  5437   003178  26D9               	addwf	fsr2l,f,c
  5438   00317A  500A               	movf	(USBConfigureEndpoint@handle+1)^0,w,c
  5439   00317C  22DA               	addwfc	fsr2h,f,c
  5440   00317E  8CDF               	bsf	indf2,6,c
  5441   003180  0012               	return		;funcret
  5442   003182                     __end_of_USBConfigureEndpoint:
  5443                           	callstack 0
  5444                           
  5445 ;; *************** function _USBCtrlTrfOutHandler *****************
  5446 ;; Defined at:
  5447 ;;		line 2501 in file "../source/usb/usb_device.c"
  5448 ;; Parameters:    Size  Location     Type
  5449 ;;		None
  5450 ;; Auto vars:     Size  Location     Type
  5451 ;;		None
  5452 ;; Return value:  Size  Location     Type
  5453 ;;                  1    wreg      void 
  5454 ;; Registers used:
  5455 ;;		wreg, fsr1l, fsr1h, fsr2l, fsr2h, status,2, status,0, cstack
  5456 ;; Tracked objects:
  5457 ;;		On entry : 0/0
  5458 ;;		On exit  : 0/0
  5459 ;;		Unchanged: 0/0
  5460 ;; Data sizes:     COMRAM   BANK0   BANK1   BANK2   BANK3   BANK4   BANK5   BANK6   BANK7
  5461 ;;      Params:         0       0       0       0       0       0       0       0       0
  5462 ;;      Locals:         0       0       0       0       0       0       0       0       0
  5463 ;;      Temps:          0       0       0       0       0       0       0       0       0
  5464 ;;      Totals:         0       0       0       0       0       0       0       0       0
  5465 ;;Total ram usage:        0 bytes
  5466 ;; Hardware stack levels used: 1
  5467 ;; Hardware stack levels required when called: 3
  5468 ;; This function calls:
  5469 ;;		_USBCtrlTrfRxService
  5470 ;; This function is called by:
  5471 ;;		_USBCtrlEPService
  5472 ;; This function uses a non-reentrant model
  5473 ;;
  5474                           
  5475                           	psect	text26
  5476   00332A                     __ptext26:
  5477                           	callstack 0
  5478   00332A                     _USBCtrlTrfOutHandler:
  5479                           	callstack 25
  5480   00332A                     
  5481                           ;../source/usb/usb_device.c: 2503:     if(controlTransferState == 2)
  5482   00332A  0E02               	movlw	2
  5483   00332C  0100               	movlb	0	; () banked
  5484   00332E  1989               	xorwf	_controlTransferState& (0+255),w,b
  5485   003330  A4D8               	btfss	status,2,c
  5486   003332  EF9D  F019         	goto	u2961
  5487   003336  EF9F  F019         	goto	u2960
  5488   00333A                     u2961:
  5489   00333A  EFA3  F019         	goto	l3834
  5490   00333E                     u2960:
  5491   00333E                     
  5492                           ; BSR set to: 0
  5493                           ;../source/usb/usb_device.c: 2504:     {;../source/usb/usb_device.c: 2505:         USBCt
      +                          rlTrfRxService();
  5494   00333E  EC50  F012         	call	_USBCtrlTrfRxService	;wreg free
  5495                           
  5496                           ;../source/usb/usb_device.c: 2506:     }
  5497   003342  EFCF  F019         	goto	l319
  5498   003346                     l3834:
  5499                           
  5500                           ; BSR set to: 0
  5501                           ;../source/usb/usb_device.c: 2508:     {;../source/usb/usb_device.c: 2511:         contr
      +                          olTransferState = 0;
  5502   003346  0E00               	movlw	0
  5503   003348  6F89               	movwf	_controlTransferState& (0+255),b
  5504                           
  5505                           ;../source/usb/usb_device.c: 2518:         if(BothEP0OutUOWNsSet == 0)
  5506   00334A  5185               	movf	_BothEP0OutUOWNsSet& (0+255),w,b
  5507   00334C  A4D8               	btfss	status,2,c
  5508   00334E  EFAB  F019         	goto	u2971
  5509   003352  EFAD  F019         	goto	u2970
  5510   003356                     u2971:
  5511   003356  EFCD  F019         	goto	l3842
  5512   00335A                     u2970:
  5513   00335A                     
  5514                           ; BSR set to: 0
  5515                           ;../source/usb/usb_device.c: 2519:         {;../source/usb/usb_device.c: 2520:          
      +                             pBDTEntryEP0OutNext->CNT = 8;
  5516   00335A  EE20 F001          	lfsr	2,1
  5517   00335E  505B               	movf	_pBDTEntryEP0OutNext^0,w,c
  5518   003360  26D9               	addwf	fsr2l,f,c
  5519   003362  505C               	movf	(_pBDTEntryEP0OutNext+1)^0,w,c
  5520   003364  22DA               	addwfc	fsr2h,f,c
  5521   003366  0E08               	movlw	8
  5522   003368  6EDF               	movwf	indf2,c
  5523                           
  5524                           ;../source/usb/usb_device.c: 2521:             pBDTEntryEP0OutNext->ADR = ((uint16_t)(&S
      +                          etupPkt));
  5525   00336A  EE20 F002          	lfsr	2,2
  5526   00336E  505B               	movf	_pBDTEntryEP0OutNext^0,w,c
  5527   003370  26D9               	addwf	fsr2l,f,c
  5528   003372  505C               	movf	(_pBDTEntryEP0OutNext+1)^0,w,c
  5529   003374  22DA               	addwfc	fsr2h,f,c
  5530   003376  0E20               	movlw	32
  5531   003378  6EDE               	movwf	postinc2,c
  5532   00337A  0E04               	movlw	4
  5533   00337C  6EDD               	movwf	postdec2,c
  5534   00337E                     
  5535                           ; BSR set to: 0
  5536                           ;../source/usb/usb_device.c: 2522:             pBDTEntryEP0OutNext->STAT.Val = 0x00|(0x0
      +                          8 & 0x08)|0x04;
  5537   00337E  C05B  FFD9         	movff	_pBDTEntryEP0OutNext,fsr2l
  5538   003382  C05C  FFDA         	movff	_pBDTEntryEP0OutNext+1,fsr2h
  5539   003386  0E0C               	movlw	12
  5540   003388  6EDF               	movwf	indf2,c
  5541   00338A                     
  5542                           ; BSR set to: 0
  5543                           ;../source/usb/usb_device.c: 2523:             pBDTEntryEP0OutNext->STAT.Val |= 0x80;
  5544   00338A  C05B  FFD9         	movff	_pBDTEntryEP0OutNext,fsr2l
  5545   00338E  C05C  FFDA         	movff	_pBDTEntryEP0OutNext+1,fsr2h
  5546   003392  0E00               	movlw	0
  5547   003394  8EDB               	bsf	plusw2,7,c
  5548                           
  5549                           ;../source/usb/usb_device.c: 2524:         }
  5550   003396  EFCF  F019         	goto	l319
  5551   00339A                     l3842:
  5552                           
  5553                           ; BSR set to: 0
  5554                           ;../source/usb/usb_device.c: 2526:         {;../source/usb/usb_device.c: 2527:          
      +                             BothEP0OutUOWNsSet = 0;
  5555   00339A  0E00               	movlw	0
  5556   00339C  6F85               	movwf	_BothEP0OutUOWNsSet& (0+255),b
  5557   00339E                     l319:
  5558   00339E  0012               	return		;funcret
  5559   0033A0                     __end_of_USBCtrlTrfOutHandler:
  5560                           	callstack 0
  5561                           
  5562 ;; *************** function _USBCtrlTrfRxService *****************
  5563 ;; Defined at:
  5564 ;;		line 1812 in file "../source/usb/usb_device.c"
  5565 ;; Parameters:    Size  Location     Type
  5566 ;;		None
  5567 ;; Auto vars:     Size  Location     Type
  5568 ;;  byteToRead      1    1[COMRAM] unsigned char 
  5569 ;;  i               1    0[COMRAM] unsigned char 
  5570 ;; Return value:  Size  Location     Type
  5571 ;;                  1    wreg      void 
  5572 ;; Registers used:
  5573 ;;		wreg, fsr1l, fsr1h, fsr2l, fsr2h, status,2, status,0, cstack
  5574 ;; Tracked objects:
  5575 ;;		On entry : 0/0
  5576 ;;		On exit  : 0/0
  5577 ;;		Unchanged: 0/0
  5578 ;; Data sizes:     COMRAM   BANK0   BANK1   BANK2   BANK3   BANK4   BANK5   BANK6   BANK7
  5579 ;;      Params:         0       0       0       0       0       0       0       0       0
  5580 ;;      Locals:         2       0       0       0       0       0       0       0       0
  5581 ;;      Temps:          0       0       0       0       0       0       0       0       0
  5582 ;;      Totals:         2       0       0       0       0       0       0       0       0
  5583 ;;Total ram usage:        2 bytes
  5584 ;; Hardware stack levels used: 1
  5585 ;; Hardware stack levels required when called: 2
  5586 ;; This function calls:
  5587 ;;		_USBCtrlEPAllowStatusStage
  5588 ;; This function is called by:
  5589 ;;		_USBCtrlTrfOutHandler
  5590 ;; This function uses a non-reentrant model
  5591 ;;
  5592                           
  5593                           	psect	text27
  5594   0024A0                     __ptext27:
  5595                           	callstack 0
  5596   0024A0                     _USBCtrlTrfRxService:
  5597                           	callstack 25
  5598   0024A0                     
  5599                           ;../source/usb/usb_device.c: 1814:     uint8_t byteToRead;;../source/usb/usb_device.c: 1
      +                          815:     uint8_t i;;../source/usb/usb_device.c: 1819:     byteToRead = pBDTEntryEP0OutCu
      +                          rrent->CNT;
  5600   0024A0  EE20 F001          	lfsr	2,1
  5601   0024A4  505D               	movf	_pBDTEntryEP0OutCurrent^0,w,c
  5602   0024A6  26D9               	addwf	fsr2l,f,c
  5603   0024A8  505E               	movf	(_pBDTEntryEP0OutCurrent+1)^0,w,c
  5604   0024AA  22DA               	addwfc	fsr2h,f,c
  5605   0024AC  50DF               	movf	indf2,w,c
  5606   0024AE  6E02               	movwf	USBCtrlTrfRxService@byteToRead^0,c
  5607   0024B0                     
  5608                           ;../source/usb/usb_device.c: 1825:     if(byteToRead > outPipes[0].wCount.Val)
  5609   0024B0  5002               	movf	USBCtrlTrfRxService@byteToRead^0,w,c
  5610   0024B2  0100               	movlb	0	; () banked
  5611   0024B4  5D64               	subwf	(_outPipes+4)& (0+255),w,b
  5612   0024B6  0E00               	movlw	0
  5613   0024B8  5965               	subwfb	(_outPipes+5)& (0+255),w,b
  5614   0024BA  B0D8               	btfsc	status,0,c
  5615   0024BC  EF62  F012         	goto	u2891
  5616   0024C0  EF64  F012         	goto	u2890
  5617   0024C4                     u2891:
  5618   0024C4  EF66  F012         	goto	l3710
  5619   0024C8                     u2890:
  5620   0024C8                     
  5621                           ; BSR set to: 0
  5622                           ;../source/usb/usb_device.c: 1826:     {;../source/usb/usb_device.c: 1827:         byteT
      +                          oRead = outPipes[0].wCount.Val;
  5623   0024C8  C064  F002         	movff	_outPipes+4,USBCtrlTrfRxService@byteToRead
  5624   0024CC                     l3710:
  5625                           
  5626                           ; BSR set to: 0
  5627                           ;../source/usb/usb_device.c: 1830:     outPipes[0].wCount.Val -= byteToRead;
  5628   0024CC  5002               	movf	USBCtrlTrfRxService@byteToRead^0,w,c
  5629   0024CE  5F64               	subwf	(_outPipes+4)& (0+255),f,b
  5630   0024D0  0E00               	movlw	0
  5631   0024D2  5B65               	subwfb	(_outPipes+5)& (0+255),f,b
  5632   0024D4                     
  5633                           ; BSR set to: 0
  5634                           ;../source/usb/usb_device.c: 1834:     for(i=0;i<byteToRead;i++)
  5635   0024D4  0E00               	movlw	0
  5636   0024D6  6E01               	movwf	USBCtrlTrfRxService@i^0,c
  5637   0024D8  EF7D  F012         	goto	l3720
  5638   0024DC                     l3714:
  5639                           
  5640                           ; BSR set to: 0
  5641                           ;../source/usb/usb_device.c: 1835:     {;../source/usb/usb_device.c: 1836:         *outP
      +                          ipes[0].pDst.bRam++ = CtrlTrfData[i];
  5642   0024DC  0E28               	movlw	40
  5643   0024DE  2401               	addwf	USBCtrlTrfRxService@i^0,w,c
  5644   0024E0  6ED9               	movwf	fsr2l,c
  5645   0024E2  6ADA               	clrf	fsr2h,c
  5646   0024E4  0E04               	movlw	4
  5647   0024E6  22DA               	addwfc	fsr2h,f,c
  5648   0024E8  C060  FFE1         	movff	_outPipes,fsr1l
  5649   0024EC  C061  FFE2         	movff	_outPipes+1,fsr1h
  5650   0024F0  CFDF FFE7          	movff	indf2,indf1
  5651   0024F4                     
  5652                           ; BSR set to: 0
  5653   0024F4  4B60               	infsnz	_outPipes& (0+255),f,b
  5654   0024F6  2B61               	incf	(_outPipes+1)& (0+255),f,b
  5655   0024F8                     
  5656                           ; BSR set to: 0
  5657                           ;../source/usb/usb_device.c: 1837:     }
  5658   0024F8  2A01               	incf	USBCtrlTrfRxService@i^0,f,c
  5659   0024FA                     l3720:
  5660                           
  5661                           ; BSR set to: 0
  5662   0024FA  5002               	movf	USBCtrlTrfRxService@byteToRead^0,w,c
  5663   0024FC  5C01               	subwf	USBCtrlTrfRxService@i^0,w,c
  5664   0024FE  A0D8               	btfss	status,0,c
  5665   002500  EF84  F012         	goto	u2901
  5666   002504  EF86  F012         	goto	u2900
  5667   002508                     u2901:
  5668   002508  EF6E  F012         	goto	l3714
  5669   00250C                     u2900:
  5670   00250C                     
  5671                           ; BSR set to: 0
  5672                           ;../source/usb/usb_device.c: 1841:     if(outPipes[0].wCount.Val > 0)
  5673   00250C  5164               	movf	(_outPipes+4)& (0+255),w,b
  5674   00250E  1165               	iorwf	(_outPipes+5)& (0+255),w,b
  5675   002510  B4D8               	btfsc	status,2,c
  5676   002512  EF8D  F012         	goto	u2911
  5677   002516  EF8F  F012         	goto	u2910
  5678   00251A                     u2911:
  5679   00251A  EFC8  F012         	goto	l3736
  5680   00251E                     u2910:
  5681   00251E                     
  5682                           ; BSR set to: 0
  5683                           ;../source/usb/usb_device.c: 1842:     {;../source/usb/usb_device.c: 1843:         pBDTE
      +                          ntryEP0OutNext->CNT = 8;
  5684   00251E  EE20 F001          	lfsr	2,1
  5685   002522  505B               	movf	_pBDTEntryEP0OutNext^0,w,c
  5686   002524  26D9               	addwf	fsr2l,f,c
  5687   002526  505C               	movf	(_pBDTEntryEP0OutNext+1)^0,w,c
  5688   002528  22DA               	addwfc	fsr2h,f,c
  5689   00252A  0E08               	movlw	8
  5690   00252C  6EDF               	movwf	indf2,c
  5691                           
  5692                           ;../source/usb/usb_device.c: 1844:         pBDTEntryEP0OutNext->ADR = ((uint16_t)(&CtrlT
      +                          rfData));
  5693   00252E  EE20 F002          	lfsr	2,2
  5694   002532  505B               	movf	_pBDTEntryEP0OutNext^0,w,c
  5695   002534  26D9               	addwf	fsr2l,f,c
  5696   002536  505C               	movf	(_pBDTEntryEP0OutNext+1)^0,w,c
  5697   002538  22DA               	addwfc	fsr2h,f,c
  5698   00253A  0E28               	movlw	40
  5699   00253C  6EDE               	movwf	postinc2,c
  5700   00253E  0E04               	movlw	4
  5701   002540  6EDD               	movwf	postdec2,c
  5702   002542                     
  5703                           ; BSR set to: 0
  5704                           ;../source/usb/usb_device.c: 1845:         if(pBDTEntryEP0OutCurrent->STAT.DTS == 0)
  5705   002542  C05D  FFD9         	movff	_pBDTEntryEP0OutCurrent,fsr2l
  5706   002546  C05E  FFDA         	movff	_pBDTEntryEP0OutCurrent+1,fsr2h
  5707   00254A  BCDF               	btfsc	indf2,6,c
  5708   00254C  EFAA  F012         	goto	u2921
  5709   002550  EFAC  F012         	goto	u2920
  5710   002554                     u2921:
  5711   002554  EFBA  F012         	goto	l3732
  5712   002558                     u2920:
  5713   002558                     
  5714                           ; BSR set to: 0
  5715                           ;../source/usb/usb_device.c: 1846:         {;../source/usb/usb_device.c: 1847:          
      +                             pBDTEntryEP0OutNext->STAT.Val = 0x40|(0x08 & 0x08);
  5716   002558  C05B  FFD9         	movff	_pBDTEntryEP0OutNext,fsr2l
  5717   00255C  C05C  FFDA         	movff	_pBDTEntryEP0OutNext+1,fsr2h
  5718   002560  0E48               	movlw	72
  5719   002562  6EDF               	movwf	indf2,c
  5720   002564                     
  5721                           ; BSR set to: 0
  5722                           ;../source/usb/usb_device.c: 1848:             pBDTEntryEP0OutNext->STAT.Val |= 0x80;
  5723   002564  C05B  FFD9         	movff	_pBDTEntryEP0OutNext,fsr2l
  5724   002568  C05C  FFDA         	movff	_pBDTEntryEP0OutNext+1,fsr2h
  5725   00256C  0E00               	movlw	0
  5726   00256E  8EDB               	bsf	plusw2,7,c
  5727                           
  5728                           ;../source/usb/usb_device.c: 1849:         }
  5729   002570  EFF1  F012         	goto	l251
  5730   002574                     l3732:
  5731                           
  5732                           ; BSR set to: 0
  5733                           ;../source/usb/usb_device.c: 1851:         {;../source/usb/usb_device.c: 1852:          
      +                             pBDTEntryEP0OutNext->STAT.Val = 0x00|(0x08 & 0x08);
  5734   002574  C05B  FFD9         	movff	_pBDTEntryEP0OutNext,fsr2l
  5735   002578  C05C  FFDA         	movff	_pBDTEntryEP0OutNext+1,fsr2h
  5736   00257C  0E08               	movlw	8
  5737   00257E  6EDF               	movwf	indf2,c
  5738   002580                     
  5739                           ; BSR set to: 0
  5740                           ;../source/usb/usb_device.c: 1853:             pBDTEntryEP0OutNext->STAT.Val |= 0x80;
  5741   002580  C05B  FFD9         	movff	_pBDTEntryEP0OutNext,fsr2l
  5742   002584  C05C  FFDA         	movff	_pBDTEntryEP0OutNext+1,fsr2h
  5743   002588  0E00               	movlw	0
  5744   00258A  8EDB               	bsf	plusw2,7,c
  5745   00258C  EFF1  F012         	goto	l251
  5746   002590                     l3736:
  5747                           
  5748                           ; BSR set to: 0
  5749                           ;../source/usb/usb_device.c: 1857:     {;../source/usb/usb_device.c: 1861:         pBDTE
      +                          ntryEP0OutNext->CNT = 8;
  5750   002590  EE20 F001          	lfsr	2,1
  5751   002594  505B               	movf	_pBDTEntryEP0OutNext^0,w,c
  5752   002596  26D9               	addwf	fsr2l,f,c
  5753   002598  505C               	movf	(_pBDTEntryEP0OutNext+1)^0,w,c
  5754   00259A  22DA               	addwfc	fsr2h,f,c
  5755   00259C  0E08               	movlw	8
  5756   00259E  6EDF               	movwf	indf2,c
  5757                           
  5758                           ;../source/usb/usb_device.c: 1862:         pBDTEntryEP0OutNext->ADR = ((uint16_t)(&Setup
      +                          Pkt));
  5759   0025A0  EE20 F002          	lfsr	2,2
  5760   0025A4  505B               	movf	_pBDTEntryEP0OutNext^0,w,c
  5761   0025A6  26D9               	addwf	fsr2l,f,c
  5762   0025A8  505C               	movf	(_pBDTEntryEP0OutNext+1)^0,w,c
  5763   0025AA  22DA               	addwfc	fsr2h,f,c
  5764   0025AC  0E20               	movlw	32
  5765   0025AE  6EDE               	movwf	postinc2,c
  5766   0025B0  0E04               	movlw	4
  5767   0025B2  6EDD               	movwf	postdec2,c
  5768   0025B4                     
  5769                           ; BSR set to: 0
  5770                           ;../source/usb/usb_device.c: 1866:         pBDTEntryEP0OutNext->STAT.Val = 0x04;
  5771   0025B4  C05B  FFD9         	movff	_pBDTEntryEP0OutNext,fsr2l
  5772   0025B8  C05C  FFDA         	movff	_pBDTEntryEP0OutNext+1,fsr2h
  5773   0025BC  0E04               	movlw	4
  5774   0025BE  6EDF               	movwf	indf2,c
  5775   0025C0                     
  5776                           ; BSR set to: 0
  5777                           ;../source/usb/usb_device.c: 1867:         pBDTEntryEP0OutNext->STAT.Val |= 0x80;
  5778   0025C0  C05B  FFD9         	movff	_pBDTEntryEP0OutNext,fsr2l
  5779   0025C4  C05C  FFDA         	movff	_pBDTEntryEP0OutNext+1,fsr2h
  5780   0025C8  0E00               	movlw	0
  5781   0025CA  8EDB               	bsf	plusw2,7,c
  5782   0025CC                     
  5783                           ; BSR set to: 0
  5784   0025CC  9F63               	bcf	(_outPipes+3)& (0+255),7,b
  5785   0025CE                     
  5786                           ; BSR set to: 0
  5787                           ;../source/usb/usb_device.c: 1901:         if(USBDeferStatusStagePacket == 0)
  5788   0025CE  5183               	movf	_USBDeferStatusStagePacket& (0+255),w,b	;volatile
  5789   0025D0  A4D8               	btfss	status,2,c
  5790   0025D2  EFED  F012         	goto	u2931
  5791   0025D6  EFEF  F012         	goto	u2930
  5792   0025DA                     u2931:
  5793   0025DA  EFF1  F012         	goto	l251
  5794   0025DE                     u2930:
  5795   0025DE                     
  5796                           ; BSR set to: 0
  5797                           ;../source/usb/usb_device.c: 1902:         {;../source/usb/usb_device.c: 1903:          
      +                             USBCtrlEPAllowStatusStage();
  5798   0025DE  ECC4  F016         	call	_USBCtrlEPAllowStatusStage	;wreg free
  5799   0025E2                     l251:
  5800   0025E2  0012               	return		;funcret
  5801   0025E4                     __end_of_USBCtrlTrfRxService:
  5802                           	callstack 0
  5803                           
  5804 ;; *************** function _USBCtrlEPAllowStatusStage *****************
  5805 ;; Defined at:
  5806 ;;		line 1376 in file "../source/usb/usb_device.c"
  5807 ;; Parameters:    Size  Location     Type
  5808 ;;		None
  5809 ;; Auto vars:     Size  Location     Type
  5810 ;;		None
  5811 ;; Return value:  Size  Location     Type
  5812 ;;                  1    wreg      void 
  5813 ;; Registers used:
  5814 ;;		wreg, fsr2l, fsr2h, status,2, status,0
  5815 ;; Tracked objects:
  5816 ;;		On entry : 0/0
  5817 ;;		On exit  : 0/0
  5818 ;;		Unchanged: 0/0
  5819 ;; Data sizes:     COMRAM   BANK0   BANK1   BANK2   BANK3   BANK4   BANK5   BANK6   BANK7
  5820 ;;      Params:         0       0       0       0       0       0       0       0       0
  5821 ;;      Locals:         0       0       0       0       0       0       0       0       0
  5822 ;;      Temps:          0       0       0       0       0       0       0       0       0
  5823 ;;      Totals:         0       0       0       0       0       0       0       0       0
  5824 ;;Total ram usage:        0 bytes
  5825 ;; Hardware stack levels used: 1
  5826 ;; Hardware stack levels required when called: 1
  5827 ;; This function calls:
  5828 ;;		Nothing
  5829 ;; This function is called by:
  5830 ;;		_USBDeviceTasks
  5831 ;;		_USBCtrlEPServiceComplete
  5832 ;;		_USBCtrlTrfRxService
  5833 ;; This function uses a non-reentrant model
  5834 ;;
  5835                           
  5836                           	psect	text28
  5837   002D88                     __ptext28:
  5838                           	callstack 0
  5839   002D88                     _USBCtrlEPAllowStatusStage:
  5840                           	callstack 25
  5841   002D88                     
  5842                           ;../source/usb/usb_device.c: 1383:     if(USBStatusStageEnabledFlag1 == 0)
  5843   002D88  0100               	movlb	0	; () banked
  5844   002D8A  5182               	movf	_USBStatusStageEnabledFlag1& (0+255),w,b	;volatile
  5845   002D8C  A4D8               	btfss	status,2,c
  5846   002D8E  EFCB  F016         	goto	u2441
  5847   002D92  EFCD  F016         	goto	u2440
  5848   002D96                     u2441:
  5849   002D96  EF3C  F017         	goto	l199
  5850   002D9A                     u2440:
  5851   002D9A                     
  5852                           ; BSR set to: 0
  5853                           ;../source/usb/usb_device.c: 1384:     {;../source/usb/usb_device.c: 1385:         USBSt
      +                          atusStageEnabledFlag1 = 1;
  5854   002D9A  0E01               	movlw	1
  5855   002D9C  6F82               	movwf	_USBStatusStageEnabledFlag1& (0+255),b	;volatile
  5856                           
  5857                           ;../source/usb/usb_device.c: 1386:         if(USBStatusStageEnabledFlag2 == 0)
  5858   002D9E  5181               	movf	_USBStatusStageEnabledFlag2& (0+255),w,b	;volatile
  5859   002DA0  A4D8               	btfss	status,2,c
  5860   002DA2  EFD5  F016         	goto	u2451
  5861   002DA6  EFD7  F016         	goto	u2450
  5862   002DAA                     u2451:
  5863   002DAA  EF3C  F017         	goto	l199
  5864   002DAE                     u2450:
  5865   002DAE                     
  5866                           ; BSR set to: 0
  5867                           ;../source/usb/usb_device.c: 1387:         {;../source/usb/usb_device.c: 1388:          
      +                             USBStatusStageEnabledFlag2 = 1;
  5868   002DAE  0E01               	movlw	1
  5869   002DB0  6F81               	movwf	_USBStatusStageEnabledFlag2& (0+255),b	;volatile
  5870   002DB2                     
  5871                           ; BSR set to: 0
  5872                           ;../source/usb/usb_device.c: 1392:             if(controlTransferState == 2)
  5873   002DB2  0E02               	movlw	2
  5874   002DB4  1989               	xorwf	_controlTransferState& (0+255),w,b
  5875   002DB6  A4D8               	btfss	status,2,c
  5876   002DB8  EFE0  F016         	goto	u2461
  5877   002DBC  EFE2  F016         	goto	u2460
  5878   002DC0                     u2461:
  5879   002DC0  EFF8  F016         	goto	l3418
  5880   002DC4                     u2460:
  5881   002DC4                     
  5882                           ; BSR set to: 0
  5883                           ;../source/usb/usb_device.c: 1393:             {;../source/usb/usb_device.c: 1394:      
      +                                     pBDTEntryIn[0]->CNT = 0;
  5884   002DC4  EE20 F001          	lfsr	2,1
  5885   002DC8  5057               	movf	_pBDTEntryIn^0,w,c
  5886   002DCA  26D9               	addwf	fsr2l,f,c
  5887   002DCC  5058               	movf	(_pBDTEntryIn+1)^0,w,c
  5888   002DCE  22DA               	addwfc	fsr2h,f,c
  5889   002DD0  0E00               	movlw	0
  5890   002DD2  6EDF               	movwf	indf2,c
  5891   002DD4                     
  5892                           ; BSR set to: 0
  5893                           ;../source/usb/usb_device.c: 1395:                 pBDTEntryIn[0]->STAT.Val = 0x40|(0x08
      +                           & 0x08);
  5894   002DD4  C057  FFD9         	movff	_pBDTEntryIn,fsr2l
  5895   002DD8  C058  FFDA         	movff	_pBDTEntryIn+1,fsr2h
  5896   002DDC  0E48               	movlw	72
  5897   002DDE  6EDF               	movwf	indf2,c
  5898   002DE0                     
  5899                           ; BSR set to: 0
  5900                           ;../source/usb/usb_device.c: 1396:                 pBDTEntryIn[0]->STAT.Val |= 0x80;
  5901   002DE0  C057  FFD9         	movff	_pBDTEntryIn,fsr2l
  5902   002DE4  C058  FFDA         	movff	_pBDTEntryIn+1,fsr2h
  5903   002DE8  0E00               	movlw	0
  5904   002DEA  8EDB               	bsf	plusw2,7,c
  5905                           
  5906                           ;../source/usb/usb_device.c: 1397:             }
  5907   002DEC  EF3C  F017         	goto	l199
  5908   002DF0                     l3418:
  5909                           
  5910                           ; BSR set to: 0
  5911   002DF0  0589               	decf	_controlTransferState& (0+255),w,b
  5912   002DF2  A4D8               	btfss	status,2,c
  5913   002DF4  EFFE  F016         	goto	u2471
  5914   002DF8  EF00  F017         	goto	u2470
  5915   002DFC                     u2471:
  5916   002DFC  EF3C  F017         	goto	l195
  5917   002E00                     u2470:
  5918   002E00                     
  5919                           ; BSR set to: 0
  5920                           ;../source/usb/usb_device.c: 1399:             {;../source/usb/usb_device.c: 1400:      
      +                                     BothEP0OutUOWNsSet = 0;
  5921   002E00  0E00               	movlw	0
  5922   002E02  6F85               	movwf	_BothEP0OutUOWNsSet& (0+255),b
  5923   002E04                     
  5924                           ; BSR set to: 0
  5925                           ;../source/usb/usb_device.c: 1405:                     pBDTEntryEP0OutCurrent->CNT = 8;
  5926   002E04  EE20 F001          	lfsr	2,1
  5927   002E08  505D               	movf	_pBDTEntryEP0OutCurrent^0,w,c
  5928   002E0A  26D9               	addwf	fsr2l,f,c
  5929   002E0C  505E               	movf	(_pBDTEntryEP0OutCurrent+1)^0,w,c
  5930   002E0E  22DA               	addwfc	fsr2h,f,c
  5931   002E10  0E08               	movlw	8
  5932   002E12  6EDF               	movwf	indf2,c
  5933   002E14                     
  5934                           ; BSR set to: 0
  5935                           ;../source/usb/usb_device.c: 1406:                     pBDTEntryEP0OutCurrent->ADR = ((u
      +                          int16_t)(&SetupPkt));
  5936   002E14  EE20 F002          	lfsr	2,2
  5937   002E18  505D               	movf	_pBDTEntryEP0OutCurrent^0,w,c
  5938   002E1A  26D9               	addwf	fsr2l,f,c
  5939   002E1C  505E               	movf	(_pBDTEntryEP0OutCurrent+1)^0,w,c
  5940   002E1E  22DA               	addwfc	fsr2h,f,c
  5941   002E20  0E20               	movlw	32
  5942   002E22  6EDE               	movwf	postinc2,c
  5943   002E24  0E04               	movlw	4
  5944   002E26  6EDD               	movwf	postdec2,c
  5945   002E28                     
  5946                           ; BSR set to: 0
  5947                           ;../source/usb/usb_device.c: 1407:                     pBDTEntryEP0OutCurrent->STAT.Val 
      +                          = 0x04;
  5948   002E28  C05D  FFD9         	movff	_pBDTEntryEP0OutCurrent,fsr2l
  5949   002E2C  C05E  FFDA         	movff	_pBDTEntryEP0OutCurrent+1,fsr2h
  5950   002E30  0E04               	movlw	4
  5951   002E32  6EDF               	movwf	indf2,c
  5952   002E34                     
  5953                           ; BSR set to: 0
  5954                           ;../source/usb/usb_device.c: 1408:                     pBDTEntryEP0OutCurrent->STAT.Val 
      +                          |= 0x80;
  5955   002E34  C05D  FFD9         	movff	_pBDTEntryEP0OutCurrent,fsr2l
  5956   002E38  C05E  FFDA         	movff	_pBDTEntryEP0OutCurrent+1,fsr2h
  5957   002E3C  0E00               	movlw	0
  5958   002E3E  8EDB               	bsf	plusw2,7,c
  5959   002E40                     
  5960                           ; BSR set to: 0
  5961                           ;../source/usb/usb_device.c: 1409:                     BothEP0OutUOWNsSet = 1;
  5962   002E40  0E01               	movlw	1
  5963   002E42  6F85               	movwf	_BothEP0OutUOWNsSet& (0+255),b
  5964   002E44                     
  5965                           ; BSR set to: 0
  5966                           ;../source/usb/usb_device.c: 1413:                 pBDTEntryEP0OutNext->CNT = 8;
  5967   002E44  EE20 F001          	lfsr	2,1
  5968   002E48  505B               	movf	_pBDTEntryEP0OutNext^0,w,c
  5969   002E4A  26D9               	addwf	fsr2l,f,c
  5970   002E4C  505C               	movf	(_pBDTEntryEP0OutNext+1)^0,w,c
  5971   002E4E  22DA               	addwfc	fsr2h,f,c
  5972   002E50  0E08               	movlw	8
  5973   002E52  6EDF               	movwf	indf2,c
  5974   002E54                     
  5975                           ; BSR set to: 0
  5976                           ;../source/usb/usb_device.c: 1414:                 pBDTEntryEP0OutNext->ADR = ((uint16_t
      +                          )(&SetupPkt));
  5977   002E54  EE20 F002          	lfsr	2,2
  5978   002E58  505B               	movf	_pBDTEntryEP0OutNext^0,w,c
  5979   002E5A  26D9               	addwf	fsr2l,f,c
  5980   002E5C  505C               	movf	(_pBDTEntryEP0OutNext+1)^0,w,c
  5981   002E5E  22DA               	addwfc	fsr2h,f,c
  5982   002E60  0E20               	movlw	32
  5983   002E62  6EDE               	movwf	postinc2,c
  5984   002E64  0E04               	movlw	4
  5985   002E66  6EDD               	movwf	postdec2,c
  5986   002E68                     
  5987                           ; BSR set to: 0
  5988                           ;../source/usb/usb_device.c: 1415:                 pBDTEntryEP0OutNext->STAT.Val = 0x80;
  5989   002E68  C05B  FFD9         	movff	_pBDTEntryEP0OutNext,fsr2l
  5990   002E6C  C05C  FFDA         	movff	_pBDTEntryEP0OutNext+1,fsr2h
  5991   002E70  0E80               	movlw	128
  5992   002E72  6EDF               	movwf	indf2,c
  5993   002E74  EF3C  F017         	goto	l199
  5994   002E78                     l195:
  5995   002E78                     l199:
  5996                           
  5997                           ; BSR set to: 0
  5998   002E78  0012               	return		;funcret
  5999   002E7A                     __end_of_USBCtrlEPAllowStatusStage:
  6000                           	callstack 0
  6001                           
  6002 ;; *************** function _USBCtrlTrfInHandler *****************
  6003 ;; Defined at:
  6004 ;;		line 2555 in file "../source/usb/usb_device.c"
  6005 ;; Parameters:    Size  Location     Type
  6006 ;;		None
  6007 ;; Auto vars:     Size  Location     Type
  6008 ;;  lastDTS         1    1[COMRAM] unsigned char 
  6009 ;; Return value:  Size  Location     Type
  6010 ;;                  1    wreg      void 
  6011 ;; Registers used:
  6012 ;;		wreg, fsr1l, fsr1h, fsr2l, fsr2h, status,2, status,0, tblptrl, tblptrh, tblptru, cstack
  6013 ;; Tracked objects:
  6014 ;;		On entry : 0/0
  6015 ;;		On exit  : 0/0
  6016 ;;		Unchanged: 0/0
  6017 ;; Data sizes:     COMRAM   BANK0   BANK1   BANK2   BANK3   BANK4   BANK5   BANK6   BANK7
  6018 ;;      Params:         0       0       0       0       0       0       0       0       0
  6019 ;;      Locals:         1       0       0       0       0       0       0       0       0
  6020 ;;      Temps:          0       0       0       0       0       0       0       0       0
  6021 ;;      Totals:         1       0       0       0       0       0       0       0       0
  6022 ;;Total ram usage:        1 bytes
  6023 ;; Hardware stack levels used: 1
  6024 ;; Hardware stack levels required when called: 2
  6025 ;; This function calls:
  6026 ;;		_USBCtrlTrfTxService
  6027 ;; This function is called by:
  6028 ;;		_USBCtrlEPService
  6029 ;; This function uses a non-reentrant model
  6030 ;;
  6031                           
  6032                           	psect	text29
  6033   002A72                     __ptext29:
  6034                           	callstack 0
  6035   002A72                     _USBCtrlTrfInHandler:
  6036                           	callstack 26
  6037   002A72                     
  6038                           ;../source/usb/usb_device.c: 2557:     uint8_t lastDTS;;../source/usb/usb_device.c: 2559
      +                          :     lastDTS = pBDTEntryIn[0]->STAT.DTS;
  6039   002A72  C057  FFD9         	movff	_pBDTEntryIn,fsr2l
  6040   002A76  C058  FFDA         	movff	_pBDTEntryIn+1,fsr2h
  6041   002A7A  0E00               	movlw	0
  6042   002A7C  BCDF               	btfsc	indf2,6,c
  6043   002A7E  0E01               	movlw	1
  6044   002A80  6E02               	movwf	USBCtrlTrfInHandler@lastDTS^0,c
  6045   002A82                     
  6046                           ;../source/usb/usb_device.c: 2562:     pBDTEntryIn[0] = (volatile BDT_ENTRY*)(((uint16_t
      +                          )pBDTEntryIn[0]) ^ 0x0004);
  6047   002A82  0E04               	movlw	4
  6048   002A84  1857               	xorwf	_pBDTEntryIn^0,w,c
  6049   002A86  6E57               	movwf	_pBDTEntryIn^0,c
  6050   002A88  5058               	movf	(_pBDTEntryIn+1)^0,w,c
  6051   002A8A  6E58               	movwf	(_pBDTEntryIn+1)^0,c
  6052   002A8C                     
  6053                           ;../source/usb/usb_device.c: 2567:     if(USBDeviceState == ADR_PENDING_STATE)
  6054   002A8C  0E08               	movlw	8
  6055   002A8E  0100               	movlb	0	; () banked
  6056   002A90  198B               	xorwf	_USBDeviceState& (0+255),w,b
  6057   002A92  A4D8               	btfss	status,2,c
  6058   002A94  EF4E  F015         	goto	u2981
  6059   002A98  EF50  F015         	goto	u2980
  6060   002A9C                     u2981:
  6061   002A9C  EF64  F015         	goto	l3858
  6062   002AA0                     u2980:
  6063   002AA0                     
  6064                           ; BSR set to: 0
  6065                           ;../source/usb/usb_device.c: 2568:     {;../source/usb/usb_device.c: 2569:         UADDR
      +                           = (SetupPkt.bDevADR & 0x7F);
  6066   002AA0  0104               	movlb	4	; () banked
  6067   002AA2  5122               	movf	34,w,b	;volatile
  6068   002AA4  0B7F               	andlw	127
  6069   002AA6  6E6E               	movwf	110,c	;volatile
  6070   002AA8                     
  6071                           ; BSR set to: 4
  6072                           ;../source/usb/usb_device.c: 2570:         if(UADDR != 0u)
  6073   002AA8  506E               	movf	110,w,c	;volatile
  6074   002AAA  B4D8               	btfsc	status,2,c
  6075   002AAC  EF5A  F015         	goto	u2991
  6076   002AB0  EF5C  F015         	goto	u2990
  6077   002AB4                     u2991:
  6078   002AB4  EF61  F015         	goto	l3856
  6079   002AB8                     u2990:
  6080   002AB8                     
  6081                           ; BSR set to: 4
  6082                           ;../source/usb/usb_device.c: 2571:         {;../source/usb/usb_device.c: 2572:          
      +                             USBDeviceState=ADDRESS_STATE;
  6083   002AB8  0E10               	movlw	16
  6084   002ABA  0100               	movlb	0	; () banked
  6085   002ABC  6F8B               	movwf	_USBDeviceState& (0+255),b
  6086                           
  6087                           ;../source/usb/usb_device.c: 2573:         }
  6088   002ABE  EF64  F015         	goto	l3858
  6089   002AC2                     l3856:
  6090                           
  6091                           ; BSR set to: 4
  6092                           ;../source/usb/usb_device.c: 2575:         {;../source/usb/usb_device.c: 2576:          
      +                             USBDeviceState=DEFAULT_STATE;
  6093   002AC2  0E04               	movlw	4
  6094   002AC4  0100               	movlb	0	; () banked
  6095   002AC6  6F8B               	movwf	_USBDeviceState& (0+255),b
  6096   002AC8                     l3858:
  6097                           
  6098                           ; BSR set to: 0
  6099                           ;../source/usb/usb_device.c: 2581:     if(controlTransferState == 1)
  6100   002AC8  0589               	decf	_controlTransferState& (0+255),w,b
  6101   002ACA  A4D8               	btfss	status,2,c
  6102   002ACC  EF6A  F015         	goto	u3001
  6103   002AD0  EF6C  F015         	goto	u3000
  6104   002AD4                     u3001:
  6105   002AD4  EFB4  F015         	goto	l325
  6106   002AD8                     u3000:
  6107   002AD8                     
  6108                           ; BSR set to: 0
  6109                           ;../source/usb/usb_device.c: 2582:     {;../source/usb/usb_device.c: 2583:         pBDTE
      +                          ntryIn[0]->ADR = ((uint16_t)(CtrlTrfData));
  6110   002AD8  EE20 F002          	lfsr	2,2
  6111   002ADC  5057               	movf	_pBDTEntryIn^0,w,c
  6112   002ADE  26D9               	addwf	fsr2l,f,c
  6113   002AE0  5058               	movf	(_pBDTEntryIn+1)^0,w,c
  6114   002AE2  22DA               	addwfc	fsr2h,f,c
  6115   002AE4  0E28               	movlw	40
  6116   002AE6  6EDE               	movwf	postinc2,c
  6117   002AE8  0E04               	movlw	4
  6118   002AEA  6EDD               	movwf	postdec2,c
  6119   002AEC                     
  6120                           ; BSR set to: 0
  6121                           ;../source/usb/usb_device.c: 2584:         USBCtrlTrfTxService();
  6122   002AEC  ECB1  F014         	call	_USBCtrlTrfTxService	;wreg free
  6123   002AF0                     
  6124                           ;../source/usb/usb_device.c: 2590:         if(shortPacketStatus == 2)
  6125   002AF0  0E02               	movlw	2
  6126   002AF2  0100               	movlb	0	; () banked
  6127   002AF4  198A               	xorwf	_shortPacketStatus& (0+255),w,b
  6128   002AF6  A4D8               	btfss	status,2,c
  6129   002AF8  EF80  F015         	goto	u3011
  6130   002AFC  EF82  F015         	goto	u3010
  6131   002B00                     u3011:
  6132   002B00  EF90  F015         	goto	l3870
  6133   002B04                     u3010:
  6134   002B04                     
  6135                           ; BSR set to: 0
  6136                           ;../source/usb/usb_device.c: 2591:         {;../source/usb/usb_device.c: 2594:          
      +                             pBDTEntryIn[0]->STAT.Val = 0x04;
  6137   002B04  C057  FFD9         	movff	_pBDTEntryIn,fsr2l
  6138   002B08  C058  FFDA         	movff	_pBDTEntryIn+1,fsr2h
  6139   002B0C  0E04               	movlw	4
  6140   002B0E  6EDF               	movwf	indf2,c
  6141   002B10                     
  6142                           ; BSR set to: 0
  6143                           ;../source/usb/usb_device.c: 2595:             pBDTEntryIn[0]->STAT.Val |= 0x80;
  6144   002B10  C057  FFD9         	movff	_pBDTEntryIn,fsr2l
  6145   002B14  C058  FFDA         	movff	_pBDTEntryIn+1,fsr2h
  6146   002B18  0E00               	movlw	0
  6147   002B1A  8EDB               	bsf	plusw2,7,c
  6148                           
  6149                           ;../source/usb/usb_device.c: 2596:         }
  6150   002B1C  EFBE  F015         	goto	l333
  6151   002B20                     l3870:
  6152                           
  6153                           ; BSR set to: 0
  6154                           ;../source/usb/usb_device.c: 2598:         {;../source/usb/usb_device.c: 2599:          
      +                             if(lastDTS == 0)
  6155   002B20  5002               	movf	USBCtrlTrfInHandler@lastDTS^0,w,c
  6156   002B22  A4D8               	btfss	status,2,c
  6157   002B24  EF96  F015         	goto	u3021
  6158   002B28  EF98  F015         	goto	u3020
  6159   002B2C                     u3021:
  6160   002B2C  EFA6  F015         	goto	l3876
  6161   002B30                     u3020:
  6162   002B30                     
  6163                           ; BSR set to: 0
  6164                           ;../source/usb/usb_device.c: 2600:             {;../source/usb/usb_device.c: 2601:      
      +                                     pBDTEntryIn[0]->STAT.Val = 0x40|(0x08 & 0x08);
  6165   002B30  C057  FFD9         	movff	_pBDTEntryIn,fsr2l
  6166   002B34  C058  FFDA         	movff	_pBDTEntryIn+1,fsr2h
  6167   002B38  0E48               	movlw	72
  6168   002B3A  6EDF               	movwf	indf2,c
  6169   002B3C                     
  6170                           ; BSR set to: 0
  6171                           ;../source/usb/usb_device.c: 2602:                 pBDTEntryIn[0]->STAT.Val |= 0x80;
  6172   002B3C  C057  FFD9         	movff	_pBDTEntryIn,fsr2l
  6173   002B40  C058  FFDA         	movff	_pBDTEntryIn+1,fsr2h
  6174   002B44  0E00               	movlw	0
  6175   002B46  8EDB               	bsf	plusw2,7,c
  6176                           
  6177                           ;../source/usb/usb_device.c: 2603:             }
  6178   002B48  EFBE  F015         	goto	l333
  6179   002B4C                     l3876:
  6180                           
  6181                           ; BSR set to: 0
  6182                           ;../source/usb/usb_device.c: 2605:             {;../source/usb/usb_device.c: 2606:      
      +                                     pBDTEntryIn[0]->STAT.Val = 0x00|(0x08 & 0x08);
  6183   002B4C  C057  FFD9         	movff	_pBDTEntryIn,fsr2l
  6184   002B50  C058  FFDA         	movff	_pBDTEntryIn+1,fsr2h
  6185   002B54  0E08               	movlw	8
  6186   002B56  6EDF               	movwf	indf2,c
  6187   002B58                     
  6188                           ; BSR set to: 0
  6189                           ;../source/usb/usb_device.c: 2607:                 pBDTEntryIn[0]->STAT.Val |= 0x80;
  6190   002B58  C057  FFD9         	movff	_pBDTEntryIn,fsr2l
  6191   002B5C  C058  FFDA         	movff	_pBDTEntryIn+1,fsr2h
  6192   002B60  0E00               	movlw	0
  6193   002B62  8EDB               	bsf	plusw2,7,c
  6194   002B64  EFBE  F015         	goto	l333
  6195   002B68                     l325:
  6196                           
  6197                           ; BSR set to: 0
  6198                           ;../source/usb/usb_device.c: 2612:  {;../source/usb/usb_device.c: 2616:         if(outPi
      +                          pes[0].info.bits.busy == 1)
  6199   002B68  AF63               	btfss	(_outPipes+3)& (0+255),7,b
  6200   002B6A  EFB9  F015         	goto	u3031
  6201   002B6E  EFBB  F015         	goto	u3030
  6202   002B72                     u3031:
  6203   002B72  EFBC  F015         	goto	l3882
  6204   002B76                     u3030:
  6205   002B76                     
  6206                           ; BSR set to: 0
  6207                           ;../source/usb/usb_device.c: 2622:             outPipes[0].info.bits.busy = 0;
  6208   002B76  9F63               	bcf	(_outPipes+3)& (0+255),7,b
  6209   002B78                     l3882:
  6210                           
  6211                           ; BSR set to: 0
  6212                           ;../source/usb/usb_device.c: 2625:         controlTransferState = 0;
  6213   002B78  0E00               	movlw	0
  6214   002B7A  6F89               	movwf	_controlTransferState& (0+255),b
  6215   002B7C                     l333:
  6216                           
  6217                           ; BSR set to: 0
  6218   002B7C  0012               	return		;funcret
  6219   002B7E                     __end_of_USBCtrlTrfInHandler:
  6220                           	callstack 0
  6221                           
  6222 ;; *************** function _USBCtrlTrfTxService *****************
  6223 ;; Defined at:
  6224 ;;		line 1731 in file "../source/usb/usb_device.c"
  6225 ;; Parameters:    Size  Location     Type
  6226 ;;		None
  6227 ;; Auto vars:     Size  Location     Type
  6228 ;;  byteToSend      1    0[COMRAM] unsigned char 
  6229 ;; Return value:  Size  Location     Type
  6230 ;;                  1    wreg      void 
  6231 ;; Registers used:
  6232 ;;		wreg, fsr1l, fsr1h, fsr2l, fsr2h, status,2, status,0, tblptrl, tblptrh, tblptru
  6233 ;; Tracked objects:
  6234 ;;		On entry : 0/0
  6235 ;;		On exit  : 0/0
  6236 ;;		Unchanged: 0/0
  6237 ;; Data sizes:     COMRAM   BANK0   BANK1   BANK2   BANK3   BANK4   BANK5   BANK6   BANK7
  6238 ;;      Params:         0       0       0       0       0       0       0       0       0
  6239 ;;      Locals:         1       0       0       0       0       0       0       0       0
  6240 ;;      Temps:          0       0       0       0       0       0       0       0       0
  6241 ;;      Totals:         1       0       0       0       0       0       0       0       0
  6242 ;;Total ram usage:        1 bytes
  6243 ;; Hardware stack levels used: 1
  6244 ;; Hardware stack levels required when called: 1
  6245 ;; This function calls:
  6246 ;;		Nothing
  6247 ;; This function is called by:
  6248 ;;		_USBCtrlEPAllowDataStage
  6249 ;;		_USBCtrlTrfInHandler
  6250 ;; This function uses a non-reentrant model
  6251 ;;
  6252                           
  6253                           	psect	text30
  6254   002962                     __ptext30:
  6255                           	callstack 0
  6256   002962                     _USBCtrlTrfTxService:
  6257                           	callstack 24
  6258   002962                     
  6259                           ;../source/usb/usb_device.c: 1733:     uint8_t byteToSend;;../source/usb/usb_device.c: 1
      +                          737:     byteToSend = 8;
  6260   002962  0E08               	movlw	8
  6261   002964  6E01               	movwf	USBCtrlTrfTxService@byteToSend^0,c
  6262   002966                     
  6263                           ;../source/usb/usb_device.c: 1738:     if(inPipes[0].wCount.Val < (uint8_t)8)
  6264   002966  0100               	movlb	0	; () banked
  6265   002968  516D               	movf	(_inPipes+5)& (0+255),w,b
  6266   00296A  E107               	bnz	u2361
  6267   00296C  0E08               	movlw	8
  6268   00296E  5D6C               	subwf	(_inPipes+4)& (0+255),w,b
  6269   002970  B0D8               	btfsc	status,0,c
  6270   002972  EFBD  F014         	goto	u2361
  6271   002976  EFBF  F014         	goto	u2360
  6272   00297A                     u2361:
  6273   00297A  EFD7  F014         	goto	l3374
  6274   00297E                     u2360:
  6275   00297E                     
  6276                           ; BSR set to: 0
  6277                           ;../source/usb/usb_device.c: 1739:     {;../source/usb/usb_device.c: 1740:         byteT
      +                          oSend = inPipes[0].wCount.Val;
  6278   00297E  C06C  F001         	movff	_inPipes+4,USBCtrlTrfTxService@byteToSend
  6279   002982                     
  6280                           ; BSR set to: 0
  6281                           ;../source/usb/usb_device.c: 1747:         if(shortPacketStatus == 0)
  6282   002982  518A               	movf	_shortPacketStatus& (0+255),w,b
  6283   002984  A4D8               	btfss	status,2,c
  6284   002986  EFC7  F014         	goto	u2371
  6285   00298A  EFC9  F014         	goto	u2370
  6286   00298E                     u2371:
  6287   00298E  EFCD  F014         	goto	l3370
  6288   002992                     u2370:
  6289   002992                     
  6290                           ; BSR set to: 0
  6291                           ;../source/usb/usb_device.c: 1748:         {;../source/usb/usb_device.c: 1749:          
      +                             shortPacketStatus = 1;
  6292   002992  0E01               	movlw	1
  6293   002994  6F8A               	movwf	_shortPacketStatus& (0+255),b
  6294                           
  6295                           ;../source/usb/usb_device.c: 1750:         }
  6296   002996  EFD7  F014         	goto	l3374
  6297   00299A                     l3370:
  6298                           
  6299                           ; BSR set to: 0
  6300   00299A  058A               	decf	_shortPacketStatus& (0+255),w,b
  6301   00299C  A4D8               	btfss	status,2,c
  6302   00299E  EFD3  F014         	goto	u2381
  6303   0029A2  EFD5  F014         	goto	u2380
  6304   0029A6                     u2381:
  6305   0029A6  EFD7  F014         	goto	l3374
  6306   0029AA                     u2380:
  6307   0029AA                     
  6308                           ; BSR set to: 0
  6309                           ;../source/usb/usb_device.c: 1752:         {;../source/usb/usb_device.c: 1753:          
      +                             shortPacketStatus = 2;
  6310   0029AA  0E02               	movlw	2
  6311   0029AC  6F8A               	movwf	_shortPacketStatus& (0+255),b
  6312   0029AE                     l3374:
  6313                           
  6314                           ; BSR set to: 0
  6315                           ;../source/usb/usb_device.c: 1759:     inPipes[0].wCount.Val -= byteToSend;
  6316   0029AE  5001               	movf	USBCtrlTrfTxService@byteToSend^0,w,c
  6317   0029B0  5F6C               	subwf	(_inPipes+4)& (0+255),f,b
  6318   0029B2  0E00               	movlw	0
  6319   0029B4  5B6D               	subwfb	(_inPipes+5)& (0+255),f,b
  6320   0029B6                     
  6321                           ; BSR set to: 0
  6322                           ;../source/usb/usb_device.c: 1764:     pBDTEntryIn[0]->CNT = byteToSend;
  6323   0029B6  EE20 F001          	lfsr	2,1
  6324   0029BA  5057               	movf	_pBDTEntryIn^0,w,c
  6325   0029BC  26D9               	addwf	fsr2l,f,c
  6326   0029BE  5058               	movf	(_pBDTEntryIn+1)^0,w,c
  6327   0029C0  22DA               	addwfc	fsr2h,f,c
  6328   0029C2  C001  FFDF         	movff	USBCtrlTrfTxService@byteToSend,indf2
  6329   0029C6                     
  6330                           ; BSR set to: 0
  6331                           ;../source/usb/usb_device.c: 1768:     pDst = ( uint8_t*)CtrlTrfData;
  6332   0029C6  0E28               	movlw	40
  6333   0029C8  6F7C               	movwf	_pDst& (0+255),b
  6334   0029CA  0E04               	movlw	4
  6335   0029CC  6F7D               	movwf	(_pDst+1)& (0+255),b
  6336   0029CE                     
  6337                           ; BSR set to: 0
  6338                           ;../source/usb/usb_device.c: 1769:     if(inPipes[0].info.bits.ctrl_trf_mem == 0x00)
  6339   0029CE  B16B               	btfsc	(_inPipes+3)& (0+255),0,b
  6340   0029D0  EFEC  F014         	goto	u2391
  6341   0029D4  EFEE  F014         	goto	u2390
  6342   0029D8                     u2391:
  6343   0029D8  EF30  F015         	goto	l3402
  6344   0029DC                     u2390:
  6345   0029DC  EF0B  F015         	goto	l3392
  6346   0029E0                     l3384:
  6347                           
  6348                           ; BSR set to: 0
  6349                           ;../source/usb/usb_device.c: 1772:         {;../source/usb/usb_device.c: 1773:          
      +                             *pDst++ = *inPipes[0].pSrc.bRom++;
  6350   0029E0  C068  FFF6         	movff	_inPipes,tblptrl
  6351   0029E4  C069  FFF7         	movff	_inPipes+1,tblptrh
  6352   0029E8  6AF8               	clrf	tblptru,c
  6353   0029EA  C07C  FFD9         	movff	_pDst,fsr2l
  6354   0029EE  C07D  FFDA         	movff	_pDst+1,fsr2h
  6355   0029F2  0E07               	movlw	(high __ramtop+-1)
  6356   0029F4  64F7               	cpfsgt	tblptrh,c
  6357   0029F6  D003               	bra	u2407
  6358   0029F8  0008               	tblrd		*
  6359   0029FA  50F5               	movf	tablat,w,c
  6360   0029FC  D005               	bra	u2400
  6361   0029FE                     u2407:
  6362   0029FE  CFF6 FFE1          	movff	tblptrl,fsr1l
  6363   002A02  CFF7 FFE2          	movff	tblptrh,fsr1h
  6364   002A06  50E7               	movf	indf1,w,c
  6365   002A08                     u2400:
  6366   002A08  6EDF               	movwf	indf2,c
  6367   002A0A  0100               	movlb	0	; () banked
  6368   002A0C  4B68               	infsnz	_inPipes& (0+255),f,b
  6369   002A0E  2B69               	incf	(_inPipes+1)& (0+255),f,b
  6370   002A10                     
  6371                           ; BSR set to: 0
  6372   002A10  4B7C               	infsnz	_pDst& (0+255),f,b
  6373   002A12  2B7D               	incf	(_pDst+1)& (0+255),f,b
  6374   002A14                     
  6375                           ; BSR set to: 0
  6376                           ;../source/usb/usb_device.c: 1774:             byteToSend--;
  6377   002A14  0601               	decf	USBCtrlTrfTxService@byteToSend^0,f,c
  6378   002A16                     l3392:
  6379                           
  6380                           ; BSR set to: 0
  6381                           ;../source/usb/usb_device.c: 1771:         while(byteToSend)
  6382   002A16  5001               	movf	USBCtrlTrfTxService@byteToSend^0,w,c
  6383   002A18  A4D8               	btfss	status,2,c
  6384   002A1A  EF11  F015         	goto	u2411
  6385   002A1E  EF13  F015         	goto	u2410
  6386   002A22                     u2411:
  6387   002A22  EFF0  F014         	goto	l3384
  6388   002A26                     u2410:
  6389   002A26  EF38  F015         	goto	l238
  6390   002A2A                     l3394:
  6391                           
  6392                           ; BSR set to: 0
  6393                           ;../source/usb/usb_device.c: 1780:         {;../source/usb/usb_device.c: 1781:          
      +                             *pDst++ = *inPipes[0].pSrc.bRam++;
  6394   002A2A  C068  FFF6         	movff	_inPipes,tblptrl
  6395   002A2E  C069  FFF7         	movff	_inPipes+1,tblptrh
  6396   002A32  6AF8               	clrf	tblptru,c
  6397   002A34  C07C  FFD9         	movff	_pDst,fsr2l
  6398   002A38  C07D  FFDA         	movff	_pDst+1,fsr2h
  6399   002A3C  0E07               	movlw	(high __ramtop+-1)
  6400   002A3E  64F7               	cpfsgt	tblptrh,c
  6401   002A40  D003               	bra	u2427
  6402   002A42  0008               	tblrd		*
  6403   002A44  50F5               	movf	tablat,w,c
  6404   002A46  D005               	bra	u2420
  6405   002A48                     u2427:
  6406   002A48  CFF6 FFE1          	movff	tblptrl,fsr1l
  6407   002A4C  CFF7 FFE2          	movff	tblptrh,fsr1h
  6408   002A50  50E7               	movf	indf1,w,c
  6409   002A52                     u2420:
  6410   002A52  6EDF               	movwf	indf2,c
  6411   002A54  0100               	movlb	0	; () banked
  6412   002A56  4B68               	infsnz	_inPipes& (0+255),f,b
  6413   002A58  2B69               	incf	(_inPipes+1)& (0+255),f,b
  6414   002A5A                     
  6415                           ; BSR set to: 0
  6416   002A5A  4B7C               	infsnz	_pDst& (0+255),f,b
  6417   002A5C  2B7D               	incf	(_pDst+1)& (0+255),f,b
  6418   002A5E                     
  6419                           ; BSR set to: 0
  6420                           ;../source/usb/usb_device.c: 1782:             byteToSend--;
  6421   002A5E  0601               	decf	USBCtrlTrfTxService@byteToSend^0,f,c
  6422   002A60                     l3402:
  6423                           
  6424                           ; BSR set to: 0
  6425                           ;../source/usb/usb_device.c: 1779:         while(byteToSend)
  6426   002A60  5001               	movf	USBCtrlTrfTxService@byteToSend^0,w,c
  6427   002A62  A4D8               	btfss	status,2,c
  6428   002A64  EF36  F015         	goto	u2431
  6429   002A68  EF38  F015         	goto	u2430
  6430   002A6C                     u2431:
  6431   002A6C  EF15  F015         	goto	l3394
  6432   002A70                     u2430:
  6433   002A70                     l238:
  6434                           
  6435                           ; BSR set to: 0
  6436   002A70  0012               	return		;funcret
  6437   002A72                     __end_of_USBCtrlTrfTxService:
  6438                           	callstack 0
  6439                           
  6440 ;; *************** function _APP_DeviceJoystickTasks *****************
  6441 ;; Defined at:
  6442 ;;		line 126 in file "../source/app_device_joystick.c"
  6443 ;; Parameters:    Size  Location     Type
  6444 ;;		None
  6445 ;; Auto vars:     Size  Location     Type
  6446 ;;		None
  6447 ;; Return value:  Size  Location     Type
  6448 ;;                  1    wreg      void 
  6449 ;; Registers used:
  6450 ;;		wreg, fsr2l, fsr2h, status,2, status,0, prodl, prodh, cstack
  6451 ;; Tracked objects:
  6452 ;;		On entry : 0/0
  6453 ;;		On exit  : 0/0
  6454 ;;		Unchanged: 0/0
  6455 ;; Data sizes:     COMRAM   BANK0   BANK1   BANK2   BANK3   BANK4   BANK5   BANK6   BANK7
  6456 ;;      Params:         0       0       0       0       0       0       0       0       0
  6457 ;;      Locals:         4       0       0       0       0       0       0       0       0
  6458 ;;      Temps:          0       0       0       0       0       0       0       0       0
  6459 ;;      Totals:         4       0       0       0       0       0       0       0       0
  6460 ;;Total ram usage:        4 bytes
  6461 ;; Hardware stack levels used: 1
  6462 ;; Hardware stack levels required when called: 3
  6463 ;; This function calls:
  6464 ;;		_ADC_Readbits
  6465 ;;		_USBTransferOnePacket
  6466 ;;		___fladd
  6467 ;;		___flge
  6468 ;;		___flmul
  6469 ;;		___flsub
  6470 ;;		___fltol
  6471 ;;		___xxtofl
  6472 ;; This function is called by:
  6473 ;;		_main
  6474 ;; This function uses a non-reentrant model
  6475 ;;
  6476                           
  6477                           	psect	text31
  6478   000D68                     __ptext31:
  6479                           	callstack 0
  6480   000D68                     _APP_DeviceJoystickTasks:
  6481                           	callstack 27
  6482   000D68                     
  6483                           ;../source/app_device_joystick.c: 131:     if( USBDeviceState < CONFIGURED_STATE )
  6484   000D68  0E20               	movlw	32
  6485   000D6A  0100               	movlb	0	; () banked
  6486   000D6C  618B               	cpfslt	_USBDeviceState& (0+255),b
  6487   000D6E  EFBB  F006         	goto	u4251
  6488   000D72  EFBD  F006         	goto	u4250
  6489   000D76                     u4251:
  6490   000D76  EFBF  F006         	goto	l531
  6491   000D7A                     u4250:
  6492   000D7A  EF0C  F009         	goto	l532
  6493   000D7E                     l531:
  6494                           
  6495                           ; BSR set to: 0
  6496                           ;../source/app_device_joystick.c: 141:     if( UCONbits.SUSPND == 1 )
  6497   000D7E  A26D               	btfss	109,1,c	;volatile
  6498   000D80  EFC4  F006         	goto	u4261
  6499   000D84  EFC6  F006         	goto	u4260
  6500   000D88                     u4261:
  6501   000D88  EFC8  F006         	goto	l4652
  6502   000D8C                     u4260:
  6503   000D8C  EF0C  F009         	goto	l532
  6504   000D90                     l4652:
  6505                           
  6506                           ; BSR set to: 0
  6507                           ;../source/app_device_joystick.c: 148:     if(!((lastTransmission != 0x0000) && ((*(vola
      +                          tile uint8_t*)lastTransmission & 0x80) != 0x00)))
  6508   000D90  5176               	movf	_lastTransmission& (0+255),w,b
  6509   000D92  1177               	iorwf	(_lastTransmission+1)& (0+255),w,b
  6510   000D94  B4D8               	btfsc	status,2,c
  6511   000D96  EFCF  F006         	goto	u4271
  6512   000D9A  EFD1  F006         	goto	u4270
  6513   000D9E                     u4271:
  6514   000D9E  EFDC  F006         	goto	l4656
  6515   000DA2                     u4270:
  6516   000DA2                     
  6517                           ; BSR set to: 0
  6518   000DA2  C076  FFD9         	movff	_lastTransmission,fsr2l
  6519   000DA6  C077  FFDA         	movff	_lastTransmission+1,fsr2h
  6520   000DAA  BEDF               	btfsc	indf2,7,c
  6521   000DAC  EFDA  F006         	goto	u4281
  6522   000DB0  EFDC  F006         	goto	u4280
  6523   000DB4                     u4281:
  6524   000DB4  EF0C  F009         	goto	l532
  6525   000DB8                     u4280:
  6526   000DB8                     l4656:
  6527                           
  6528                           ; BSR set to: 0
  6529                           ;../source/app_device_joystick.c: 149:     {;../source/app_device_joystick.c: 178:      
      +                             joystick_input.members.analog_stick.Rx = (1.05*ADC_Readbits(ADC_CHANNEL_0))-615;
  6530   000DB8  0E00               	movlw	0
  6531   000DBA  6E33               	movwf	___fladd@a^0,c
  6532   000DBC  0EC0               	movlw	192
  6533   000DBE  6E34               	movwf	(___fladd@a+1)^0,c
  6534   000DC0  0E19               	movlw	25
  6535   000DC2  6E35               	movwf	(___fladd@a+2)^0,c
  6536   000DC4  0EC4               	movlw	196
  6537   000DC6  6E36               	movwf	(___fladd@a+3)^0,c
  6538   000DC8  0E66               	movlw	102
  6539   000DCA  6E1A               	movwf	___flmul@a^0,c
  6540   000DCC  0E66               	movlw	102
  6541   000DCE  6E1B               	movwf	(___flmul@a+1)^0,c
  6542   000DD0  0E86               	movlw	134
  6543   000DD2  6E1C               	movwf	(___flmul@a+2)^0,c
  6544   000DD4  0E3F               	movlw	63
  6545   000DD6  6E1D               	movwf	(___flmul@a+3)^0,c
  6546   000DD8  0E00               	movlw	0
  6547   000DDA  EC57  F019         	call	_ADC_Readbits
  6548   000DDE  C001  F008         	movff	?_ADC_Readbits,___xxtofl@val
  6549   000DE2  C002  F009         	movff	?_ADC_Readbits+1,___xxtofl@val+1
  6550   000DE6  6A0A               	clrf	(___xxtofl@val+2)^0,c
  6551   000DE8  6A0B               	clrf	(___xxtofl@val+3)^0,c
  6552   000DEA  0E00               	movlw	0
  6553   000DEC  EC0A  F00E         	call	___xxtofl
  6554   000DF0  C008  F016         	movff	?___xxtofl,___flmul@b
  6555   000DF4  C009  F017         	movff	?___xxtofl+1,___flmul@b+1
  6556   000DF8  C00A  F018         	movff	?___xxtofl+2,___flmul@b+2
  6557   000DFC  C00B  F019         	movff	?___xxtofl+3,___flmul@b+3
  6558   000E00  EC0D  F009         	call	___flmul	;wreg free
  6559   000E04  C016  F02F         	movff	?___flmul,___fladd@b
  6560   000E08  C017  F030         	movff	?___flmul+1,___fladd@b+1
  6561   000E0C  C018  F031         	movff	?___flmul+2,___fladd@b+2
  6562   000E10  C019  F032         	movff	?___flmul+3,___fladd@b+3
  6563   000E14  EC54  F004         	call	___fladd	;wreg free
  6564   000E18  C02F  F047         	movff	?___fladd,___fltol@f1
  6565   000E1C  C030  F048         	movff	?___fladd+1,___fltol@f1+1
  6566   000E20  C031  F049         	movff	?___fladd+2,___fltol@f1+2
  6567   000E24  C032  F04A         	movff	?___fladd+3,___fltol@f1+3
  6568   000E28  ECBF  F015         	call	___fltol	;wreg free
  6569   000E2C  5047               	movf	?___fltol^0,w,c
  6570   000E2E  0105               	movlb	5	; () banked
  6571   000E30  6F00               	movwf	0,b
  6572                           
  6573                           ;../source/app_device_joystick.c: 180:         if ((1.7*ADC_Readbits(ADC_CHANNEL_1))-240
      +                           < 50) {
  6574   000E32  0E00               	movlw	0
  6575   000E34  6E33               	movwf	___fladd@a^0,c
  6576   000E36  0E00               	movlw	0
  6577   000E38  6E34               	movwf	(___fladd@a+1)^0,c
  6578   000E3A  0E70               	movlw	112
  6579   000E3C  6E35               	movwf	(___fladd@a+2)^0,c
  6580   000E3E  0EC3               	movlw	195
  6581   000E40  6E36               	movwf	(___fladd@a+3)^0,c
  6582   000E42  0E9A               	movlw	154
  6583   000E44  6E1A               	movwf	___flmul@a^0,c
  6584   000E46  0E99               	movlw	153
  6585   000E48  6E1B               	movwf	(___flmul@a+1)^0,c
  6586   000E4A  0ED9               	movlw	217
  6587   000E4C  6E1C               	movwf	(___flmul@a+2)^0,c
  6588   000E4E  0E3F               	movlw	63
  6589   000E50  6E1D               	movwf	(___flmul@a+3)^0,c
  6590   000E52  0E01               	movlw	1
  6591   000E54  EC57  F019         	call	_ADC_Readbits
  6592   000E58  C001  F008         	movff	?_ADC_Readbits,___xxtofl@val
  6593   000E5C  C002  F009         	movff	?_ADC_Readbits+1,___xxtofl@val+1
  6594   000E60  6A0A               	clrf	(___xxtofl@val+2)^0,c
  6595   000E62  6A0B               	clrf	(___xxtofl@val+3)^0,c
  6596   000E64  0E00               	movlw	0
  6597   000E66  EC0A  F00E         	call	___xxtofl
  6598   000E6A  C008  F016         	movff	?___xxtofl,___flmul@b
  6599   000E6E  C009  F017         	movff	?___xxtofl+1,___flmul@b+1
  6600   000E72  C00A  F018         	movff	?___xxtofl+2,___flmul@b+2
  6601   000E76  C00B  F019         	movff	?___xxtofl+3,___flmul@b+3
  6602   000E7A  EC0D  F009         	call	___flmul	;wreg free
  6603   000E7E  C016  F02F         	movff	?___flmul,___fladd@b
  6604   000E82  C017  F030         	movff	?___flmul+1,___fladd@b+1
  6605   000E86  C018  F031         	movff	?___flmul+2,___fladd@b+2
  6606   000E8A  C019  F032         	movff	?___flmul+3,___fladd@b+3
  6607   000E8E  EC54  F004         	call	___fladd	;wreg free
  6608   000E92  C02F  F047         	movff	?___fladd,___flge@ff1
  6609   000E96  C030  F048         	movff	?___fladd+1,___flge@ff1+1
  6610   000E9A  C031  F049         	movff	?___fladd+2,___flge@ff1+2
  6611   000E9E  C032  F04A         	movff	?___fladd+3,___flge@ff1+3
  6612   000EA2  0E00               	movlw	0
  6613   000EA4  6E4B               	movwf	___flge@ff2^0,c
  6614   000EA6  0E00               	movlw	0
  6615   000EA8  6E4C               	movwf	(___flge@ff2+1)^0,c
  6616   000EAA  0E48               	movlw	72
  6617   000EAC  6E4D               	movwf	(___flge@ff2+2)^0,c
  6618   000EAE  0E42               	movlw	66
  6619   000EB0  6E4E               	movwf	(___flge@ff2+3)^0,c
  6620   000EB2  EC42  F016         	call	___flge	;wreg free
  6621   000EB6  B0D8               	btfsc	status,0,c
  6622   000EB8  EF60  F007         	goto	u4291
  6623   000EBC  EF62  F007         	goto	u4290
  6624   000EC0                     u4291:
  6625   000EC0  EF67  F007         	goto	l4660
  6626   000EC4                     u4290:
  6627   000EC4                     
  6628                           ;../source/app_device_joystick.c: 181:             joystick_input.members.analog_stick.R
      +                          y = 0;
  6629   000EC4  0E00               	movlw	0
  6630   000EC6  0105               	movlb	5	; () banked
  6631   000EC8  6F01               	movwf	1,b
  6632                           
  6633                           ;../source/app_device_joystick.c: 182:         } else if ((1.7*ADC_Readbits(ADC_CHANNEL_
      +                          1))-240 > 200){
  6634   000ECA  EFF1  F007         	goto	l538
  6635   000ECE                     l4660:
  6636   000ECE  0E00               	movlw	0
  6637   000ED0  6E47               	movwf	___flge@ff1^0,c
  6638   000ED2  0E00               	movlw	0
  6639   000ED4  6E48               	movwf	(___flge@ff1+1)^0,c
  6640   000ED6  0E48               	movlw	72
  6641   000ED8  6E49               	movwf	(___flge@ff1+2)^0,c
  6642   000EDA  0E43               	movlw	67
  6643   000EDC  6E4A               	movwf	(___flge@ff1+3)^0,c
  6644   000EDE  0E00               	movlw	0
  6645   000EE0  6E33               	movwf	___fladd@a^0,c
  6646   000EE2  0E00               	movlw	0
  6647   000EE4  6E34               	movwf	(___fladd@a+1)^0,c
  6648   000EE6  0E70               	movlw	112
  6649   000EE8  6E35               	movwf	(___fladd@a+2)^0,c
  6650   000EEA  0EC3               	movlw	195
  6651   000EEC  6E36               	movwf	(___fladd@a+3)^0,c
  6652   000EEE  0E9A               	movlw	154
  6653   000EF0  6E1A               	movwf	___flmul@a^0,c
  6654   000EF2  0E99               	movlw	153
  6655   000EF4  6E1B               	movwf	(___flmul@a+1)^0,c
  6656   000EF6  0ED9               	movlw	217
  6657   000EF8  6E1C               	movwf	(___flmul@a+2)^0,c
  6658   000EFA  0E3F               	movlw	63
  6659   000EFC  6E1D               	movwf	(___flmul@a+3)^0,c
  6660   000EFE  0E01               	movlw	1
  6661   000F00  EC57  F019         	call	_ADC_Readbits
  6662   000F04  C001  F008         	movff	?_ADC_Readbits,___xxtofl@val
  6663   000F08  C002  F009         	movff	?_ADC_Readbits+1,___xxtofl@val+1
  6664   000F0C  6A0A               	clrf	(___xxtofl@val+2)^0,c
  6665   000F0E  6A0B               	clrf	(___xxtofl@val+3)^0,c
  6666   000F10  0E00               	movlw	0
  6667   000F12  EC0A  F00E         	call	___xxtofl
  6668   000F16  C008  F016         	movff	?___xxtofl,___flmul@b
  6669   000F1A  C009  F017         	movff	?___xxtofl+1,___flmul@b+1
  6670   000F1E  C00A  F018         	movff	?___xxtofl+2,___flmul@b+2
  6671   000F22  C00B  F019         	movff	?___xxtofl+3,___flmul@b+3
  6672   000F26  EC0D  F009         	call	___flmul	;wreg free
  6673   000F2A  C016  F02F         	movff	?___flmul,___fladd@b
  6674   000F2E  C017  F030         	movff	?___flmul+1,___fladd@b+1
  6675   000F32  C018  F031         	movff	?___flmul+2,___fladd@b+2
  6676   000F36  C019  F032         	movff	?___flmul+3,___fladd@b+3
  6677   000F3A  EC54  F004         	call	___fladd	;wreg free
  6678   000F3E  C02F  F04B         	movff	?___fladd,___flge@ff2
  6679   000F42  C030  F04C         	movff	?___fladd+1,___flge@ff2+1
  6680   000F46  C031  F04D         	movff	?___fladd+2,___flge@ff2+2
  6681   000F4A  C032  F04E         	movff	?___fladd+3,___flge@ff2+3
  6682   000F4E  EC42  F016         	call	___flge	;wreg free
  6683   000F52  B0D8               	btfsc	status,0,c
  6684   000F54  EFAE  F007         	goto	u4301
  6685   000F58  EFB0  F007         	goto	u4300
  6686   000F5C                     u4301:
  6687   000F5C  EFB4  F007         	goto	l4664
  6688   000F60                     u4300:
  6689   000F60                     
  6690                           ;../source/app_device_joystick.c: 183:             joystick_input.members.analog_stick.R
      +                          y = 255;
  6691   000F60  0105               	movlb	5	; () banked
  6692   000F62  6901               	setf	1,b
  6693                           
  6694                           ;../source/app_device_joystick.c: 184:         } else {
  6695   000F64  EFF1  F007         	goto	l538
  6696   000F68                     l4664:
  6697                           
  6698                           ;../source/app_device_joystick.c: 185:             joystick_input.members.analog_stick.R
      +                          y = (1.7*ADC_Readbits(ADC_CHANNEL_1))-240;
  6699   000F68  0E00               	movlw	0
  6700   000F6A  6E33               	movwf	___fladd@a^0,c
  6701   000F6C  0E00               	movlw	0
  6702   000F6E  6E34               	movwf	(___fladd@a+1)^0,c
  6703   000F70  0E70               	movlw	112
  6704   000F72  6E35               	movwf	(___fladd@a+2)^0,c
  6705   000F74  0EC3               	movlw	195
  6706   000F76  6E36               	movwf	(___fladd@a+3)^0,c
  6707   000F78  0E9A               	movlw	154
  6708   000F7A  6E1A               	movwf	___flmul@a^0,c
  6709   000F7C  0E99               	movlw	153
  6710   000F7E  6E1B               	movwf	(___flmul@a+1)^0,c
  6711   000F80  0ED9               	movlw	217
  6712   000F82  6E1C               	movwf	(___flmul@a+2)^0,c
  6713   000F84  0E3F               	movlw	63
  6714   000F86  6E1D               	movwf	(___flmul@a+3)^0,c
  6715   000F88  0E01               	movlw	1
  6716   000F8A  EC57  F019         	call	_ADC_Readbits
  6717   000F8E  C001  F008         	movff	?_ADC_Readbits,___xxtofl@val
  6718   000F92  C002  F009         	movff	?_ADC_Readbits+1,___xxtofl@val+1
  6719   000F96  6A0A               	clrf	(___xxtofl@val+2)^0,c
  6720   000F98  6A0B               	clrf	(___xxtofl@val+3)^0,c
  6721   000F9A  0E00               	movlw	0
  6722   000F9C  EC0A  F00E         	call	___xxtofl
  6723   000FA0  C008  F016         	movff	?___xxtofl,___flmul@b
  6724   000FA4  C009  F017         	movff	?___xxtofl+1,___flmul@b+1
  6725   000FA8  C00A  F018         	movff	?___xxtofl+2,___flmul@b+2
  6726   000FAC  C00B  F019         	movff	?___xxtofl+3,___flmul@b+3
  6727   000FB0  EC0D  F009         	call	___flmul	;wreg free
  6728   000FB4  C016  F02F         	movff	?___flmul,___fladd@b
  6729   000FB8  C017  F030         	movff	?___flmul+1,___fladd@b+1
  6730   000FBC  C018  F031         	movff	?___flmul+2,___fladd@b+2
  6731   000FC0  C019  F032         	movff	?___flmul+3,___fladd@b+3
  6732   000FC4  EC54  F004         	call	___fladd	;wreg free
  6733   000FC8  C02F  F047         	movff	?___fladd,___fltol@f1
  6734   000FCC  C030  F048         	movff	?___fladd+1,___fltol@f1+1
  6735   000FD0  C031  F049         	movff	?___fladd+2,___fltol@f1+2
  6736   000FD4  C032  F04A         	movff	?___fladd+3,___fltol@f1+3
  6737   000FD8  ECBF  F015         	call	___fltol	;wreg free
  6738   000FDC  5047               	movf	?___fltol^0,w,c
  6739   000FDE  0105               	movlb	5	; () banked
  6740   000FE0  6F01               	movwf	1,b
  6741   000FE2                     l538:
  6742                           
  6743                           ; BSR set to: 5
  6744                           ;../source/app_device_joystick.c: 188:         if ((255-((1.7*ADC_Readbits(ADC_CHANNEL_2
      +                          ))-1220)) < 50) {
  6745   000FE2  0E00               	movlw	0
  6746   000FE4  6E33               	movwf	___fladd@a^0,c
  6747   000FE6  0E80               	movlw	128
  6748   000FE8  6E34               	movwf	(___fladd@a+1)^0,c
  6749   000FEA  0E98               	movlw	152
  6750   000FEC  6E35               	movwf	(___fladd@a+2)^0,c
  6751   000FEE  0EC4               	movlw	196
  6752   000FF0  6E36               	movwf	(___fladd@a+3)^0,c
  6753   000FF2  0E9A               	movlw	154
  6754   000FF4  6E1A               	movwf	___flmul@a^0,c
  6755   000FF6  0E99               	movlw	153
  6756   000FF8  6E1B               	movwf	(___flmul@a+1)^0,c
  6757   000FFA  0ED9               	movlw	217
  6758   000FFC  6E1C               	movwf	(___flmul@a+2)^0,c
  6759   000FFE  0E3F               	movlw	63
  6760   001000  6E1D               	movwf	(___flmul@a+3)^0,c
  6761   001002  0E02               	movlw	2
  6762   001004  EC57  F019         	call	_ADC_Readbits
  6763   001008  C001  F008         	movff	?_ADC_Readbits,___xxtofl@val
  6764   00100C  C002  F009         	movff	?_ADC_Readbits+1,___xxtofl@val+1
  6765   001010  6A0A               	clrf	(___xxtofl@val+2)^0,c
  6766   001012  6A0B               	clrf	(___xxtofl@val+3)^0,c
  6767   001014  0E00               	movlw	0
  6768   001016  EC0A  F00E         	call	___xxtofl
  6769   00101A  C008  F016         	movff	?___xxtofl,___flmul@b
  6770   00101E  C009  F017         	movff	?___xxtofl+1,___flmul@b+1
  6771   001022  C00A  F018         	movff	?___xxtofl+2,___flmul@b+2
  6772   001026  C00B  F019         	movff	?___xxtofl+3,___flmul@b+3
  6773   00102A  EC0D  F009         	call	___flmul	;wreg free
  6774   00102E  C016  F02F         	movff	?___flmul,___fladd@b
  6775   001032  C017  F030         	movff	?___flmul+1,___fladd@b+1
  6776   001036  C018  F031         	movff	?___flmul+2,___fladd@b+2
  6777   00103A  C019  F032         	movff	?___flmul+3,___fladd@b+3
  6778   00103E  EC54  F004         	call	___fladd	;wreg free
  6779   001042  C02F  F053         	movff	?___fladd,_APP_DeviceJoystickTasks$2981
  6780   001046  C030  F054         	movff	?___fladd+1,_APP_DeviceJoystickTasks$2981+1
  6781   00104A  C031  F055         	movff	?___fladd+2,_APP_DeviceJoystickTasks$2981+2
  6782   00104E  C032  F056         	movff	?___fladd+3,_APP_DeviceJoystickTasks$2981+3
  6783   001052                     
  6784                           ;../source/app_device_joystick.c: 188:         if ((255-((1.7*ADC_Readbits(ADC_CHANNEL_2
      +                          ))-1220)) < 50) {
  6785   001052  C053  F043         	movff	_APP_DeviceJoystickTasks$2981,___flsub@a
  6786   001056  C054  F044         	movff	_APP_DeviceJoystickTasks$2981+1,___flsub@a+1
  6787   00105A  C055  F045         	movff	_APP_DeviceJoystickTasks$2981+2,___flsub@a+2
  6788   00105E  C056  F046         	movff	_APP_DeviceJoystickTasks$2981+3,___flsub@a+3
  6789   001062  0E00               	movlw	0
  6790   001064  6E3F               	movwf	___flsub@b^0,c
  6791   001066  0E00               	movlw	0
  6792   001068  6E40               	movwf	(___flsub@b+1)^0,c
  6793   00106A  0E7F               	movlw	127
  6794   00106C  6E41               	movwf	(___flsub@b+2)^0,c
  6795   00106E  0E43               	movlw	67
  6796   001070  6E42               	movwf	(___flsub@b+3)^0,c
  6797   001072  EC9F  F01A         	call	___flsub	;wreg free
  6798   001076  C03F  F047         	movff	?___flsub,___flge@ff1
  6799   00107A  C040  F048         	movff	?___flsub+1,___flge@ff1+1
  6800   00107E  C041  F049         	movff	?___flsub+2,___flge@ff1+2
  6801   001082  C042  F04A         	movff	?___flsub+3,___flge@ff1+3
  6802   001086  0E00               	movlw	0
  6803   001088  6E4B               	movwf	___flge@ff2^0,c
  6804   00108A  0E00               	movlw	0
  6805   00108C  6E4C               	movwf	(___flge@ff2+1)^0,c
  6806   00108E  0E48               	movlw	72
  6807   001090  6E4D               	movwf	(___flge@ff2+2)^0,c
  6808   001092  0E42               	movlw	66
  6809   001094  6E4E               	movwf	(___flge@ff2+3)^0,c
  6810   001096  EC42  F016         	call	___flge	;wreg free
  6811   00109A  B0D8               	btfsc	status,0,c
  6812   00109C  EF52  F008         	goto	u4311
  6813   0010A0  EF54  F008         	goto	u4310
  6814   0010A4                     u4311:
  6815   0010A4  EF59  F008         	goto	l4670
  6816   0010A8                     u4310:
  6817   0010A8                     
  6818                           ;../source/app_device_joystick.c: 189:             joystick_input.members.analog_stick.R
      +                          z = 0;
  6819   0010A8  0E00               	movlw	0
  6820   0010AA  0105               	movlb	5	; () banked
  6821   0010AC  6F02               	movwf	2,b
  6822                           
  6823                           ;../source/app_device_joystick.c: 190:         } else if ((1.7*ADC_Readbits(ADC_CHANNEL_
      +                          2))-1220 > 200) {
  6824   0010AE  EFFD  F008         	goto	l4678
  6825   0010B2                     l4670:
  6826   0010B2  0E00               	movlw	0
  6827   0010B4  6E47               	movwf	___flge@ff1^0,c
  6828   0010B6  0E00               	movlw	0
  6829   0010B8  6E48               	movwf	(___flge@ff1+1)^0,c
  6830   0010BA  0E48               	movlw	72
  6831   0010BC  6E49               	movwf	(___flge@ff1+2)^0,c
  6832   0010BE  0E43               	movlw	67
  6833   0010C0  6E4A               	movwf	(___flge@ff1+3)^0,c
  6834   0010C2  0E00               	movlw	0
  6835   0010C4  6E33               	movwf	___fladd@a^0,c
  6836   0010C6  0E80               	movlw	128
  6837   0010C8  6E34               	movwf	(___fladd@a+1)^0,c
  6838   0010CA  0E98               	movlw	152
  6839   0010CC  6E35               	movwf	(___fladd@a+2)^0,c
  6840   0010CE  0EC4               	movlw	196
  6841   0010D0  6E36               	movwf	(___fladd@a+3)^0,c
  6842   0010D2  0E9A               	movlw	154
  6843   0010D4  6E1A               	movwf	___flmul@a^0,c
  6844   0010D6  0E99               	movlw	153
  6845   0010D8  6E1B               	movwf	(___flmul@a+1)^0,c
  6846   0010DA  0ED9               	movlw	217
  6847   0010DC  6E1C               	movwf	(___flmul@a+2)^0,c
  6848   0010DE  0E3F               	movlw	63
  6849   0010E0  6E1D               	movwf	(___flmul@a+3)^0,c
  6850   0010E2  0E02               	movlw	2
  6851   0010E4  EC57  F019         	call	_ADC_Readbits
  6852   0010E8  C001  F008         	movff	?_ADC_Readbits,___xxtofl@val
  6853   0010EC  C002  F009         	movff	?_ADC_Readbits+1,___xxtofl@val+1
  6854   0010F0  6A0A               	clrf	(___xxtofl@val+2)^0,c
  6855   0010F2  6A0B               	clrf	(___xxtofl@val+3)^0,c
  6856   0010F4  0E00               	movlw	0
  6857   0010F6  EC0A  F00E         	call	___xxtofl
  6858   0010FA  C008  F016         	movff	?___xxtofl,___flmul@b
  6859   0010FE  C009  F017         	movff	?___xxtofl+1,___flmul@b+1
  6860   001102  C00A  F018         	movff	?___xxtofl+2,___flmul@b+2
  6861   001106  C00B  F019         	movff	?___xxtofl+3,___flmul@b+3
  6862   00110A  EC0D  F009         	call	___flmul	;wreg free
  6863   00110E  C016  F02F         	movff	?___flmul,___fladd@b
  6864   001112  C017  F030         	movff	?___flmul+1,___fladd@b+1
  6865   001116  C018  F031         	movff	?___flmul+2,___fladd@b+2
  6866   00111A  C019  F032         	movff	?___flmul+3,___fladd@b+3
  6867   00111E  EC54  F004         	call	___fladd	;wreg free
  6868   001122  C02F  F04B         	movff	?___fladd,___flge@ff2
  6869   001126  C030  F04C         	movff	?___fladd+1,___flge@ff2+1
  6870   00112A  C031  F04D         	movff	?___fladd+2,___flge@ff2+2
  6871   00112E  C032  F04E         	movff	?___fladd+3,___flge@ff2+3
  6872   001132  EC42  F016         	call	___flge	;wreg free
  6873   001136  B0D8               	btfsc	status,0,c
  6874   001138  EFA0  F008         	goto	u4321
  6875   00113C  EFA2  F008         	goto	u4320
  6876   001140                     u4321:
  6877   001140  EFA6  F008         	goto	l4674
  6878   001144                     u4320:
  6879   001144                     
  6880                           ;../source/app_device_joystick.c: 191:             joystick_input.members.analog_stick.R
      +                          z = 255;
  6881   001144  0105               	movlb	5	; () banked
  6882   001146  6902               	setf	2,b
  6883                           
  6884                           ;../source/app_device_joystick.c: 192:         } else {
  6885   001148  EFFD  F008         	goto	l4678
  6886   00114C                     l4674:
  6887                           
  6888                           ;../source/app_device_joystick.c: 193:             joystick_input.members.analog_stick.R
      +                          z = 255-((1.7*ADC_Readbits(ADC_CHANNEL_2))-1220);
  6889   00114C  0E00               	movlw	0
  6890   00114E  6E33               	movwf	___fladd@a^0,c
  6891   001150  0E80               	movlw	128
  6892   001152  6E34               	movwf	(___fladd@a+1)^0,c
  6893   001154  0E98               	movlw	152
  6894   001156  6E35               	movwf	(___fladd@a+2)^0,c
  6895   001158  0EC4               	movlw	196
  6896   00115A  6E36               	movwf	(___fladd@a+3)^0,c
  6897   00115C  0E9A               	movlw	154
  6898   00115E  6E1A               	movwf	___flmul@a^0,c
  6899   001160  0E99               	movlw	153
  6900   001162  6E1B               	movwf	(___flmul@a+1)^0,c
  6901   001164  0ED9               	movlw	217
  6902   001166  6E1C               	movwf	(___flmul@a+2)^0,c
  6903   001168  0E3F               	movlw	63
  6904   00116A  6E1D               	movwf	(___flmul@a+3)^0,c
  6905   00116C  0E02               	movlw	2
  6906   00116E  EC57  F019         	call	_ADC_Readbits
  6907   001172  C001  F008         	movff	?_ADC_Readbits,___xxtofl@val
  6908   001176  C002  F009         	movff	?_ADC_Readbits+1,___xxtofl@val+1
  6909   00117A  6A0A               	clrf	(___xxtofl@val+2)^0,c
  6910   00117C  6A0B               	clrf	(___xxtofl@val+3)^0,c
  6911   00117E  0E00               	movlw	0
  6912   001180  EC0A  F00E         	call	___xxtofl
  6913   001184  C008  F016         	movff	?___xxtofl,___flmul@b
  6914   001188  C009  F017         	movff	?___xxtofl+1,___flmul@b+1
  6915   00118C  C00A  F018         	movff	?___xxtofl+2,___flmul@b+2
  6916   001190  C00B  F019         	movff	?___xxtofl+3,___flmul@b+3
  6917   001194  EC0D  F009         	call	___flmul	;wreg free
  6918   001198  C016  F02F         	movff	?___flmul,___fladd@b
  6919   00119C  C017  F030         	movff	?___flmul+1,___fladd@b+1
  6920   0011A0  C018  F031         	movff	?___flmul+2,___fladd@b+2
  6921   0011A4  C019  F032         	movff	?___flmul+3,___fladd@b+3
  6922   0011A8  EC54  F004         	call	___fladd	;wreg free
  6923   0011AC  C02F  F053         	movff	?___fladd,_APP_DeviceJoystickTasks$2981
  6924   0011B0  C030  F054         	movff	?___fladd+1,_APP_DeviceJoystickTasks$2981+1
  6925   0011B4  C031  F055         	movff	?___fladd+2,_APP_DeviceJoystickTasks$2981+2
  6926   0011B8  C032  F056         	movff	?___fladd+3,_APP_DeviceJoystickTasks$2981+3
  6927   0011BC                     
  6928                           ;../source/app_device_joystick.c: 193:             joystick_input.members.analog_stick.R
      +                          z = 255-((1.7*ADC_Readbits(ADC_CHANNEL_2))-1220);
  6929   0011BC  C053  F043         	movff	_APP_DeviceJoystickTasks$2981,___flsub@a
  6930   0011C0  C054  F044         	movff	_APP_DeviceJoystickTasks$2981+1,___flsub@a+1
  6931   0011C4  C055  F045         	movff	_APP_DeviceJoystickTasks$2981+2,___flsub@a+2
  6932   0011C8  C056  F046         	movff	_APP_DeviceJoystickTasks$2981+3,___flsub@a+3
  6933   0011CC  0E00               	movlw	0
  6934   0011CE  6E3F               	movwf	___flsub@b^0,c
  6935   0011D0  0E00               	movlw	0
  6936   0011D2  6E40               	movwf	(___flsub@b+1)^0,c
  6937   0011D4  0E7F               	movlw	127
  6938   0011D6  6E41               	movwf	(___flsub@b+2)^0,c
  6939   0011D8  0E43               	movlw	67
  6940   0011DA  6E42               	movwf	(___flsub@b+3)^0,c
  6941   0011DC  EC9F  F01A         	call	___flsub	;wreg free
  6942   0011E0  C03F  F047         	movff	?___flsub,___fltol@f1
  6943   0011E4  C040  F048         	movff	?___flsub+1,___fltol@f1+1
  6944   0011E8  C041  F049         	movff	?___flsub+2,___fltol@f1+2
  6945   0011EC  C042  F04A         	movff	?___flsub+3,___fltol@f1+3
  6946   0011F0  ECBF  F015         	call	___fltol	;wreg free
  6947   0011F4  5047               	movf	?___fltol^0,w,c
  6948   0011F6  0105               	movlb	5	; () banked
  6949   0011F8  6F02               	movwf	2,b
  6950   0011FA                     l4678:
  6951                           
  6952                           ; BSR set to: 5
  6953                           ;../source/app_device_joystick.c: 197:         lastTransmission = USBTransferOnePacket(1
      +                          ,1,(uint8_t*)&joystick_input,sizeof(joystick_input));
  6954   0011FA  0E01               	movlw	1
  6955   0011FC  6E01               	movwf	USBTransferOnePacket@dir^0,c
  6956   0011FE  0E00               	movlw	0
  6957   001200  6E02               	movwf	USBTransferOnePacket@data^0,c
  6958   001202  0E05               	movlw	5
  6959   001204  6E03               	movwf	(USBTransferOnePacket@data+1)^0,c
  6960   001206  0E03               	movlw	3
  6961   001208  6E04               	movwf	USBTransferOnePacket@len^0,c
  6962   00120A  0E01               	movlw	1
  6963   00120C  ECF2  F012         	call	_USBTransferOnePacket
  6964   001210  C001  F076         	movff	?_USBTransferOnePacket,_lastTransmission
  6965   001214  C002  F077         	movff	?_USBTransferOnePacket+1,_lastTransmission+1
  6966   001218                     l532:
  6967   001218  0012               	return		;funcret
  6968   00121A                     __end_of_APP_DeviceJoystickTasks:
  6969                           	callstack 0
  6970                           
  6971 ;; *************** function ___xxtofl *****************
  6972 ;; Defined at:
  6973 ;;		line 10 in file "C:\Program Files\Microchip\xc8\v2.40\pic\sources\c99\common\xxtofl.c"
  6974 ;; Parameters:    Size  Location     Type
  6975 ;;  sign            1    wreg     unsigned char 
  6976 ;;  val             4    7[COMRAM] long 
  6977 ;; Auto vars:     Size  Location     Type
  6978 ;;  sign            1   15[COMRAM] unsigned char 
  6979 ;;  arg             4   17[COMRAM] unsigned long 
  6980 ;;  exp             1   16[COMRAM] unsigned char 
  6981 ;; Return value:  Size  Location     Type
  6982 ;;                  4    7[COMRAM] unsigned char 
  6983 ;; Registers used:
  6984 ;;		wreg, status,2, status,0
  6985 ;; Tracked objects:
  6986 ;;		On entry : 0/0
  6987 ;;		On exit  : 0/0
  6988 ;;		Unchanged: 0/0
  6989 ;; Data sizes:     COMRAM   BANK0   BANK1   BANK2   BANK3   BANK4   BANK5   BANK6   BANK7
  6990 ;;      Params:         4       0       0       0       0       0       0       0       0
  6991 ;;      Locals:         6       0       0       0       0       0       0       0       0
  6992 ;;      Temps:          4       0       0       0       0       0       0       0       0
  6993 ;;      Totals:        14       0       0       0       0       0       0       0       0
  6994 ;;Total ram usage:       14 bytes
  6995 ;; Hardware stack levels used: 1
  6996 ;; Hardware stack levels required when called: 1
  6997 ;; This function calls:
  6998 ;;		Nothing
  6999 ;; This function is called by:
  7000 ;;		_APP_DeviceJoystickTasks
  7001 ;; This function uses a non-reentrant model
  7002 ;;
  7003                           
  7004                           	psect	text32
  7005   001C14                     __ptext32:
  7006                           	callstack 0
  7007   001C14                     ___xxtofl:
  7008                           	callstack 28
  7009                           
  7010                           ;incstack = 0
  7011                           ;___xxtofl@sign stored from wreg
  7012   001C14  6E10               	movwf	___xxtofl@sign^0,c
  7013   001C16  5010               	movf	___xxtofl@sign^0,w,c
  7014   001C18  B4D8               	btfsc	status,2,c
  7015   001C1A  EF11  F00E         	goto	u3901
  7016   001C1E  EF13  F00E         	goto	u3900
  7017   001C22                     u3901:
  7018   001C22  EF35  F00E         	goto	l1252
  7019   001C26                     u3900:
  7020   001C26  BE0B               	btfsc	(___xxtofl@val+3)^0,7,c
  7021   001C28  EF1A  F00E         	goto	u3910
  7022   001C2C  EF18  F00E         	goto	u3911
  7023   001C30                     u3911:
  7024   001C30  EF35  F00E         	goto	l1252
  7025   001C34                     u3910:
  7026   001C34  C008  F00C         	movff	___xxtofl@val,??___xxtofl
  7027   001C38  C009  F00D         	movff	___xxtofl@val+1,??___xxtofl+1
  7028   001C3C  C00A  F00E         	movff	___xxtofl@val+2,??___xxtofl+2
  7029   001C40  C00B  F00F         	movff	___xxtofl@val+3,??___xxtofl+3
  7030   001C44  1E0C               	comf	??___xxtofl^0,f,c
  7031   001C46  1E0D               	comf	(??___xxtofl+1)^0,f,c
  7032   001C48  1E0E               	comf	(??___xxtofl+2)^0,f,c
  7033   001C4A  1E0F               	comf	(??___xxtofl+3)^0,f,c
  7034   001C4C  2A0C               	incf	??___xxtofl^0,f,c
  7035   001C4E  0E00               	movlw	0
  7036   001C50  220D               	addwfc	(??___xxtofl+1)^0,f,c
  7037   001C52  220E               	addwfc	(??___xxtofl+2)^0,f,c
  7038   001C54  220F               	addwfc	(??___xxtofl+3)^0,f,c
  7039   001C56  C00C  F012         	movff	??___xxtofl,___xxtofl@arg
  7040   001C5A  C00D  F013         	movff	??___xxtofl+1,___xxtofl@arg+1
  7041   001C5E  C00E  F014         	movff	??___xxtofl+2,___xxtofl@arg+2
  7042   001C62  C00F  F015         	movff	??___xxtofl+3,___xxtofl@arg+3
  7043   001C66  EF3D  F00E         	goto	l4492
  7044   001C6A                     l1252:
  7045   001C6A  C008  F012         	movff	___xxtofl@val,___xxtofl@arg
  7046   001C6E  C009  F013         	movff	___xxtofl@val+1,___xxtofl@arg+1
  7047   001C72  C00A  F014         	movff	___xxtofl@val+2,___xxtofl@arg+2
  7048   001C76  C00B  F015         	movff	___xxtofl@val+3,___xxtofl@arg+3
  7049   001C7A                     l4492:
  7050   001C7A  5008               	movf	___xxtofl@val^0,w,c
  7051   001C7C  1009               	iorwf	(___xxtofl@val+1)^0,w,c
  7052   001C7E  100A               	iorwf	(___xxtofl@val+2)^0,w,c
  7053   001C80  100B               	iorwf	(___xxtofl@val+3)^0,w,c
  7054   001C82  A4D8               	btfss	status,2,c
  7055   001C84  EF46  F00E         	goto	u3921
  7056   001C88  EF48  F00E         	goto	u3920
  7057   001C8C                     u3921:
  7058   001C8C  EF52  F00E         	goto	l4498
  7059   001C90                     u3920:
  7060   001C90  0E00               	movlw	0
  7061   001C92  6E08               	movwf	?___xxtofl^0,c
  7062   001C94  0E00               	movlw	0
  7063   001C96  6E09               	movwf	(?___xxtofl+1)^0,c
  7064   001C98  0E00               	movlw	0
  7065   001C9A  6E0A               	movwf	(?___xxtofl+2)^0,c
  7066   001C9C  0E00               	movlw	0
  7067   001C9E  6E0B               	movwf	(?___xxtofl+3)^0,c
  7068   001CA0  EFE3  F00E         	goto	l1255
  7069   001CA4                     l4498:
  7070   001CA4  0E96               	movlw	150
  7071   001CA6  6E11               	movwf	___xxtofl@exp^0,c
  7072   001CA8  EF5C  F00E         	goto	l4502
  7073   001CAC                     l4500:
  7074   001CAC  2A11               	incf	___xxtofl@exp^0,f,c
  7075   001CAE  90D8               	bcf	status,0,c
  7076   001CB0  3215               	rrcf	(___xxtofl@arg+3)^0,f,c
  7077   001CB2  3214               	rrcf	(___xxtofl@arg+2)^0,f,c
  7078   001CB4  3213               	rrcf	(___xxtofl@arg+1)^0,f,c
  7079   001CB6  3212               	rrcf	___xxtofl@arg^0,f,c
  7080   001CB8                     l4502:
  7081   001CB8  0E00               	movlw	0
  7082   001CBA  1412               	andwf	___xxtofl@arg^0,w,c
  7083   001CBC  6E0C               	movwf	??___xxtofl^0,c
  7084   001CBE  0E00               	movlw	0
  7085   001CC0  1413               	andwf	(___xxtofl@arg+1)^0,w,c
  7086   001CC2  6E0D               	movwf	(??___xxtofl+1)^0,c
  7087   001CC4  0E00               	movlw	0
  7088   001CC6  1414               	andwf	(___xxtofl@arg+2)^0,w,c
  7089   001CC8  6E0E               	movwf	(??___xxtofl+2)^0,c
  7090   001CCA  0EFE               	movlw	254
  7091   001CCC  1415               	andwf	(___xxtofl@arg+3)^0,w,c
  7092   001CCE  6E0F               	movwf	(??___xxtofl+3)^0,c
  7093   001CD0  500C               	movf	??___xxtofl^0,w,c
  7094   001CD2  100D               	iorwf	(??___xxtofl+1)^0,w,c
  7095   001CD4  100E               	iorwf	(??___xxtofl+2)^0,w,c
  7096   001CD6  100F               	iorwf	(??___xxtofl+3)^0,w,c
  7097   001CD8  A4D8               	btfss	status,2,c
  7098   001CDA  EF71  F00E         	goto	u3931
  7099   001CDE  EF73  F00E         	goto	u3930
  7100   001CE2                     u3931:
  7101   001CE2  EF56  F00E         	goto	l4500
  7102   001CE6                     u3930:
  7103   001CE6  EF81  F00E         	goto	l1259
  7104   001CEA                     l4504:
  7105   001CEA  2A11               	incf	___xxtofl@exp^0,f,c
  7106   001CEC  0E01               	movlw	1
  7107   001CEE  2612               	addwf	___xxtofl@arg^0,f,c
  7108   001CF0  0E00               	movlw	0
  7109   001CF2  2213               	addwfc	(___xxtofl@arg+1)^0,f,c
  7110   001CF4  2214               	addwfc	(___xxtofl@arg+2)^0,f,c
  7111   001CF6  2215               	addwfc	(___xxtofl@arg+3)^0,f,c
  7112   001CF8  90D8               	bcf	status,0,c
  7113   001CFA  3215               	rrcf	(___xxtofl@arg+3)^0,f,c
  7114   001CFC  3214               	rrcf	(___xxtofl@arg+2)^0,f,c
  7115   001CFE  3213               	rrcf	(___xxtofl@arg+1)^0,f,c
  7116   001D00  3212               	rrcf	___xxtofl@arg^0,f,c
  7117   001D02                     l1259:
  7118   001D02  0E00               	movlw	0
  7119   001D04  1412               	andwf	___xxtofl@arg^0,w,c
  7120   001D06  6E0C               	movwf	??___xxtofl^0,c
  7121   001D08  0E00               	movlw	0
  7122   001D0A  1413               	andwf	(___xxtofl@arg+1)^0,w,c
  7123   001D0C  6E0D               	movwf	(??___xxtofl+1)^0,c
  7124   001D0E  0E00               	movlw	0
  7125   001D10  1414               	andwf	(___xxtofl@arg+2)^0,w,c
  7126   001D12  6E0E               	movwf	(??___xxtofl+2)^0,c
  7127   001D14  0EFF               	movlw	255
  7128   001D16  1415               	andwf	(___xxtofl@arg+3)^0,w,c
  7129   001D18  6E0F               	movwf	(??___xxtofl+3)^0,c
  7130   001D1A  500C               	movf	??___xxtofl^0,w,c
  7131   001D1C  100D               	iorwf	(??___xxtofl+1)^0,w,c
  7132   001D1E  100E               	iorwf	(??___xxtofl+2)^0,w,c
  7133   001D20  100F               	iorwf	(??___xxtofl+3)^0,w,c
  7134   001D22  A4D8               	btfss	status,2,c
  7135   001D24  EF96  F00E         	goto	u3941
  7136   001D28  EF98  F00E         	goto	u3940
  7137   001D2C                     u3941:
  7138   001D2C  EF75  F00E         	goto	l4504
  7139   001D30                     u3940:
  7140   001D30  EFA0  F00E         	goto	l4512
  7141   001D34                     l4510:
  7142   001D34  0611               	decf	___xxtofl@exp^0,f,c
  7143   001D36  90D8               	bcf	status,0,c
  7144   001D38  3612               	rlcf	___xxtofl@arg^0,f,c
  7145   001D3A  3613               	rlcf	(___xxtofl@arg+1)^0,f,c
  7146   001D3C  3614               	rlcf	(___xxtofl@arg+2)^0,f,c
  7147   001D3E  3615               	rlcf	(___xxtofl@arg+3)^0,f,c
  7148   001D40                     l4512:
  7149   001D40  BE14               	btfsc	(___xxtofl@arg+2)^0,7,c
  7150   001D42  EFA5  F00E         	goto	u3951
  7151   001D46  EFA7  F00E         	goto	u3950
  7152   001D4A                     u3951:
  7153   001D4A  EFAF  F00E         	goto	l1266
  7154   001D4E                     u3950:
  7155   001D4E  0E02               	movlw	2
  7156   001D50  6011               	cpfslt	___xxtofl@exp^0,c
  7157   001D52  EFAD  F00E         	goto	u3961
  7158   001D56  EFAF  F00E         	goto	u3960
  7159   001D5A                     u3961:
  7160   001D5A  EF9A  F00E         	goto	l4510
  7161   001D5E                     u3960:
  7162   001D5E                     l1266:
  7163   001D5E  B011               	btfsc	___xxtofl@exp^0,0,c
  7164   001D60  EFB4  F00E         	goto	u3971
  7165   001D64  EFB6  F00E         	goto	u3970
  7166   001D68                     u3971:
  7167   001D68  EFB7  F00E         	goto	l4518
  7168   001D6C                     u3970:
  7169   001D6C  9E14               	bcf	(___xxtofl@arg+2)^0,7,c
  7170   001D6E                     l4518:
  7171   001D6E  90D8               	bcf	status,0,c
  7172   001D70  3211               	rrcf	___xxtofl@exp^0,f,c
  7173   001D72  C011  F00C         	movff	___xxtofl@exp,??___xxtofl
  7174   001D76  6A0D               	clrf	(??___xxtofl+1)^0,c
  7175   001D78  6A0E               	clrf	(??___xxtofl+2)^0,c
  7176   001D7A  6A0F               	clrf	(??___xxtofl+3)^0,c
  7177   001D7C  C00C  F00F         	movff	??___xxtofl,??___xxtofl+3
  7178   001D80  6A0E               	clrf	(??___xxtofl+2)^0,c
  7179   001D82  6A0D               	clrf	(??___xxtofl+1)^0,c
  7180   001D84  6A0C               	clrf	??___xxtofl^0,c
  7181   001D86  500C               	movf	??___xxtofl^0,w,c
  7182   001D88  1212               	iorwf	___xxtofl@arg^0,f,c
  7183   001D8A  500D               	movf	(??___xxtofl+1)^0,w,c
  7184   001D8C  1213               	iorwf	(___xxtofl@arg+1)^0,f,c
  7185   001D8E  500E               	movf	(??___xxtofl+2)^0,w,c
  7186   001D90  1214               	iorwf	(___xxtofl@arg+2)^0,f,c
  7187   001D92  500F               	movf	(??___xxtofl+3)^0,w,c
  7188   001D94  1215               	iorwf	(___xxtofl@arg+3)^0,f,c
  7189   001D96  5010               	movf	___xxtofl@sign^0,w,c
  7190   001D98  B4D8               	btfsc	status,2,c
  7191   001D9A  EFD1  F00E         	goto	u3981
  7192   001D9E  EFD3  F00E         	goto	u3980
  7193   001DA2                     u3981:
  7194   001DA2  EFDB  F00E         	goto	l4528
  7195   001DA6                     u3980:
  7196   001DA6  BE0B               	btfsc	(___xxtofl@val+3)^0,7,c
  7197   001DA8  EFDA  F00E         	goto	u3990
  7198   001DAC  EFD8  F00E         	goto	u3991
  7199   001DB0                     u3991:
  7200   001DB0  EFDB  F00E         	goto	l4528
  7201   001DB4                     u3990:
  7202   001DB4  8E15               	bsf	(___xxtofl@arg+3)^0,7,c
  7203   001DB6                     l4528:
  7204   001DB6  C012  F008         	movff	___xxtofl@arg,?___xxtofl
  7205   001DBA  C013  F009         	movff	___xxtofl@arg+1,?___xxtofl+1
  7206   001DBE  C014  F00A         	movff	___xxtofl@arg+2,?___xxtofl+2
  7207   001DC2  C015  F00B         	movff	___xxtofl@arg+3,?___xxtofl+3
  7208   001DC6                     l1255:
  7209   001DC6  0012               	return		;funcret
  7210   001DC8                     __end_of___xxtofl:
  7211                           	callstack 0
  7212                           
  7213 ;; *************** function ___fltol *****************
  7214 ;; Defined at:
  7215 ;;		line 43 in file "C:\Program Files\Microchip\xc8\v2.40\pic\sources\c99\common\fltol.c"
  7216 ;; Parameters:    Size  Location     Type
  7217 ;;  f1              4   70[COMRAM] unsigned char 
  7218 ;; Auto vars:     Size  Location     Type
  7219 ;;  exp1            1   79[COMRAM] unsigned char 
  7220 ;;  sign1           1   78[COMRAM] unsigned char 
  7221 ;; Return value:  Size  Location     Type
  7222 ;;                  4   70[COMRAM] long 
  7223 ;; Registers used:
  7224 ;;		wreg, status,2, status,0
  7225 ;; Tracked objects:
  7226 ;;		On entry : 0/0
  7227 ;;		On exit  : 0/0
  7228 ;;		Unchanged: 0/0
  7229 ;; Data sizes:     COMRAM   BANK0   BANK1   BANK2   BANK3   BANK4   BANK5   BANK6   BANK7
  7230 ;;      Params:         4       0       0       0       0       0       0       0       0
  7231 ;;      Locals:         2       0       0       0       0       0       0       0       0
  7232 ;;      Temps:          4       0       0       0       0       0       0       0       0
  7233 ;;      Totals:        10       0       0       0       0       0       0       0       0
  7234 ;;Total ram usage:       10 bytes
  7235 ;; Hardware stack levels used: 1
  7236 ;; Hardware stack levels required when called: 1
  7237 ;; This function calls:
  7238 ;;		Nothing
  7239 ;; This function is called by:
  7240 ;;		_APP_DeviceJoystickTasks
  7241 ;; This function uses a non-reentrant model
  7242 ;;
  7243                           
  7244                           	psect	text33
  7245   002B7E                     __ptext33:
  7246                           	callstack 0
  7247   002B7E                     ___fltol:
  7248                           	callstack 28
  7249   002B7E  3449               	rlcf	(___fltol@f1+2)^0,w,c
  7250   002B80  344A               	rlcf	(___fltol@f1+3)^0,w,c
  7251   002B82  6E50               	movwf	___fltol@exp1^0,c
  7252   002B84  5050               	movf	___fltol@exp1^0,w,c
  7253   002B86  A4D8               	btfss	status,2,c
  7254   002B88  EFC8  F015         	goto	u3831
  7255   002B8C  EFCA  F015         	goto	u3830
  7256   002B90                     u3831:
  7257   002B90  EFD4  F015         	goto	l4448
  7258   002B94                     u3830:
  7259   002B94                     l4444:
  7260   002B94  0E00               	movlw	0
  7261   002B96  6E47               	movwf	?___fltol^0,c
  7262   002B98  0E00               	movlw	0
  7263   002B9A  6E48               	movwf	(?___fltol+1)^0,c
  7264   002B9C  0E00               	movlw	0
  7265   002B9E  6E49               	movwf	(?___fltol+2)^0,c
  7266   002BA0  0E00               	movlw	0
  7267   002BA2  6E4A               	movwf	(?___fltol+3)^0,c
  7268   002BA4  EF41  F016         	goto	l894
  7269   002BA8                     l4448:
  7270   002BA8  C047  F04B         	movff	___fltol@f1,??___fltol
  7271   002BAC  C048  F04C         	movff	___fltol@f1+1,??___fltol+1
  7272   002BB0  C049  F04D         	movff	___fltol@f1+2,??___fltol+2
  7273   002BB4  C04A  F04E         	movff	___fltol@f1+3,??___fltol+3
  7274   002BB8  0E20               	movlw	32
  7275   002BBA  EFE4  F015         	goto	u3840
  7276   002BBE                     u3845:
  7277   002BBE  90D8               	bcf	status,0,c
  7278   002BC0  324E               	rrcf	(??___fltol+3)^0,f,c
  7279   002BC2  324D               	rrcf	(??___fltol+2)^0,f,c
  7280   002BC4  324C               	rrcf	(??___fltol+1)^0,f,c
  7281   002BC6  324B               	rrcf	??___fltol^0,f,c
  7282   002BC8                     u3840:
  7283   002BC8  2EE8               	decfsz	wreg,f,c
  7284   002BCA  EFDF  F015         	goto	u3845
  7285   002BCE  504B               	movf	??___fltol^0,w,c
  7286   002BD0  6E4F               	movwf	___fltol@sign1^0,c
  7287   002BD2  8E49               	bsf	(___fltol@f1+2)^0,7,c
  7288   002BD4  0EFF               	movlw	255
  7289   002BD6  1647               	andwf	___fltol@f1^0,f,c
  7290   002BD8  0EFF               	movlw	255
  7291   002BDA  1648               	andwf	(___fltol@f1+1)^0,f,c
  7292   002BDC  0EFF               	movlw	255
  7293   002BDE  1649               	andwf	(___fltol@f1+2)^0,f,c
  7294   002BE0  0E00               	movlw	0
  7295   002BE2  164A               	andwf	(___fltol@f1+3)^0,f,c
  7296   002BE4  0E96               	movlw	150
  7297   002BE6  5E50               	subwf	___fltol@exp1^0,f,c
  7298   002BE8  BE50               	btfsc	___fltol@exp1^0,7,c
  7299   002BEA  EFFB  F015         	goto	u3850
  7300   002BEE  EFF9  F015         	goto	u3851
  7301   002BF2                     u3851:
  7302   002BF2  EF11  F016         	goto	l4468
  7303   002BF6                     u3850:
  7304   002BF6  5050               	movf	___fltol@exp1^0,w,c
  7305   002BF8  0A80               	xorlw	128
  7306   002BFA  0F97               	addlw	151
  7307   002BFC  B0D8               	btfsc	status,0,c
  7308   002BFE  EF03  F016         	goto	u3861
  7309   002C02  EF05  F016         	goto	u3860
  7310   002C06                     u3861:
  7311   002C06  EF07  F016         	goto	l4464
  7312   002C0A                     u3860:
  7313   002C0A  EFCA  F015         	goto	l4444
  7314   002C0E                     l4464:
  7315   002C0E  90D8               	bcf	status,0,c
  7316   002C10  324A               	rrcf	(___fltol@f1+3)^0,f,c
  7317   002C12  3249               	rrcf	(___fltol@f1+2)^0,f,c
  7318   002C14  3248               	rrcf	(___fltol@f1+1)^0,f,c
  7319   002C16  3247               	rrcf	___fltol@f1^0,f,c
  7320   002C18  3E50               	incfsz	___fltol@exp1^0,f,c
  7321   002C1A  EF07  F016         	goto	l4464
  7322   002C1E  EF29  F016         	goto	l4478
  7323   002C22                     l4468:
  7324   002C22  0E1F               	movlw	31
  7325   002C24  6450               	cpfsgt	___fltol@exp1^0,c
  7326   002C26  EF17  F016         	goto	u3871
  7327   002C2A  EF19  F016         	goto	u3870
  7328   002C2E                     u3871:
  7329   002C2E  EF21  F016         	goto	l4476
  7330   002C32                     u3870:
  7331   002C32  EFCA  F015         	goto	l4444
  7332   002C36                     l4474:
  7333   002C36  90D8               	bcf	status,0,c
  7334   002C38  3647               	rlcf	___fltol@f1^0,f,c
  7335   002C3A  3648               	rlcf	(___fltol@f1+1)^0,f,c
  7336   002C3C  3649               	rlcf	(___fltol@f1+2)^0,f,c
  7337   002C3E  364A               	rlcf	(___fltol@f1+3)^0,f,c
  7338   002C40  0650               	decf	___fltol@exp1^0,f,c
  7339   002C42                     l4476:
  7340   002C42  5050               	movf	___fltol@exp1^0,w,c
  7341   002C44  A4D8               	btfss	status,2,c
  7342   002C46  EF27  F016         	goto	u3881
  7343   002C4A  EF29  F016         	goto	u3880
  7344   002C4E                     u3881:
  7345   002C4E  EF1B  F016         	goto	l4474
  7346   002C52                     u3880:
  7347   002C52                     l4478:
  7348   002C52  504F               	movf	___fltol@sign1^0,w,c
  7349   002C54  B4D8               	btfsc	status,2,c
  7350   002C56  EF2F  F016         	goto	u3891
  7351   002C5A  EF31  F016         	goto	u3890
  7352   002C5E                     u3891:
  7353   002C5E  EF39  F016         	goto	l4482
  7354   002C62                     u3890:
  7355   002C62  1E4A               	comf	(___fltol@f1+3)^0,f,c
  7356   002C64  1E49               	comf	(___fltol@f1+2)^0,f,c
  7357   002C66  1E48               	comf	(___fltol@f1+1)^0,f,c
  7358   002C68  6C47               	negf	___fltol@f1^0,c
  7359   002C6A  0E00               	movlw	0
  7360   002C6C  2248               	addwfc	(___fltol@f1+1)^0,f,c
  7361   002C6E  2249               	addwfc	(___fltol@f1+2)^0,f,c
  7362   002C70  224A               	addwfc	(___fltol@f1+3)^0,f,c
  7363   002C72                     l4482:
  7364   002C72  C047  F047         	movff	___fltol@f1,?___fltol
  7365   002C76  C048  F048         	movff	___fltol@f1+1,?___fltol+1
  7366   002C7A  C049  F049         	movff	___fltol@f1+2,?___fltol+2
  7367   002C7E  C04A  F04A         	movff	___fltol@f1+3,?___fltol+3
  7368   002C82                     l894:
  7369   002C82  0012               	return		;funcret
  7370   002C84                     __end_of___fltol:
  7371                           	callstack 0
  7372                           
  7373 ;; *************** function ___flsub *****************
  7374 ;; Defined at:
  7375 ;;		line 245 in file "C:\Program Files\Microchip\xc8\v2.40\pic\sources\c99\common\sprcadd.c"
  7376 ;; Parameters:    Size  Location     Type
  7377 ;;  b               4   62[COMRAM] long 
  7378 ;;  a               4   66[COMRAM] long 
  7379 ;; Auto vars:     Size  Location     Type
  7380 ;;		None
  7381 ;; Return value:  Size  Location     Type
  7382 ;;                  4   62[COMRAM] long 
  7383 ;; Registers used:
  7384 ;;		wreg, status,2, status,0, cstack
  7385 ;; Tracked objects:
  7386 ;;		On entry : 0/0
  7387 ;;		On exit  : 0/0
  7388 ;;		Unchanged: 0/0
  7389 ;; Data sizes:     COMRAM   BANK0   BANK1   BANK2   BANK3   BANK4   BANK5   BANK6   BANK7
  7390 ;;      Params:         8       0       0       0       0       0       0       0       0
  7391 ;;      Locals:         0       0       0       0       0       0       0       0       0
  7392 ;;      Temps:          0       0       0       0       0       0       0       0       0
  7393 ;;      Totals:         8       0       0       0       0       0       0       0       0
  7394 ;;Total ram usage:        8 bytes
  7395 ;; Hardware stack levels used: 1
  7396 ;; Hardware stack levels required when called: 2
  7397 ;; This function calls:
  7398 ;;		___fladd
  7399 ;; This function is called by:
  7400 ;;		_APP_DeviceJoystickTasks
  7401 ;; This function uses a non-reentrant model
  7402 ;;
  7403                           
  7404                           	psect	text34
  7405   00353E                     __ptext34:
  7406                           	callstack 0
  7407   00353E                     ___flsub:
  7408                           	callstack 27
  7409   00353E  0E00               	movlw	0
  7410   003540  1A43               	xorwf	___flsub@a^0,f,c
  7411   003542  0E00               	movlw	0
  7412   003544  1A44               	xorwf	(___flsub@a+1)^0,f,c
  7413   003546  0E00               	movlw	0
  7414   003548  1A45               	xorwf	(___flsub@a+2)^0,f,c
  7415   00354A  0E80               	movlw	128
  7416   00354C  1A46               	xorwf	(___flsub@a+3)^0,f,c
  7417   00354E  C03F  F02F         	movff	___flsub@b,___fladd@b
  7418   003552  C040  F030         	movff	___flsub@b+1,___fladd@b+1
  7419   003556  C041  F031         	movff	___flsub@b+2,___fladd@b+2
  7420   00355A  C042  F032         	movff	___flsub@b+3,___fladd@b+3
  7421   00355E  C043  F033         	movff	___flsub@a,___fladd@a
  7422   003562  C044  F034         	movff	___flsub@a+1,___fladd@a+1
  7423   003566  C045  F035         	movff	___flsub@a+2,___fladd@a+2
  7424   00356A  C046  F036         	movff	___flsub@a+3,___fladd@a+3
  7425   00356E  EC54  F004         	call	___fladd	;wreg free
  7426   003572  C02F  F03F         	movff	?___fladd,?___flsub
  7427   003576  C030  F040         	movff	?___fladd+1,?___flsub+1
  7428   00357A  C031  F041         	movff	?___fladd+2,?___flsub+2
  7429   00357E  C032  F042         	movff	?___fladd+3,?___flsub+3
  7430   003582  0012               	return		;funcret
  7431   003584                     __end_of___flsub:
  7432                           	callstack 0
  7433                           
  7434 ;; *************** function ___fladd *****************
  7435 ;; Defined at:
  7436 ;;		line 10 in file "C:\Program Files\Microchip\xc8\v2.40\pic\sources\c99\common\sprcadd.c"
  7437 ;; Parameters:    Size  Location     Type
  7438 ;;  b               4   46[COMRAM] long 
  7439 ;;  a               4   50[COMRAM] long 
  7440 ;; Auto vars:     Size  Location     Type
  7441 ;;  grs             1   61[COMRAM] unsigned char 
  7442 ;;  bexp            1   60[COMRAM] unsigned char 
  7443 ;;  aexp            1   59[COMRAM] unsigned char 
  7444 ;;  signs           1   58[COMRAM] unsigned char 
  7445 ;; Return value:  Size  Location     Type
  7446 ;;                  4   46[COMRAM] unsigned char 
  7447 ;; Registers used:
  7448 ;;		wreg, status,2, status,0
  7449 ;; Tracked objects:
  7450 ;;		On entry : 0/0
  7451 ;;		On exit  : 0/0
  7452 ;;		Unchanged: 0/0
  7453 ;; Data sizes:     COMRAM   BANK0   BANK1   BANK2   BANK3   BANK4   BANK5   BANK6   BANK7
  7454 ;;      Params:         8       0       0       0       0       0       0       0       0
  7455 ;;      Locals:         4       0       0       0       0       0       0       0       0
  7456 ;;      Temps:          4       0       0       0       0       0       0       0       0
  7457 ;;      Totals:        16       0       0       0       0       0       0       0       0
  7458 ;;Total ram usage:       16 bytes
  7459 ;; Hardware stack levels used: 1
  7460 ;; Hardware stack levels required when called: 1
  7461 ;; This function calls:
  7462 ;;		Nothing
  7463 ;; This function is called by:
  7464 ;;		_APP_DeviceJoystickTasks
  7465 ;;		___flsub
  7466 ;; This function uses a non-reentrant model
  7467 ;;
  7468                           
  7469                           	psect	text35
  7470   0008A8                     __ptext35:
  7471                           	callstack 0
  7472   0008A8                     ___fladd:
  7473                           	callstack 27
  7474   0008A8  5032               	movf	(___fladd@b+3)^0,w,c
  7475   0008AA  0B80               	andlw	128
  7476   0008AC  6E3B               	movwf	___fladd@signs^0,c
  7477   0008AE  5032               	movf	(___fladd@b+3)^0,w,c
  7478   0008B0  2432               	addwf	(___fladd@b+3)^0,w,c
  7479   0008B2  6E3D               	movwf	___fladd@bexp^0,c
  7480   0008B4  AE31               	btfss	(___fladd@b+2)^0,7,c
  7481   0008B6  EF5F  F004         	goto	u3041
  7482   0008BA  EF61  F004         	goto	u3040
  7483   0008BE                     u3041:
  7484   0008BE  EF62  F004         	goto	l3890
  7485   0008C2                     u3040:
  7486   0008C2  803D               	bsf	___fladd@bexp^0,0,c
  7487   0008C4                     l3890:
  7488   0008C4  503D               	movf	___fladd@bexp^0,w,c
  7489   0008C6  B4D8               	btfsc	status,2,c
  7490   0008C8  EF68  F004         	goto	u3051
  7491   0008CC  EF6A  F004         	goto	u3050
  7492   0008D0                     u3051:
  7493   0008D0  EF7F  F004         	goto	l3900
  7494   0008D4                     u3050:
  7495   0008D4  283D               	incf	___fladd@bexp^0,w,c
  7496   0008D6  A4D8               	btfss	status,2,c
  7497   0008D8  EF70  F004         	goto	u3061
  7498   0008DC  EF72  F004         	goto	u3060
  7499   0008E0                     u3061:
  7500   0008E0  EF7A  F004         	goto	l3896
  7501   0008E4                     u3060:
  7502   0008E4  0E00               	movlw	0
  7503   0008E6  6E2F               	movwf	___fladd@b^0,c
  7504   0008E8  0E00               	movlw	0
  7505   0008EA  6E30               	movwf	(___fladd@b+1)^0,c
  7506   0008EC  0E00               	movlw	0
  7507   0008EE  6E31               	movwf	(___fladd@b+2)^0,c
  7508   0008F0  0E00               	movlw	0
  7509   0008F2  6E32               	movwf	(___fladd@b+3)^0,c
  7510   0008F4                     l3896:
  7511   0008F4  8E31               	bsf	(___fladd@b+2)^0,7,c
  7512   0008F6  0E00               	movlw	0
  7513   0008F8  6E32               	movwf	(___fladd@b+3)^0,c
  7514   0008FA  EF87  F004         	goto	l3902
  7515   0008FE                     l3900:
  7516   0008FE  0E00               	movlw	0
  7517   000900  6E2F               	movwf	___fladd@b^0,c
  7518   000902  0E00               	movlw	0
  7519   000904  6E30               	movwf	(___fladd@b+1)^0,c
  7520   000906  0E00               	movlw	0
  7521   000908  6E31               	movwf	(___fladd@b+2)^0,c
  7522   00090A  0E00               	movlw	0
  7523   00090C  6E32               	movwf	(___fladd@b+3)^0,c
  7524   00090E                     l3902:
  7525   00090E  5036               	movf	(___fladd@a+3)^0,w,c
  7526   000910  0B80               	andlw	128
  7527   000912  6E3C               	movwf	___fladd@aexp^0,c
  7528   000914  503B               	movf	___fladd@signs^0,w,c
  7529   000916  183C               	xorwf	___fladd@aexp^0,w,c
  7530   000918  B4D8               	btfsc	status,2,c
  7531   00091A  EF91  F004         	goto	u3071
  7532   00091E  EF93  F004         	goto	u3070
  7533   000922                     u3071:
  7534   000922  EF94  F004         	goto	l3908
  7535   000926                     u3070:
  7536   000926  8C3B               	bsf	___fladd@signs^0,6,c
  7537   000928                     l3908:
  7538   000928  5036               	movf	(___fladd@a+3)^0,w,c
  7539   00092A  2436               	addwf	(___fladd@a+3)^0,w,c
  7540   00092C  6E3C               	movwf	___fladd@aexp^0,c
  7541   00092E  AE35               	btfss	(___fladd@a+2)^0,7,c
  7542   000930  EF9C  F004         	goto	u3081
  7543   000934  EF9E  F004         	goto	u3080
  7544   000938                     u3081:
  7545   000938  EF9F  F004         	goto	l3914
  7546   00093C                     u3080:
  7547   00093C  803C               	bsf	___fladd@aexp^0,0,c
  7548   00093E                     l3914:
  7549   00093E  503C               	movf	___fladd@aexp^0,w,c
  7550   000940  B4D8               	btfsc	status,2,c
  7551   000942  EFA5  F004         	goto	u3091
  7552   000946  EFA7  F004         	goto	u3090
  7553   00094A                     u3091:
  7554   00094A  EFBC  F004         	goto	l3924
  7555   00094E                     u3090:
  7556   00094E  283C               	incf	___fladd@aexp^0,w,c
  7557   000950  A4D8               	btfss	status,2,c
  7558   000952  EFAD  F004         	goto	u3101
  7559   000956  EFAF  F004         	goto	u3100
  7560   00095A                     u3101:
  7561   00095A  EFB7  F004         	goto	l3920
  7562   00095E                     u3100:
  7563   00095E  0E00               	movlw	0
  7564   000960  6E33               	movwf	___fladd@a^0,c
  7565   000962  0E00               	movlw	0
  7566   000964  6E34               	movwf	(___fladd@a+1)^0,c
  7567   000966  0E00               	movlw	0
  7568   000968  6E35               	movwf	(___fladd@a+2)^0,c
  7569   00096A  0E00               	movlw	0
  7570   00096C  6E36               	movwf	(___fladd@a+3)^0,c
  7571   00096E                     l3920:
  7572   00096E  8E35               	bsf	(___fladd@a+2)^0,7,c
  7573   000970  0E00               	movlw	0
  7574   000972  6E36               	movwf	(___fladd@a+3)^0,c
  7575   000974  EFC4  F004         	goto	l3926
  7576   000978                     l3924:
  7577   000978  0E00               	movlw	0
  7578   00097A  6E33               	movwf	___fladd@a^0,c
  7579   00097C  0E00               	movlw	0
  7580   00097E  6E34               	movwf	(___fladd@a+1)^0,c
  7581   000980  0E00               	movlw	0
  7582   000982  6E35               	movwf	(___fladd@a+2)^0,c
  7583   000984  0E00               	movlw	0
  7584   000986  6E36               	movwf	(___fladd@a+3)^0,c
  7585   000988                     l3926:
  7586   000988  503D               	movf	___fladd@bexp^0,w,c
  7587   00098A  5C3C               	subwf	___fladd@aexp^0,w,c
  7588   00098C  B0D8               	btfsc	status,0,c
  7589   00098E  EFCB  F004         	goto	u3111
  7590   000992  EFCD  F004         	goto	u3110
  7591   000996                     u3111:
  7592   000996  EFF4  F004         	goto	l3962
  7593   00099A                     u3110:
  7594   00099A  AC3B               	btfss	___fladd@signs^0,6,c
  7595   00099C  EFD2  F004         	goto	u3121
  7596   0009A0  EFD4  F004         	goto	u3120
  7597   0009A4                     u3121:
  7598   0009A4  EFD6  F004         	goto	l3932
  7599   0009A8                     u3120:
  7600   0009A8  0E80               	movlw	128
  7601   0009AA  1A3B               	xorwf	___fladd@signs^0,f,c
  7602   0009AC                     l3932:
  7603   0009AC  C03D  F03E         	movff	___fladd@bexp,___fladd@grs
  7604   0009B0  C03C  F03D         	movff	___fladd@aexp,___fladd@bexp
  7605   0009B4  C03E  F03C         	movff	___fladd@grs,___fladd@aexp
  7606   0009B8  C02F  F03E         	movff	___fladd@b,___fladd@grs
  7607   0009BC  C033  F02F         	movff	___fladd@a,___fladd@b
  7608   0009C0  C03E  F033         	movff	___fladd@grs,___fladd@a
  7609   0009C4  C030  F03E         	movff	___fladd@b+1,___fladd@grs
  7610   0009C8  C034  F030         	movff	___fladd@a+1,___fladd@b+1
  7611   0009CC  C03E  F034         	movff	___fladd@grs,___fladd@a+1
  7612   0009D0  C031  F03E         	movff	___fladd@b+2,___fladd@grs
  7613   0009D4  C035  F031         	movff	___fladd@a+2,___fladd@b+2
  7614   0009D8  C03E  F035         	movff	___fladd@grs,___fladd@a+2
  7615   0009DC  C032  F03E         	movff	___fladd@b+3,___fladd@grs
  7616   0009E0  C036  F032         	movff	___fladd@a+3,___fladd@b+3
  7617   0009E4  C03E  F036         	movff	___fladd@grs,___fladd@a+3
  7618   0009E8                     l3962:
  7619   0009E8  0E00               	movlw	0
  7620   0009EA  6E3E               	movwf	___fladd@grs^0,c
  7621   0009EC  503D               	movf	___fladd@bexp^0,w,c
  7622   0009EE  C03C  F037         	movff	___fladd@aexp,??___fladd
  7623   0009F2  6A38               	clrf	(??___fladd+1)^0,c
  7624   0009F4  5E37               	subwf	??___fladd^0,f,c
  7625   0009F6  0E00               	movlw	0
  7626   0009F8  5A38               	subwfb	(??___fladd+1)^0,f,c
  7627   0009FA  BE38               	btfsc	(??___fladd+1)^0,7,c
  7628   0009FC  EF09  F005         	goto	u3131
  7629   000A00  5038               	movf	(??___fladd+1)^0,w,c
  7630   000A02  E109               	bnz	u3130
  7631   000A04  0E1A               	movlw	26
  7632   000A06  5C37               	subwf	??___fladd^0,w,c
  7633   000A08  A0D8               	btfss	status,0,c
  7634   000A0A  EF09  F005         	goto	u3131
  7635   000A0E  EF0B  F005         	goto	u3130
  7636   000A12                     u3131:
  7637   000A12  EF42  F005         	goto	l1126
  7638   000A16                     u3130:
  7639   000A16  502F               	movf	___fladd@b^0,w,c
  7640   000A18  1030               	iorwf	(___fladd@b+1)^0,w,c
  7641   000A1A  1031               	iorwf	(___fladd@b+2)^0,w,c
  7642   000A1C  1032               	iorwf	(___fladd@b+3)^0,w,c
  7643   000A1E  A4D8               	btfss	status,2,c
  7644   000A20  EF14  F005         	goto	u3141
  7645   000A24  EF17  F005         	goto	u3140
  7646   000A28                     u3141:
  7647   000A28  0E01               	movlw	1
  7648   000A2A  EF18  F005         	goto	u3150
  7649   000A2E                     u3140:
  7650   000A2E  0E00               	movlw	0
  7651   000A30                     u3150:
  7652   000A30  6E3E               	movwf	___fladd@grs^0,c
  7653   000A32  0E00               	movlw	0
  7654   000A34  6E2F               	movwf	___fladd@b^0,c
  7655   000A36  0E00               	movlw	0
  7656   000A38  6E30               	movwf	(___fladd@b+1)^0,c
  7657   000A3A  0E00               	movlw	0
  7658   000A3C  6E31               	movwf	(___fladd@b+2)^0,c
  7659   000A3E  0E00               	movlw	0
  7660   000A40  6E32               	movwf	(___fladd@b+3)^0,c
  7661   000A42  C03C  F03D         	movff	___fladd@aexp,___fladd@bexp
  7662   000A46  EF4B  F005         	goto	l1125
  7663   000A4A                     l1127:
  7664   000A4A  A03E               	btfss	___fladd@grs^0,0,c
  7665   000A4C  EF2A  F005         	goto	u3161
  7666   000A50  EF2C  F005         	goto	u3160
  7667   000A54                     u3161:
  7668   000A54  EF32  F005         	goto	l3974
  7669   000A58                     u3160:
  7670   000A58  90D8               	bcf	status,0,c
  7671   000A5A  303E               	rrcf	___fladd@grs^0,w,c
  7672   000A5C  0901               	iorlw	1
  7673   000A5E  6E3E               	movwf	___fladd@grs^0,c
  7674   000A60  EF34  F005         	goto	l3976
  7675   000A64                     l3974:
  7676   000A64  90D8               	bcf	status,0,c
  7677   000A66  323E               	rrcf	___fladd@grs^0,f,c
  7678   000A68                     l3976:
  7679   000A68  A02F               	btfss	___fladd@b^0,0,c
  7680   000A6A  EF39  F005         	goto	u3171
  7681   000A6E  EF3B  F005         	goto	u3170
  7682   000A72                     u3171:
  7683   000A72  EF3C  F005         	goto	l3980
  7684   000A76                     u3170:
  7685   000A76  8E3E               	bsf	___fladd@grs^0,7,c
  7686   000A78                     l3980:
  7687   000A78  3432               	rlcf	(___fladd@b+3)^0,w,c
  7688   000A7A  3232               	rrcf	(___fladd@b+3)^0,f,c
  7689   000A7C  3231               	rrcf	(___fladd@b+2)^0,f,c
  7690   000A7E  3230               	rrcf	(___fladd@b+1)^0,f,c
  7691   000A80  322F               	rrcf	___fladd@b^0,f,c
  7692   000A82  2A3D               	incf	___fladd@bexp^0,f,c
  7693   000A84                     l1126:
  7694   000A84  503C               	movf	___fladd@aexp^0,w,c
  7695   000A86  5C3D               	subwf	___fladd@bexp^0,w,c
  7696   000A88  A0D8               	btfss	status,0,c
  7697   000A8A  EF49  F005         	goto	u3181
  7698   000A8E  EF4B  F005         	goto	u3180
  7699   000A92                     u3181:
  7700   000A92  EF25  F005         	goto	l1127
  7701   000A96                     u3180:
  7702   000A96                     l1125:
  7703   000A96  BC3B               	btfsc	___fladd@signs^0,6,c
  7704   000A98  EF50  F005         	goto	u3191
  7705   000A9C  EF52  F005         	goto	u3190
  7706   000AA0                     u3191:
  7707   000AA0  EF92  F005         	goto	l4008
  7708   000AA4                     u3190:
  7709   000AA4  503D               	movf	___fladd@bexp^0,w,c
  7710   000AA6  A4D8               	btfss	status,2,c
  7711   000AA8  EF58  F005         	goto	u3201
  7712   000AAC  EF5A  F005         	goto	u3200
  7713   000AB0                     u3201:
  7714   000AB0  EF64  F005         	goto	l3990
  7715   000AB4                     u3200:
  7716   000AB4  0E00               	movlw	0
  7717   000AB6  6E2F               	movwf	?___fladd^0,c
  7718   000AB8  0E00               	movlw	0
  7719   000ABA  6E30               	movwf	(?___fladd+1)^0,c
  7720   000ABC  0E00               	movlw	0
  7721   000ABE  6E31               	movwf	(?___fladd+2)^0,c
  7722   000AC0  0E00               	movlw	0
  7723   000AC2  6E32               	movwf	(?___fladd+3)^0,c
  7724   000AC4  EFB3  F006         	goto	l1134
  7725   000AC8                     l3990:
  7726   000AC8  5033               	movf	___fladd@a^0,w,c
  7727   000ACA  262F               	addwf	___fladd@b^0,f,c
  7728   000ACC  5034               	movf	(___fladd@a+1)^0,w,c
  7729   000ACE  2230               	addwfc	(___fladd@b+1)^0,f,c
  7730   000AD0  5035               	movf	(___fladd@a+2)^0,w,c
  7731   000AD2  2231               	addwfc	(___fladd@b+2)^0,f,c
  7732   000AD4  5036               	movf	(___fladd@a+3)^0,w,c
  7733   000AD6  2232               	addwfc	(___fladd@b+3)^0,f,c
  7734   000AD8  A032               	btfss	(___fladd@b+3)^0,0,c
  7735   000ADA  EF71  F005         	goto	u3211
  7736   000ADE  EF73  F005         	goto	u3210
  7737   000AE2                     u3211:
  7738   000AE2  EF1F  F006         	goto	l4044
  7739   000AE6                     u3210:
  7740   000AE6  A03E               	btfss	___fladd@grs^0,0,c
  7741   000AE8  EF78  F005         	goto	u3221
  7742   000AEC  EF7A  F005         	goto	u3220
  7743   000AF0                     u3221:
  7744   000AF0  EF80  F005         	goto	l3998
  7745   000AF4                     u3220:
  7746   000AF4  90D8               	bcf	status,0,c
  7747   000AF6  303E               	rrcf	___fladd@grs^0,w,c
  7748   000AF8  0901               	iorlw	1
  7749   000AFA  6E3E               	movwf	___fladd@grs^0,c
  7750   000AFC  EF82  F005         	goto	l4000
  7751   000B00                     l3998:
  7752   000B00  90D8               	bcf	status,0,c
  7753   000B02  323E               	rrcf	___fladd@grs^0,f,c
  7754   000B04                     l4000:
  7755   000B04  A02F               	btfss	___fladd@b^0,0,c
  7756   000B06  EF87  F005         	goto	u3231
  7757   000B0A  EF89  F005         	goto	u3230
  7758   000B0E                     u3231:
  7759   000B0E  EF8A  F005         	goto	l4004
  7760   000B12                     u3230:
  7761   000B12  8E3E               	bsf	___fladd@grs^0,7,c
  7762   000B14                     l4004:
  7763   000B14  3432               	rlcf	(___fladd@b+3)^0,w,c
  7764   000B16  3232               	rrcf	(___fladd@b+3)^0,f,c
  7765   000B18  3231               	rrcf	(___fladd@b+2)^0,f,c
  7766   000B1A  3230               	rrcf	(___fladd@b+1)^0,f,c
  7767   000B1C  322F               	rrcf	___fladd@b^0,f,c
  7768   000B1E  2A3D               	incf	___fladd@bexp^0,f,c
  7769   000B20  EF1F  F006         	goto	l4044
  7770   000B24                     l4008:
  7771   000B24  5033               	movf	___fladd@a^0,w,c
  7772   000B26  5C2F               	subwf	___fladd@b^0,w,c
  7773   000B28  5034               	movf	(___fladd@a+1)^0,w,c
  7774   000B2A  5830               	subwfb	(___fladd@b+1)^0,w,c
  7775   000B2C  5035               	movf	(___fladd@a+2)^0,w,c
  7776   000B2E  5831               	subwfb	(___fladd@b+2)^0,w,c
  7777   000B30  5032               	movf	(___fladd@b+3)^0,w,c
  7778   000B32  0A80               	xorlw	128
  7779   000B34  6E37               	movwf	??___fladd^0,c
  7780   000B36  5036               	movf	(___fladd@a+3)^0,w,c
  7781   000B38  0A80               	xorlw	128
  7782   000B3A  5837               	subwfb	??___fladd^0,w,c
  7783   000B3C  B0D8               	btfsc	status,0,c
  7784   000B3E  EFA3  F005         	goto	u3241
  7785   000B42  EFA5  F005         	goto	u3240
  7786   000B46                     u3241:
  7787   000B46  EFD0  F005         	goto	l4018
  7788   000B4A                     u3240:
  7789   000B4A  502F               	movf	___fladd@b^0,w,c
  7790   000B4C  5C33               	subwf	___fladd@a^0,w,c
  7791   000B4E  6E37               	movwf	??___fladd^0,c
  7792   000B50  5030               	movf	(___fladd@b+1)^0,w,c
  7793   000B52  5834               	subwfb	(___fladd@a+1)^0,w,c
  7794   000B54  6E38               	movwf	(??___fladd+1)^0,c
  7795   000B56  5031               	movf	(___fladd@b+2)^0,w,c
  7796   000B58  5835               	subwfb	(___fladd@a+2)^0,w,c
  7797   000B5A  6E39               	movwf	(??___fladd+2)^0,c
  7798   000B5C  5032               	movf	(___fladd@b+3)^0,w,c
  7799   000B5E  5836               	subwfb	(___fladd@a+3)^0,w,c
  7800   000B60  6E3A               	movwf	(??___fladd+3)^0,c
  7801   000B62  0EFF               	movlw	255
  7802   000B64  2437               	addwf	??___fladd^0,w,c
  7803   000B66  6E2F               	movwf	___fladd@b^0,c
  7804   000B68  0EFF               	movlw	255
  7805   000B6A  2038               	addwfc	(??___fladd+1)^0,w,c
  7806   000B6C  6E30               	movwf	(___fladd@b+1)^0,c
  7807   000B6E  0EFF               	movlw	255
  7808   000B70  2039               	addwfc	(??___fladd+2)^0,w,c
  7809   000B72  6E31               	movwf	(___fladd@b+2)^0,c
  7810   000B74  0EFF               	movlw	255
  7811   000B76  203A               	addwfc	(??___fladd+3)^0,w,c
  7812   000B78  6E32               	movwf	(___fladd@b+3)^0,c
  7813   000B7A  0E80               	movlw	128
  7814   000B7C  1A3B               	xorwf	___fladd@signs^0,f,c
  7815   000B7E  6C3E               	negf	___fladd@grs^0,c
  7816   000B80  503E               	movf	___fladd@grs^0,w,c
  7817   000B82  A4D8               	btfss	status,2,c
  7818   000B84  EFC6  F005         	goto	u3251
  7819   000B88  EFC8  F005         	goto	u3250
  7820   000B8C                     u3251:
  7821   000B8C  EFD8  F005         	goto	l1142
  7822   000B90                     u3250:
  7823   000B90  0E01               	movlw	1
  7824   000B92  262F               	addwf	___fladd@b^0,f,c
  7825   000B94  0E00               	movlw	0
  7826   000B96  2230               	addwfc	(___fladd@b+1)^0,f,c
  7827   000B98  2231               	addwfc	(___fladd@b+2)^0,f,c
  7828   000B9A  2232               	addwfc	(___fladd@b+3)^0,f,c
  7829   000B9C  EFD8  F005         	goto	l1142
  7830   000BA0                     l4018:
  7831   000BA0  5033               	movf	___fladd@a^0,w,c
  7832   000BA2  5E2F               	subwf	___fladd@b^0,f,c
  7833   000BA4  5034               	movf	(___fladd@a+1)^0,w,c
  7834   000BA6  5A30               	subwfb	(___fladd@b+1)^0,f,c
  7835   000BA8  5035               	movf	(___fladd@a+2)^0,w,c
  7836   000BAA  5A31               	subwfb	(___fladd@b+2)^0,f,c
  7837   000BAC  5036               	movf	(___fladd@a+3)^0,w,c
  7838   000BAE  5A32               	subwfb	(___fladd@b+3)^0,f,c
  7839   000BB0                     l1142:
  7840   000BB0  502F               	movf	___fladd@b^0,w,c
  7841   000BB2  1030               	iorwf	(___fladd@b+1)^0,w,c
  7842   000BB4  1031               	iorwf	(___fladd@b+2)^0,w,c
  7843   000BB6  1032               	iorwf	(___fladd@b+3)^0,w,c
  7844   000BB8  A4D8               	btfss	status,2,c
  7845   000BBA  EFE1  F005         	goto	u3261
  7846   000BBE  EFE3  F005         	goto	u3260
  7847   000BC2                     u3261:
  7848   000BC2  EF18  F006         	goto	l4042
  7849   000BC6                     u3260:
  7850   000BC6  503E               	movf	___fladd@grs^0,w,c
  7851   000BC8  A4D8               	btfss	status,2,c
  7852   000BCA  EFE9  F005         	goto	u3271
  7853   000BCE  EFEB  F005         	goto	u3270
  7854   000BD2                     u3271:
  7855   000BD2  EF18  F006         	goto	l4042
  7856   000BD6                     u3270:
  7857   000BD6  0E00               	movlw	0
  7858   000BD8  6E2F               	movwf	?___fladd^0,c
  7859   000BDA  0E00               	movlw	0
  7860   000BDC  6E30               	movwf	(?___fladd+1)^0,c
  7861   000BDE  0E00               	movlw	0
  7862   000BE0  6E31               	movwf	(?___fladd+2)^0,c
  7863   000BE2  0E00               	movlw	0
  7864   000BE4  6E32               	movwf	(?___fladd+3)^0,c
  7865   000BE6  EFB3  F006         	goto	l1134
  7866   000BEA                     l4026:
  7867   000BEA  90D8               	bcf	status,0,c
  7868   000BEC  362F               	rlcf	___fladd@b^0,f,c
  7869   000BEE  3630               	rlcf	(___fladd@b+1)^0,f,c
  7870   000BF0  3631               	rlcf	(___fladd@b+2)^0,f,c
  7871   000BF2  3632               	rlcf	(___fladd@b+3)^0,f,c
  7872   000BF4  AE3E               	btfss	___fladd@grs^0,7,c
  7873   000BF6  EFFF  F005         	goto	u3281
  7874   000BFA  EF01  F006         	goto	u3280
  7875   000BFE                     u3281:
  7876   000BFE  EF02  F006         	goto	l4032
  7877   000C02                     u3280:
  7878   000C02  802F               	bsf	___fladd@b^0,0,c
  7879   000C04                     l4032:
  7880   000C04  A03E               	btfss	___fladd@grs^0,0,c
  7881   000C06  EF07  F006         	goto	u3291
  7882   000C0A  EF09  F006         	goto	u3290
  7883   000C0E                     u3291:
  7884   000C0E  EF0D  F006         	goto	l4036
  7885   000C12                     u3290:
  7886   000C12  80D8               	bsf	status,0,c
  7887   000C14  363E               	rlcf	___fladd@grs^0,f,c
  7888   000C16  EF0F  F006         	goto	l4038
  7889   000C1A                     l4036:
  7890   000C1A  90D8               	bcf	status,0,c
  7891   000C1C  363E               	rlcf	___fladd@grs^0,f,c
  7892   000C1E                     l4038:
  7893   000C1E  503D               	movf	___fladd@bexp^0,w,c
  7894   000C20  B4D8               	btfsc	status,2,c
  7895   000C22  EF15  F006         	goto	u3301
  7896   000C26  EF17  F006         	goto	u3300
  7897   000C2A                     u3301:
  7898   000C2A  EF18  F006         	goto	l4042
  7899   000C2E                     u3300:
  7900   000C2E  063D               	decf	___fladd@bexp^0,f,c
  7901   000C30                     l4042:
  7902   000C30  AE31               	btfss	(___fladd@b+2)^0,7,c
  7903   000C32  EF1D  F006         	goto	u3311
  7904   000C36  EF1F  F006         	goto	u3310
  7905   000C3A                     u3311:
  7906   000C3A  EFF5  F005         	goto	l4026
  7907   000C3E                     u3310:
  7908   000C3E                     l4044:
  7909   000C3E  0E00               	movlw	0
  7910   000C40  6E3C               	movwf	___fladd@aexp^0,c
  7911   000C42  AE3E               	btfss	___fladd@grs^0,7,c
  7912   000C44  EF26  F006         	goto	u3321
  7913   000C48  EF28  F006         	goto	u3320
  7914   000C4C                     u3321:
  7915   000C4C  EF40  F006         	goto	l1151
  7916   000C50                     u3320:
  7917   000C50  C03E  F037         	movff	___fladd@grs,??___fladd
  7918   000C54  0E7F               	movlw	127
  7919   000C56  1637               	andwf	??___fladd^0,f,c
  7920   000C58  B4D8               	btfsc	status,2,c
  7921   000C5A  EF31  F006         	goto	u3331
  7922   000C5E  EF33  F006         	goto	u3330
  7923   000C62                     u3331:
  7924   000C62  EF37  F006         	goto	l1152
  7925   000C66                     u3330:
  7926   000C66                     l4050:
  7927   000C66  0E01               	movlw	1
  7928   000C68  6E3C               	movwf	___fladd@aexp^0,c
  7929   000C6A  EF40  F006         	goto	l1151
  7930   000C6E                     l1152:
  7931   000C6E  A02F               	btfss	___fladd@b^0,0,c
  7932   000C70  EF3C  F006         	goto	u3341
  7933   000C74  EF3E  F006         	goto	u3340
  7934   000C78                     u3341:
  7935   000C78  EF40  F006         	goto	l1151
  7936   000C7C                     u3340:
  7937   000C7C  EF33  F006         	goto	l4050
  7938   000C80                     l1151:
  7939   000C80  503C               	movf	___fladd@aexp^0,w,c
  7940   000C82  B4D8               	btfsc	status,2,c
  7941   000C84  EF46  F006         	goto	u3351
  7942   000C88  EF48  F006         	goto	u3350
  7943   000C8C                     u3351:
  7944   000C8C  EF73  F006         	goto	l4062
  7945   000C90                     u3350:
  7946   000C90  0E01               	movlw	1
  7947   000C92  262F               	addwf	___fladd@b^0,f,c
  7948   000C94  0E00               	movlw	0
  7949   000C96  2230               	addwfc	(___fladd@b+1)^0,f,c
  7950   000C98  2231               	addwfc	(___fladd@b+2)^0,f,c
  7951   000C9A  2232               	addwfc	(___fladd@b+3)^0,f,c
  7952   000C9C  A032               	btfss	(___fladd@b+3)^0,0,c
  7953   000C9E  EF53  F006         	goto	u3361
  7954   000CA2  EF55  F006         	goto	u3360
  7955   000CA6                     u3361:
  7956   000CA6  EF73  F006         	goto	l4062
  7957   000CAA                     u3360:
  7958   000CAA  C02F  F037         	movff	___fladd@b,??___fladd
  7959   000CAE  C030  F038         	movff	___fladd@b+1,??___fladd+1
  7960   000CB2  C031  F039         	movff	___fladd@b+2,??___fladd+2
  7961   000CB6  C032  F03A         	movff	___fladd@b+3,??___fladd+3
  7962   000CBA  343A               	rlcf	(??___fladd+3)^0,w,c
  7963   000CBC  323A               	rrcf	(??___fladd+3)^0,f,c
  7964   000CBE  3239               	rrcf	(??___fladd+2)^0,f,c
  7965   000CC0  3238               	rrcf	(??___fladd+1)^0,f,c
  7966   000CC2  3237               	rrcf	??___fladd^0,f,c
  7967   000CC4  C037  F02F         	movff	??___fladd,___fladd@b
  7968   000CC8  C038  F030         	movff	??___fladd+1,___fladd@b+1
  7969   000CCC  C039  F031         	movff	??___fladd+2,___fladd@b+2
  7970   000CD0  C03A  F032         	movff	??___fladd+3,___fladd@b+3
  7971   000CD4  283D               	incf	___fladd@bexp^0,w,c
  7972   000CD6  B4D8               	btfsc	status,2,c
  7973   000CD8  EF70  F006         	goto	u3371
  7974   000CDC  EF72  F006         	goto	u3370
  7975   000CE0                     u3371:
  7976   000CE0  EF73  F006         	goto	l4062
  7977   000CE4                     u3370:
  7978   000CE4  2A3D               	incf	___fladd@bexp^0,f,c
  7979   000CE6                     l4062:
  7980   000CE6  283D               	incf	___fladd@bexp^0,w,c
  7981   000CE8  B4D8               	btfsc	status,2,c
  7982   000CEA  EF79  F006         	goto	u3381
  7983   000CEE  EF7B  F006         	goto	u3380
  7984   000CF2                     u3381:
  7985   000CF2  EF83  F006         	goto	l4066
  7986   000CF6                     u3380:
  7987   000CF6  503D               	movf	___fladd@bexp^0,w,c
  7988   000CF8  A4D8               	btfss	status,2,c
  7989   000CFA  EF81  F006         	goto	u3391
  7990   000CFE  EF83  F006         	goto	u3390
  7991   000D02                     u3391:
  7992   000D02  EF95  F006         	goto	l4070
  7993   000D06                     u3390:
  7994   000D06                     l4066:
  7995   000D06  0E00               	movlw	0
  7996   000D08  6E2F               	movwf	___fladd@b^0,c
  7997   000D0A  0E00               	movlw	0
  7998   000D0C  6E30               	movwf	(___fladd@b+1)^0,c
  7999   000D0E  0E00               	movlw	0
  8000   000D10  6E31               	movwf	(___fladd@b+2)^0,c
  8001   000D12  0E00               	movlw	0
  8002   000D14  6E32               	movwf	(___fladd@b+3)^0,c
  8003   000D16  503D               	movf	___fladd@bexp^0,w,c
  8004   000D18  A4D8               	btfss	status,2,c
  8005   000D1A  EF91  F006         	goto	u3401
  8006   000D1E  EF93  F006         	goto	u3400
  8007   000D22                     u3401:
  8008   000D22  EF95  F006         	goto	l4070
  8009   000D26                     u3400:
  8010   000D26  0E00               	movlw	0
  8011   000D28  6E3B               	movwf	___fladd@signs^0,c
  8012   000D2A                     l4070:
  8013   000D2A  A03D               	btfss	___fladd@bexp^0,0,c
  8014   000D2C  EF9A  F006         	goto	u3411
  8015   000D30  EF9C  F006         	goto	u3410
  8016   000D34                     u3411:
  8017   000D34  EF9F  F006         	goto	l4074
  8018   000D38                     u3410:
  8019   000D38  8E31               	bsf	(___fladd@b+2)^0,7,c
  8020   000D3A  EFA0  F006         	goto	l4076
  8021   000D3E                     l4074:
  8022   000D3E  9E31               	bcf	(___fladd@b+2)^0,7,c
  8023   000D40                     l4076:
  8024   000D40  90D8               	bcf	status,0,c
  8025   000D42  303D               	rrcf	___fladd@bexp^0,w,c
  8026   000D44  6E32               	movwf	(___fladd@b+3)^0,c
  8027   000D46  AE3B               	btfss	___fladd@signs^0,7,c
  8028   000D48  EFA8  F006         	goto	u3421
  8029   000D4C  EFAA  F006         	goto	u3420
  8030   000D50                     u3421:
  8031   000D50  EFAB  F006         	goto	l4082
  8032   000D54                     u3420:
  8033   000D54  8E32               	bsf	(___fladd@b+3)^0,7,c
  8034   000D56                     l4082:
  8035   000D56  C02F  F02F         	movff	___fladd@b,?___fladd
  8036   000D5A  C030  F030         	movff	___fladd@b+1,?___fladd+1
  8037   000D5E  C031  F031         	movff	___fladd@b+2,?___fladd+2
  8038   000D62  C032  F032         	movff	___fladd@b+3,?___fladd+3
  8039   000D66                     l1134:
  8040   000D66  0012               	return		;funcret
  8041   000D68                     __end_of___fladd:
  8042                           	callstack 0
  8043                           
  8044 ;; *************** function ___flmul *****************
  8045 ;; Defined at:
  8046 ;;		line 8 in file "C:\Program Files\Microchip\xc8\v2.40\pic\sources\c99\common\sprcmul.c"
  8047 ;; Parameters:    Size  Location     Type
  8048 ;;  b               4   21[COMRAM] unsigned char 
  8049 ;;  a               4   25[COMRAM] unsigned char 
  8050 ;; Auto vars:     Size  Location     Type
  8051 ;;  prod            4   40[COMRAM] struct .
  8052 ;;  grs             4   34[COMRAM] unsigned long 
  8053 ;;  temp            2   44[COMRAM] struct .
  8054 ;;  bexp            1   39[COMRAM] unsigned char 
  8055 ;;  aexp            1   38[COMRAM] unsigned char 
  8056 ;;  sign            1   33[COMRAM] unsigned char 
  8057 ;; Return value:  Size  Location     Type
  8058 ;;                  4   21[COMRAM] unsigned char 
  8059 ;; Registers used:
  8060 ;;		wreg, status,2, status,0, prodl, prodh
  8061 ;; Tracked objects:
  8062 ;;		On entry : 0/0
  8063 ;;		On exit  : 0/0
  8064 ;;		Unchanged: 0/0
  8065 ;; Data sizes:     COMRAM   BANK0   BANK1   BANK2   BANK3   BANK4   BANK5   BANK6   BANK7
  8066 ;;      Params:         8       0       0       0       0       0       0       0       0
  8067 ;;      Locals:        13       0       0       0       0       0       0       0       0
  8068 ;;      Temps:          4       0       0       0       0       0       0       0       0
  8069 ;;      Totals:        25       0       0       0       0       0       0       0       0
  8070 ;;Total ram usage:       25 bytes
  8071 ;; Hardware stack levels used: 1
  8072 ;; Hardware stack levels required when called: 1
  8073 ;; This function calls:
  8074 ;;		Nothing
  8075 ;; This function is called by:
  8076 ;;		_APP_DeviceJoystickTasks
  8077 ;; This function uses a non-reentrant model
  8078 ;;
  8079                           
  8080                           	psect	text36
  8081   00121A                     __ptext36:
  8082                           	callstack 0
  8083   00121A                     ___flmul:
  8084                           	callstack 28
  8085   00121A  5019               	movf	(___flmul@b+3)^0,w,c
  8086   00121C  0B80               	andlw	128
  8087   00121E  6E22               	movwf	___flmul@sign^0,c
  8088   001220  5019               	movf	(___flmul@b+3)^0,w,c
  8089   001222  2419               	addwf	(___flmul@b+3)^0,w,c
  8090   001224  6E28               	movwf	___flmul@bexp^0,c
  8091   001226  AE18               	btfss	(___flmul@b+2)^0,7,c
  8092   001228  EF18  F009         	goto	u3591
  8093   00122C  EF1A  F009         	goto	u3590
  8094   001230                     u3591:
  8095   001230  EF1B  F009         	goto	l4290
  8096   001234                     u3590:
  8097   001234  8028               	bsf	___flmul@bexp^0,0,c
  8098   001236                     l4290:
  8099   001236  5028               	movf	___flmul@bexp^0,w,c
  8100   001238  B4D8               	btfsc	status,2,c
  8101   00123A  EF21  F009         	goto	u3601
  8102   00123E  EF23  F009         	goto	u3600
  8103   001242                     u3601:
  8104   001242  EF36  F009         	goto	l4298
  8105   001246                     u3600:
  8106   001246  2828               	incf	___flmul@bexp^0,w,c
  8107   001248  A4D8               	btfss	status,2,c
  8108   00124A  EF29  F009         	goto	u3611
  8109   00124E  EF2B  F009         	goto	u3610
  8110   001252                     u3611:
  8111   001252  EF33  F009         	goto	l4296
  8112   001256                     u3610:
  8113   001256  0E00               	movlw	0
  8114   001258  6E16               	movwf	___flmul@b^0,c
  8115   00125A  0E00               	movlw	0
  8116   00125C  6E17               	movwf	(___flmul@b+1)^0,c
  8117   00125E  0E00               	movlw	0
  8118   001260  6E18               	movwf	(___flmul@b+2)^0,c
  8119   001262  0E00               	movlw	0
  8120   001264  6E19               	movwf	(___flmul@b+3)^0,c
  8121   001266                     l4296:
  8122   001266  8E18               	bsf	(___flmul@b+2)^0,7,c
  8123   001268  EF3E  F009         	goto	l4300
  8124   00126C                     l4298:
  8125   00126C  0E00               	movlw	0
  8126   00126E  6E16               	movwf	___flmul@b^0,c
  8127   001270  0E00               	movlw	0
  8128   001272  6E17               	movwf	(___flmul@b+1)^0,c
  8129   001274  0E00               	movlw	0
  8130   001276  6E18               	movwf	(___flmul@b+2)^0,c
  8131   001278  0E00               	movlw	0
  8132   00127A  6E19               	movwf	(___flmul@b+3)^0,c
  8133   00127C                     l4300:
  8134   00127C  501D               	movf	(___flmul@a+3)^0,w,c
  8135   00127E  0B80               	andlw	128
  8136   001280  1A22               	xorwf	___flmul@sign^0,f,c
  8137   001282  501D               	movf	(___flmul@a+3)^0,w,c
  8138   001284  241D               	addwf	(___flmul@a+3)^0,w,c
  8139   001286  6E27               	movwf	___flmul@aexp^0,c
  8140   001288  AE1C               	btfss	(___flmul@a+2)^0,7,c
  8141   00128A  EF49  F009         	goto	u3621
  8142   00128E  EF4B  F009         	goto	u3620
  8143   001292                     u3621:
  8144   001292  EF4C  F009         	goto	l4308
  8145   001296                     u3620:
  8146   001296  8027               	bsf	___flmul@aexp^0,0,c
  8147   001298                     l4308:
  8148   001298  5027               	movf	___flmul@aexp^0,w,c
  8149   00129A  B4D8               	btfsc	status,2,c
  8150   00129C  EF52  F009         	goto	u3631
  8151   0012A0  EF54  F009         	goto	u3630
  8152   0012A4                     u3631:
  8153   0012A4  EF67  F009         	goto	l4316
  8154   0012A8                     u3630:
  8155   0012A8  2827               	incf	___flmul@aexp^0,w,c
  8156   0012AA  A4D8               	btfss	status,2,c
  8157   0012AC  EF5A  F009         	goto	u3641
  8158   0012B0  EF5C  F009         	goto	u3640
  8159   0012B4                     u3641:
  8160   0012B4  EF64  F009         	goto	l4314
  8161   0012B8                     u3640:
  8162   0012B8  0E00               	movlw	0
  8163   0012BA  6E1A               	movwf	___flmul@a^0,c
  8164   0012BC  0E00               	movlw	0
  8165   0012BE  6E1B               	movwf	(___flmul@a+1)^0,c
  8166   0012C0  0E00               	movlw	0
  8167   0012C2  6E1C               	movwf	(___flmul@a+2)^0,c
  8168   0012C4  0E00               	movlw	0
  8169   0012C6  6E1D               	movwf	(___flmul@a+3)^0,c
  8170   0012C8                     l4314:
  8171   0012C8  8E1C               	bsf	(___flmul@a+2)^0,7,c
  8172   0012CA  EF6F  F009         	goto	l1211
  8173   0012CE                     l4316:
  8174   0012CE  0E00               	movlw	0
  8175   0012D0  6E1A               	movwf	___flmul@a^0,c
  8176   0012D2  0E00               	movlw	0
  8177   0012D4  6E1B               	movwf	(___flmul@a+1)^0,c
  8178   0012D6  0E00               	movlw	0
  8179   0012D8  6E1C               	movwf	(___flmul@a+2)^0,c
  8180   0012DA  0E00               	movlw	0
  8181   0012DC  6E1D               	movwf	(___flmul@a+3)^0,c
  8182   0012DE                     l1211:
  8183   0012DE  5027               	movf	___flmul@aexp^0,w,c
  8184   0012E0  B4D8               	btfsc	status,2,c
  8185   0012E2  EF75  F009         	goto	u3651
  8186   0012E6  EF77  F009         	goto	u3650
  8187   0012EA                     u3651:
  8188   0012EA  EF7F  F009         	goto	l4320
  8189   0012EE                     u3650:
  8190   0012EE  5028               	movf	___flmul@bexp^0,w,c
  8191   0012F0  A4D8               	btfss	status,2,c
  8192   0012F2  EF7D  F009         	goto	u3661
  8193   0012F6  EF7F  F009         	goto	u3660
  8194   0012FA                     u3661:
  8195   0012FA  EF89  F009         	goto	l4324
  8196   0012FE                     u3660:
  8197   0012FE                     l4320:
  8198   0012FE  0E00               	movlw	0
  8199   001300  6E16               	movwf	?___flmul^0,c
  8200   001302  0E00               	movlw	0
  8201   001304  6E17               	movwf	(?___flmul+1)^0,c
  8202   001306  0E00               	movlw	0
  8203   001308  6E18               	movwf	(?___flmul+2)^0,c
  8204   00130A  0E00               	movlw	0
  8205   00130C  6E19               	movwf	(?___flmul+3)^0,c
  8206   00130E  EF21  F00B         	goto	l1215
  8207   001312                     l4324:
  8208   001312  501C               	movf	(___flmul@a+2)^0,w,c
  8209   001314  0216               	mulwf	___flmul@b^0,c
  8210   001316  CFF3 F02D          	movff	prodl,___flmul@temp
  8211   00131A  CFF4 F02E          	movff	prodh,___flmul@temp+1
  8212   00131E  502D               	movf	___flmul@temp^0,w,c
  8213   001320  6E23               	movwf	___flmul@grs^0,c
  8214   001322  6A24               	clrf	(___flmul@grs+1)^0,c
  8215   001324  6A25               	clrf	(___flmul@grs+2)^0,c
  8216   001326  6A26               	clrf	(___flmul@grs+3)^0,c
  8217   001328  502E               	movf	(___flmul@temp+1)^0,w,c
  8218   00132A  6E29               	movwf	___flmul@prod^0,c
  8219   00132C  6A2A               	clrf	(___flmul@prod+1)^0,c
  8220   00132E  6A2B               	clrf	(___flmul@prod+2)^0,c
  8221   001330  6A2C               	clrf	(___flmul@prod+3)^0,c
  8222   001332  501B               	movf	(___flmul@a+1)^0,w,c
  8223   001334  0217               	mulwf	(___flmul@b+1)^0,c
  8224   001336  CFF3 F02D          	movff	prodl,___flmul@temp
  8225   00133A  CFF4 F02E          	movff	prodh,___flmul@temp+1
  8226   00133E  502D               	movf	___flmul@temp^0,w,c
  8227   001340  2623               	addwf	___flmul@grs^0,f,c
  8228   001342  0E00               	movlw	0
  8229   001344  2224               	addwfc	(___flmul@grs+1)^0,f,c
  8230   001346  2225               	addwfc	(___flmul@grs+2)^0,f,c
  8231   001348  2226               	addwfc	(___flmul@grs+3)^0,f,c
  8232   00134A  502E               	movf	(___flmul@temp+1)^0,w,c
  8233   00134C  2629               	addwf	___flmul@prod^0,f,c
  8234   00134E  0E00               	movlw	0
  8235   001350  222A               	addwfc	(___flmul@prod+1)^0,f,c
  8236   001352  222B               	addwfc	(___flmul@prod+2)^0,f,c
  8237   001354  222C               	addwfc	(___flmul@prod+3)^0,f,c
  8238   001356  501A               	movf	___flmul@a^0,w,c
  8239   001358  0218               	mulwf	(___flmul@b+2)^0,c
  8240   00135A  CFF3 F02D          	movff	prodl,___flmul@temp
  8241   00135E  CFF4 F02E          	movff	prodh,___flmul@temp+1
  8242   001362  502D               	movf	___flmul@temp^0,w,c
  8243   001364  2623               	addwf	___flmul@grs^0,f,c
  8244   001366  0E00               	movlw	0
  8245   001368  2224               	addwfc	(___flmul@grs+1)^0,f,c
  8246   00136A  2225               	addwfc	(___flmul@grs+2)^0,f,c
  8247   00136C  2226               	addwfc	(___flmul@grs+3)^0,f,c
  8248   00136E  502E               	movf	(___flmul@temp+1)^0,w,c
  8249   001370  2629               	addwf	___flmul@prod^0,f,c
  8250   001372  0E00               	movlw	0
  8251   001374  222A               	addwfc	(___flmul@prod+1)^0,f,c
  8252   001376  222B               	addwfc	(___flmul@prod+2)^0,f,c
  8253   001378  222C               	addwfc	(___flmul@prod+3)^0,f,c
  8254   00137A  C025  F026         	movff	___flmul@grs+2,___flmul@grs+3
  8255   00137E  C024  F025         	movff	___flmul@grs+1,___flmul@grs+2
  8256   001382  C023  F024         	movff	___flmul@grs,___flmul@grs+1
  8257   001386  6A23               	clrf	___flmul@grs^0,c
  8258   001388  501A               	movf	___flmul@a^0,w,c
  8259   00138A  0217               	mulwf	(___flmul@b+1)^0,c
  8260   00138C  CFF3 F02D          	movff	prodl,___flmul@temp
  8261   001390  CFF4 F02E          	movff	prodh,___flmul@temp+1
  8262   001394  502D               	movf	___flmul@temp^0,w,c
  8263   001396  2623               	addwf	___flmul@grs^0,f,c
  8264   001398  502E               	movf	(___flmul@temp+1)^0,w,c
  8265   00139A  2224               	addwfc	(___flmul@grs+1)^0,f,c
  8266   00139C  0E00               	movlw	0
  8267   00139E  2225               	addwfc	(___flmul@grs+2)^0,f,c
  8268   0013A0  0E00               	movlw	0
  8269   0013A2  2226               	addwfc	(___flmul@grs+3)^0,f,c
  8270   0013A4  501B               	movf	(___flmul@a+1)^0,w,c
  8271   0013A6  0216               	mulwf	___flmul@b^0,c
  8272   0013A8  CFF3 F02D          	movff	prodl,___flmul@temp
  8273   0013AC  CFF4 F02E          	movff	prodh,___flmul@temp+1
  8274   0013B0  502D               	movf	___flmul@temp^0,w,c
  8275   0013B2  2623               	addwf	___flmul@grs^0,f,c
  8276   0013B4  502E               	movf	(___flmul@temp+1)^0,w,c
  8277   0013B6  2224               	addwfc	(___flmul@grs+1)^0,f,c
  8278   0013B8  0E00               	movlw	0
  8279   0013BA  2225               	addwfc	(___flmul@grs+2)^0,f,c
  8280   0013BC  0E00               	movlw	0
  8281   0013BE  2226               	addwfc	(___flmul@grs+3)^0,f,c
  8282   0013C0  C025  F026         	movff	___flmul@grs+2,___flmul@grs+3
  8283   0013C4  C024  F025         	movff	___flmul@grs+1,___flmul@grs+2
  8284   0013C8  C023  F024         	movff	___flmul@grs,___flmul@grs+1
  8285   0013CC  6A23               	clrf	___flmul@grs^0,c
  8286   0013CE  501A               	movf	___flmul@a^0,w,c
  8287   0013D0  0216               	mulwf	___flmul@b^0,c
  8288   0013D2  CFF3 F02D          	movff	prodl,___flmul@temp
  8289   0013D6  CFF4 F02E          	movff	prodh,___flmul@temp+1
  8290   0013DA  502D               	movf	___flmul@temp^0,w,c
  8291   0013DC  2623               	addwf	___flmul@grs^0,f,c
  8292   0013DE  502E               	movf	(___flmul@temp+1)^0,w,c
  8293   0013E0  2224               	addwfc	(___flmul@grs+1)^0,f,c
  8294   0013E2  0E00               	movlw	0
  8295   0013E4  2225               	addwfc	(___flmul@grs+2)^0,f,c
  8296   0013E6  0E00               	movlw	0
  8297   0013E8  2226               	addwfc	(___flmul@grs+3)^0,f,c
  8298   0013EA  501C               	movf	(___flmul@a+2)^0,w,c
  8299   0013EC  0217               	mulwf	(___flmul@b+1)^0,c
  8300   0013EE  CFF3 F02D          	movff	prodl,___flmul@temp
  8301   0013F2  CFF4 F02E          	movff	prodh,___flmul@temp+1
  8302   0013F6  502D               	movf	___flmul@temp^0,w,c
  8303   0013F8  2629               	addwf	___flmul@prod^0,f,c
  8304   0013FA  502E               	movf	(___flmul@temp+1)^0,w,c
  8305   0013FC  222A               	addwfc	(___flmul@prod+1)^0,f,c
  8306   0013FE  0E00               	movlw	0
  8307   001400  222B               	addwfc	(___flmul@prod+2)^0,f,c
  8308   001402  0E00               	movlw	0
  8309   001404  222C               	addwfc	(___flmul@prod+3)^0,f,c
  8310   001406  501B               	movf	(___flmul@a+1)^0,w,c
  8311   001408  0218               	mulwf	(___flmul@b+2)^0,c
  8312   00140A  CFF3 F02D          	movff	prodl,___flmul@temp
  8313   00140E  CFF4 F02E          	movff	prodh,___flmul@temp+1
  8314   001412  502D               	movf	___flmul@temp^0,w,c
  8315   001414  2629               	addwf	___flmul@prod^0,f,c
  8316   001416  502E               	movf	(___flmul@temp+1)^0,w,c
  8317   001418  222A               	addwfc	(___flmul@prod+1)^0,f,c
  8318   00141A  0E00               	movlw	0
  8319   00141C  222B               	addwfc	(___flmul@prod+2)^0,f,c
  8320   00141E  0E00               	movlw	0
  8321   001420  222C               	addwfc	(___flmul@prod+3)^0,f,c
  8322   001422  501C               	movf	(___flmul@a+2)^0,w,c
  8323   001424  0218               	mulwf	(___flmul@b+2)^0,c
  8324   001426  CFF3 F02D          	movff	prodl,___flmul@temp
  8325   00142A  CFF4 F02E          	movff	prodh,___flmul@temp+1
  8326   00142E  502D               	movf	___flmul@temp^0,w,c
  8327   001430  6E1E               	movwf	??___flmul^0,c
  8328   001432  502E               	movf	(___flmul@temp+1)^0,w,c
  8329   001434  6E1F               	movwf	(??___flmul+1)^0,c
  8330   001436  6A20               	clrf	(??___flmul+2)^0,c
  8331   001438  6A21               	clrf	(??___flmul+3)^0,c
  8332   00143A  C020  F021         	movff	??___flmul+2,??___flmul+3
  8333   00143E  C01F  F020         	movff	??___flmul+1,??___flmul+2
  8334   001442  C01E  F01F         	movff	??___flmul,??___flmul+1
  8335   001446  6A1E               	clrf	??___flmul^0,c
  8336   001448  501E               	movf	??___flmul^0,w,c
  8337   00144A  2629               	addwf	___flmul@prod^0,f,c
  8338   00144C  501F               	movf	(??___flmul+1)^0,w,c
  8339   00144E  222A               	addwfc	(___flmul@prod+1)^0,f,c
  8340   001450  5020               	movf	(??___flmul+2)^0,w,c
  8341   001452  222B               	addwfc	(___flmul@prod+2)^0,f,c
  8342   001454  5021               	movf	(??___flmul+3)^0,w,c
  8343   001456  222C               	addwfc	(___flmul@prod+3)^0,f,c
  8344   001458  C023  F01E         	movff	___flmul@grs,??___flmul
  8345   00145C  C024  F01F         	movff	___flmul@grs+1,??___flmul+1
  8346   001460  C025  F020         	movff	___flmul@grs+2,??___flmul+2
  8347   001464  C026  F021         	movff	___flmul@grs+3,??___flmul+3
  8348   001468  0E19               	movlw	25
  8349   00146A  EF3C  F00A         	goto	u3670
  8350   00146E                     u3675:
  8351   00146E  90D8               	bcf	status,0,c
  8352   001470  3221               	rrcf	(??___flmul+3)^0,f,c
  8353   001472  3220               	rrcf	(??___flmul+2)^0,f,c
  8354   001474  321F               	rrcf	(??___flmul+1)^0,f,c
  8355   001476  321E               	rrcf	??___flmul^0,f,c
  8356   001478                     u3670:
  8357   001478  2EE8               	decfsz	wreg,f,c
  8358   00147A  EF37  F00A         	goto	u3675
  8359   00147E  501E               	movf	??___flmul^0,w,c
  8360   001480  2629               	addwf	___flmul@prod^0,f,c
  8361   001482  501F               	movf	(??___flmul+1)^0,w,c
  8362   001484  222A               	addwfc	(___flmul@prod+1)^0,f,c
  8363   001486  5020               	movf	(??___flmul+2)^0,w,c
  8364   001488  222B               	addwfc	(___flmul@prod+2)^0,f,c
  8365   00148A  5021               	movf	(??___flmul+3)^0,w,c
  8366   00148C  222C               	addwfc	(___flmul@prod+3)^0,f,c
  8367   00148E  C025  F026         	movff	___flmul@grs+2,___flmul@grs+3
  8368   001492  C024  F025         	movff	___flmul@grs+1,___flmul@grs+2
  8369   001496  C023  F024         	movff	___flmul@grs,___flmul@grs+1
  8370   00149A  6A23               	clrf	___flmul@grs^0,c
  8371   00149C  5027               	movf	___flmul@aexp^0,w,c
  8372   00149E  C028  F01E         	movff	___flmul@bexp,??___flmul
  8373   0014A2  6A1F               	clrf	(??___flmul+1)^0,c
  8374   0014A4  261E               	addwf	??___flmul^0,f,c
  8375   0014A6  0E00               	movlw	0
  8376   0014A8  221F               	addwfc	(??___flmul+1)^0,f,c
  8377   0014AA  0E82               	movlw	130
  8378   0014AC  241E               	addwf	??___flmul^0,w,c
  8379   0014AE  6E2D               	movwf	___flmul@temp^0,c
  8380   0014B0  0EFF               	movlw	255
  8381   0014B2  201F               	addwfc	(??___flmul+1)^0,w,c
  8382   0014B4  6E2E               	movwf	(___flmul@temp+1)^0,c
  8383   0014B6  EF72  F00A         	goto	l4372
  8384   0014BA                     l4366:
  8385   0014BA  90D8               	bcf	status,0,c
  8386   0014BC  3629               	rlcf	___flmul@prod^0,f,c
  8387   0014BE  362A               	rlcf	(___flmul@prod+1)^0,f,c
  8388   0014C0  362B               	rlcf	(___flmul@prod+2)^0,f,c
  8389   0014C2  362C               	rlcf	(___flmul@prod+3)^0,f,c
  8390   0014C4  AE26               	btfss	(___flmul@grs+3)^0,7,c
  8391   0014C6  EF67  F00A         	goto	u3681
  8392   0014CA  EF69  F00A         	goto	u3680
  8393   0014CE                     u3681:
  8394   0014CE  EF6A  F00A         	goto	l1218
  8395   0014D2                     u3680:
  8396   0014D2  8029               	bsf	___flmul@prod^0,0,c
  8397   0014D4                     l1218:
  8398   0014D4  90D8               	bcf	status,0,c
  8399   0014D6  3623               	rlcf	___flmul@grs^0,f,c
  8400   0014D8  3624               	rlcf	(___flmul@grs+1)^0,f,c
  8401   0014DA  3625               	rlcf	(___flmul@grs+2)^0,f,c
  8402   0014DC  3626               	rlcf	(___flmul@grs+3)^0,f,c
  8403   0014DE  062D               	decf	___flmul@temp^0,f,c
  8404   0014E0  A0D8               	btfss	status,0,c
  8405   0014E2  062E               	decf	(___flmul@temp+1)^0,f,c
  8406   0014E4                     l4372:
  8407   0014E4  AE2B               	btfss	(___flmul@prod+2)^0,7,c
  8408   0014E6  EF77  F00A         	goto	u3691
  8409   0014EA  EF79  F00A         	goto	u3690
  8410   0014EE                     u3691:
  8411   0014EE  EF5D  F00A         	goto	l4366
  8412   0014F2                     u3690:
  8413   0014F2  0E00               	movlw	0
  8414   0014F4  6E27               	movwf	___flmul@aexp^0,c
  8415   0014F6  AE26               	btfss	(___flmul@grs+3)^0,7,c
  8416   0014F8  EF80  F00A         	goto	u3701
  8417   0014FC  EF82  F00A         	goto	u3700
  8418   001500                     u3701:
  8419   001500  EFA6  F00A         	goto	l1220
  8420   001504                     u3700:
  8421   001504  0EFF               	movlw	255
  8422   001506  1423               	andwf	___flmul@grs^0,w,c
  8423   001508  6E1E               	movwf	??___flmul^0,c
  8424   00150A  0EFF               	movlw	255
  8425   00150C  1424               	andwf	(___flmul@grs+1)^0,w,c
  8426   00150E  6E1F               	movwf	(??___flmul+1)^0,c
  8427   001510  0EFF               	movlw	255
  8428   001512  1425               	andwf	(___flmul@grs+2)^0,w,c
  8429   001514  6E20               	movwf	(??___flmul+2)^0,c
  8430   001516  0E7F               	movlw	127
  8431   001518  1426               	andwf	(___flmul@grs+3)^0,w,c
  8432   00151A  6E21               	movwf	(??___flmul+3)^0,c
  8433   00151C  501E               	movf	??___flmul^0,w,c
  8434   00151E  101F               	iorwf	(??___flmul+1)^0,w,c
  8435   001520  1020               	iorwf	(??___flmul+2)^0,w,c
  8436   001522  1021               	iorwf	(??___flmul+3)^0,w,c
  8437   001524  B4D8               	btfsc	status,2,c
  8438   001526  EF97  F00A         	goto	u3711
  8439   00152A  EF99  F00A         	goto	u3710
  8440   00152E                     u3711:
  8441   00152E  EF9D  F00A         	goto	l1221
  8442   001532                     u3710:
  8443   001532                     l4380:
  8444   001532  0E01               	movlw	1
  8445   001534  6E27               	movwf	___flmul@aexp^0,c
  8446   001536  EFA6  F00A         	goto	l1220
  8447   00153A                     l1221:
  8448   00153A  A029               	btfss	___flmul@prod^0,0,c
  8449   00153C  EFA2  F00A         	goto	u3721
  8450   001540  EFA4  F00A         	goto	u3720
  8451   001544                     u3721:
  8452   001544  EFA6  F00A         	goto	l1220
  8453   001548                     u3720:
  8454   001548  EF99  F00A         	goto	l4380
  8455   00154C                     l1220:
  8456   00154C  5027               	movf	___flmul@aexp^0,w,c
  8457   00154E  B4D8               	btfsc	status,2,c
  8458   001550  EFAC  F00A         	goto	u3731
  8459   001554  EFAE  F00A         	goto	u3730
  8460   001558                     u3731:
  8461   001558  EFD2  F00A         	goto	l4392
  8462   00155C                     u3730:
  8463   00155C  0E01               	movlw	1
  8464   00155E  2629               	addwf	___flmul@prod^0,f,c
  8465   001560  0E00               	movlw	0
  8466   001562  222A               	addwfc	(___flmul@prod+1)^0,f,c
  8467   001564  222B               	addwfc	(___flmul@prod+2)^0,f,c
  8468   001566  222C               	addwfc	(___flmul@prod+3)^0,f,c
  8469   001568  A02C               	btfss	(___flmul@prod+3)^0,0,c
  8470   00156A  EFB9  F00A         	goto	u3741
  8471   00156E  EFBB  F00A         	goto	u3740
  8472   001572                     u3741:
  8473   001572  EFD2  F00A         	goto	l4392
  8474   001576                     u3740:
  8475   001576  C029  F01E         	movff	___flmul@prod,??___flmul
  8476   00157A  C02A  F01F         	movff	___flmul@prod+1,??___flmul+1
  8477   00157E  C02B  F020         	movff	___flmul@prod+2,??___flmul+2
  8478   001582  C02C  F021         	movff	___flmul@prod+3,??___flmul+3
  8479   001586  3421               	rlcf	(??___flmul+3)^0,w,c
  8480   001588  3221               	rrcf	(??___flmul+3)^0,f,c
  8481   00158A  3220               	rrcf	(??___flmul+2)^0,f,c
  8482   00158C  321F               	rrcf	(??___flmul+1)^0,f,c
  8483   00158E  321E               	rrcf	??___flmul^0,f,c
  8484   001590  C01E  F029         	movff	??___flmul,___flmul@prod
  8485   001594  C01F  F02A         	movff	??___flmul+1,___flmul@prod+1
  8486   001598  C020  F02B         	movff	??___flmul+2,___flmul@prod+2
  8487   00159C  C021  F02C         	movff	??___flmul+3,___flmul@prod+3
  8488   0015A0  4A2D               	infsnz	___flmul@temp^0,f,c
  8489   0015A2  2A2E               	incf	(___flmul@temp+1)^0,f,c
  8490   0015A4                     l4392:
  8491   0015A4  BE2E               	btfsc	(___flmul@temp+1)^0,7,c
  8492   0015A6  EFDD  F00A         	goto	u3751
  8493   0015AA  502E               	movf	(___flmul@temp+1)^0,w,c
  8494   0015AC  E108               	bnz	u3750
  8495   0015AE  282D               	incf	___flmul@temp^0,w,c
  8496   0015B0  A0D8               	btfss	status,0,c
  8497   0015B2  EFDD  F00A         	goto	u3751
  8498   0015B6  EFDF  F00A         	goto	u3750
  8499   0015BA                     u3751:
  8500   0015BA  EFE9  F00A         	goto	l4396
  8501   0015BE                     u3750:
  8502   0015BE  0E00               	movlw	0
  8503   0015C0  6E29               	movwf	___flmul@prod^0,c
  8504   0015C2  0E00               	movlw	0
  8505   0015C4  6E2A               	movwf	(___flmul@prod+1)^0,c
  8506   0015C6  0E80               	movlw	128
  8507   0015C8  6E2B               	movwf	(___flmul@prod+2)^0,c
  8508   0015CA  0E7F               	movlw	127
  8509   0015CC  6E2C               	movwf	(___flmul@prod+3)^0,c
  8510   0015CE  EF17  F00B         	goto	l4408
  8511   0015D2                     l4396:
  8512   0015D2  BE2E               	btfsc	(___flmul@temp+1)^0,7,c
  8513   0015D4  EFF6  F00A         	goto	u3760
  8514   0015D8  502E               	movf	(___flmul@temp+1)^0,w,c
  8515   0015DA  E106               	bnz	u3761
  8516   0015DC  042D               	decf	___flmul@temp^0,w,c
  8517   0015DE  B0D8               	btfsc	status,0,c
  8518   0015E0  EFF4  F00A         	goto	u3761
  8519   0015E4  EFF6  F00A         	goto	u3760
  8520   0015E8                     u3761:
  8521   0015E8  EF02  F00B         	goto	l1228
  8522   0015EC                     u3760:
  8523   0015EC  0E00               	movlw	0
  8524   0015EE  6E29               	movwf	___flmul@prod^0,c
  8525   0015F0  0E00               	movlw	0
  8526   0015F2  6E2A               	movwf	(___flmul@prod+1)^0,c
  8527   0015F4  0E00               	movlw	0
  8528   0015F6  6E2B               	movwf	(___flmul@prod+2)^0,c
  8529   0015F8  0E00               	movlw	0
  8530   0015FA  6E2C               	movwf	(___flmul@prod+3)^0,c
  8531   0015FC  0E00               	movlw	0
  8532   0015FE  6E22               	movwf	___flmul@sign^0,c
  8533   001600  EF17  F00B         	goto	l4408
  8534   001604                     l1228:
  8535   001604  C02D  F028         	movff	___flmul@temp,___flmul@bexp
  8536   001608  0EFF               	movlw	255
  8537   00160A  1629               	andwf	___flmul@prod^0,f,c
  8538   00160C  0EFF               	movlw	255
  8539   00160E  162A               	andwf	(___flmul@prod+1)^0,f,c
  8540   001610  0E7F               	movlw	127
  8541   001612  162B               	andwf	(___flmul@prod+2)^0,f,c
  8542   001614  0E00               	movlw	0
  8543   001616  162C               	andwf	(___flmul@prod+3)^0,f,c
  8544   001618  A028               	btfss	___flmul@bexp^0,0,c
  8545   00161A  EF11  F00B         	goto	u3771
  8546   00161E  EF13  F00B         	goto	u3770
  8547   001622                     u3771:
  8548   001622  EF14  F00B         	goto	l4406
  8549   001626                     u3770:
  8550   001626  8E2B               	bsf	(___flmul@prod+2)^0,7,c
  8551   001628                     l4406:
  8552   001628  90D8               	bcf	status,0,c
  8553   00162A  3028               	rrcf	___flmul@bexp^0,w,c
  8554   00162C  6E2C               	movwf	(___flmul@prod+3)^0,c
  8555   00162E                     l4408:
  8556   00162E  5022               	movf	___flmul@sign^0,w,c
  8557   001630  122C               	iorwf	(___flmul@prod+3)^0,f,c
  8558   001632  C029  F016         	movff	___flmul@prod,?___flmul
  8559   001636  C02A  F017         	movff	___flmul@prod+1,?___flmul+1
  8560   00163A  C02B  F018         	movff	___flmul@prod+2,?___flmul+2
  8561   00163E  C02C  F019         	movff	___flmul@prod+3,?___flmul+3
  8562   001642                     l1215:
  8563   001642  0012               	return		;funcret
  8564   001644                     __end_of___flmul:
  8565                           	callstack 0
  8566                           
  8567 ;; *************** function ___flge *****************
  8568 ;; Defined at:
  8569 ;;		line 4 in file "C:\Program Files\Microchip\xc8\v2.40\pic\sources\c99\common\flge.c"
  8570 ;; Parameters:    Size  Location     Type
  8571 ;;  ff1             4   70[COMRAM] unsigned char 
  8572 ;;  ff2             4   74[COMRAM] unsigned char 
  8573 ;; Auto vars:     Size  Location     Type
  8574 ;;		None
  8575 ;; Return value:  Size  Location     Type
  8576 ;;		None               void
  8577 ;; Registers used:
  8578 ;;		wreg, status,2, status,0
  8579 ;; Tracked objects:
  8580 ;;		On entry : 0/0
  8581 ;;		On exit  : 0/0
  8582 ;;		Unchanged: 0/0
  8583 ;; Data sizes:     COMRAM   BANK0   BANK1   BANK2   BANK3   BANK4   BANK5   BANK6   BANK7
  8584 ;;      Params:         8       0       0       0       0       0       0       0       0
  8585 ;;      Locals:         0       0       0       0       0       0       0       0       0
  8586 ;;      Temps:          4       0       0       0       0       0       0       0       0
  8587 ;;      Totals:        12       0       0       0       0       0       0       0       0
  8588 ;;Total ram usage:       12 bytes
  8589 ;; Hardware stack levels used: 1
  8590 ;; Hardware stack levels required when called: 1
  8591 ;; This function calls:
  8592 ;;		Nothing
  8593 ;; This function is called by:
  8594 ;;		_APP_DeviceJoystickTasks
  8595 ;; This function uses a non-reentrant model
  8596 ;;
  8597                           
  8598                           	psect	text37
  8599   002C84                     __ptext37:
  8600                           	callstack 0
  8601   002C84                     ___flge:
  8602                           	callstack 28
  8603   002C84  0E00               	movlw	0
  8604   002C86  1447               	andwf	___flge@ff1^0,w,c
  8605   002C88  6E4F               	movwf	??___flge^0,c
  8606   002C8A  0E00               	movlw	0
  8607   002C8C  1448               	andwf	(___flge@ff1+1)^0,w,c
  8608   002C8E  6E50               	movwf	(??___flge+1)^0,c
  8609   002C90  0E80               	movlw	128
  8610   002C92  1449               	andwf	(___flge@ff1+2)^0,w,c
  8611   002C94  6E51               	movwf	(??___flge+2)^0,c
  8612   002C96  0E7F               	movlw	127
  8613   002C98  144A               	andwf	(___flge@ff1+3)^0,w,c
  8614   002C9A  6E52               	movwf	(??___flge+3)^0,c
  8615   002C9C  504F               	movf	??___flge^0,w,c
  8616   002C9E  1050               	iorwf	(??___flge+1)^0,w,c
  8617   002CA0  1051               	iorwf	(??___flge+2)^0,w,c
  8618   002CA2  1052               	iorwf	(??___flge+3)^0,w,c
  8619   002CA4  A4D8               	btfss	status,2,c
  8620   002CA6  EF57  F016         	goto	u3781
  8621   002CAA  EF59  F016         	goto	u3780
  8622   002CAE                     u3781:
  8623   002CAE  EF61  F016         	goto	l4424
  8624   002CB2                     u3780:
  8625   002CB2  0E00               	movlw	0
  8626   002CB4  6E47               	movwf	___flge@ff1^0,c
  8627   002CB6  0E00               	movlw	0
  8628   002CB8  6E48               	movwf	(___flge@ff1+1)^0,c
  8629   002CBA  0E00               	movlw	0
  8630   002CBC  6E49               	movwf	(___flge@ff1+2)^0,c
  8631   002CBE  0E00               	movlw	0
  8632   002CC0  6E4A               	movwf	(___flge@ff1+3)^0,c
  8633   002CC2                     l4424:
  8634   002CC2  0E00               	movlw	0
  8635   002CC4  144B               	andwf	___flge@ff2^0,w,c
  8636   002CC6  6E4F               	movwf	??___flge^0,c
  8637   002CC8  0E00               	movlw	0
  8638   002CCA  144C               	andwf	(___flge@ff2+1)^0,w,c
  8639   002CCC  6E50               	movwf	(??___flge+1)^0,c
  8640   002CCE  0E80               	movlw	128
  8641   002CD0  144D               	andwf	(___flge@ff2+2)^0,w,c
  8642   002CD2  6E51               	movwf	(??___flge+2)^0,c
  8643   002CD4  0E7F               	movlw	127
  8644   002CD6  144E               	andwf	(___flge@ff2+3)^0,w,c
  8645   002CD8  6E52               	movwf	(??___flge+3)^0,c
  8646   002CDA  504F               	movf	??___flge^0,w,c
  8647   002CDC  1050               	iorwf	(??___flge+1)^0,w,c
  8648   002CDE  1051               	iorwf	(??___flge+2)^0,w,c
  8649   002CE0  1052               	iorwf	(??___flge+3)^0,w,c
  8650   002CE2  A4D8               	btfss	status,2,c
  8651   002CE4  EF76  F016         	goto	u3791
  8652   002CE8  EF78  F016         	goto	u3790
  8653   002CEC                     u3791:
  8654   002CEC  EF80  F016         	goto	l4428
  8655   002CF0                     u3790:
  8656   002CF0  0E00               	movlw	0
  8657   002CF2  6E4B               	movwf	___flge@ff2^0,c
  8658   002CF4  0E00               	movlw	0
  8659   002CF6  6E4C               	movwf	(___flge@ff2+1)^0,c
  8660   002CF8  0E00               	movlw	0
  8661   002CFA  6E4D               	movwf	(___flge@ff2+2)^0,c
  8662   002CFC  0E00               	movlw	0
  8663   002CFE  6E4E               	movwf	(___flge@ff2+3)^0,c
  8664   002D00                     l4428:
  8665   002D00  AE4A               	btfss	(___flge@ff1+3)^0,7,c
  8666   002D02  EF85  F016         	goto	u3801
  8667   002D06  EF87  F016         	goto	u3800
  8668   002D0A                     u3801:
  8669   002D0A  EF90  F016         	goto	l4432
  8670   002D0E                     u3800:
  8671   002D0E  6C47               	negf	___flge@ff1^0,c
  8672   002D10  1E48               	comf	(___flge@ff1+1)^0,f,c
  8673   002D12  B0D8               	btfsc	status,0,c
  8674   002D14  2A48               	incf	(___flge@ff1+1)^0,f,c
  8675   002D16  1E49               	comf	(___flge@ff1+2)^0,f,c
  8676   002D18  B0D8               	btfsc	status,0,c
  8677   002D1A  2A49               	incf	(___flge@ff1+2)^0,f,c
  8678   002D1C  0E80               	movlw	128
  8679   002D1E  564A               	subfwb	(___flge@ff1+3)^0,f,c
  8680   002D20                     l4432:
  8681   002D20  AE4E               	btfss	(___flge@ff2+3)^0,7,c
  8682   002D22  EF95  F016         	goto	u3811
  8683   002D26  EF97  F016         	goto	u3810
  8684   002D2A                     u3811:
  8685   002D2A  EFA0  F016         	goto	l862
  8686   002D2E                     u3810:
  8687   002D2E  6C4B               	negf	___flge@ff2^0,c
  8688   002D30  1E4C               	comf	(___flge@ff2+1)^0,f,c
  8689   002D32  B0D8               	btfsc	status,0,c
  8690   002D34  2A4C               	incf	(___flge@ff2+1)^0,f,c
  8691   002D36  1E4D               	comf	(___flge@ff2+2)^0,f,c
  8692   002D38  B0D8               	btfsc	status,0,c
  8693   002D3A  2A4D               	incf	(___flge@ff2+2)^0,f,c
  8694   002D3C  0E80               	movlw	128
  8695   002D3E  564E               	subfwb	(___flge@ff2+3)^0,f,c
  8696   002D40                     l862:
  8697   002D40  0E00               	movlw	0
  8698   002D42  1A47               	xorwf	___flge@ff1^0,f,c
  8699   002D44  0E00               	movlw	0
  8700   002D46  1A48               	xorwf	(___flge@ff1+1)^0,f,c
  8701   002D48  0E00               	movlw	0
  8702   002D4A  1A49               	xorwf	(___flge@ff1+2)^0,f,c
  8703   002D4C  0E80               	movlw	128
  8704   002D4E  1A4A               	xorwf	(___flge@ff1+3)^0,f,c
  8705   002D50  0E00               	movlw	0
  8706   002D52  1A4B               	xorwf	___flge@ff2^0,f,c
  8707   002D54  0E00               	movlw	0
  8708   002D56  1A4C               	xorwf	(___flge@ff2+1)^0,f,c
  8709   002D58  0E00               	movlw	0
  8710   002D5A  1A4D               	xorwf	(___flge@ff2+2)^0,f,c
  8711   002D5C  0E80               	movlw	128
  8712   002D5E  1A4E               	xorwf	(___flge@ff2+3)^0,f,c
  8713   002D60  504B               	movf	___flge@ff2^0,w,c
  8714   002D62  5C47               	subwf	___flge@ff1^0,w,c
  8715   002D64  504C               	movf	(___flge@ff2+1)^0,w,c
  8716   002D66  5848               	subwfb	(___flge@ff1+1)^0,w,c
  8717   002D68  504D               	movf	(___flge@ff2+2)^0,w,c
  8718   002D6A  5849               	subwfb	(___flge@ff1+2)^0,w,c
  8719   002D6C  504E               	movf	(___flge@ff2+3)^0,w,c
  8720   002D6E  584A               	subwfb	(___flge@ff1+3)^0,w,c
  8721   002D70  B0D8               	btfsc	status,0,c
  8722   002D72  EFBD  F016         	goto	u3821
  8723   002D76  EFBF  F016         	goto	u3820
  8724   002D7A                     u3821:
  8725   002D7A  EFC2  F016         	goto	l4438
  8726   002D7E                     u3820:
  8727   002D7E  90D8               	bcf	status,0,c
  8728   002D80  EFC3  F016         	goto	l867
  8729   002D84                     l4438:
  8730   002D84  80D8               	bsf	status,0,c
  8731   002D86                     l867:
  8732   002D86  0012               	return		;funcret
  8733   002D88                     __end_of___flge:
  8734                           	callstack 0
  8735                           
  8736 ;; *************** function _USBTransferOnePacket *****************
  8737 ;; Defined at:
  8738 ;;		line 955 in file "../source/usb/usb_device.c"
  8739 ;; Parameters:    Size  Location     Type
  8740 ;;  ep              1    wreg     unsigned char 
  8741 ;;  dir             1    0[COMRAM] unsigned char 
  8742 ;;  data            2    1[COMRAM] PTR unsigned char 
  8743 ;;		 -> joystick_input(3), 
  8744 ;;  len             1    3[COMRAM] unsigned char 
  8745 ;; Auto vars:     Size  Location     Type
  8746 ;;  ep              1    8[COMRAM] unsigned char 
  8747 ;;  handle          2    9[COMRAM] PTR volatile struct __BD
  8748 ;;		 -> RAM(2047), NULL(0), BDT(32), 
  8749 ;; Return value:  Size  Location     Type
  8750 ;;                  2    0[COMRAM] PTR void 
  8751 ;; Registers used:
  8752 ;;		wreg, fsr2l, fsr2h, status,2, status,0, prodl, prodh
  8753 ;; Tracked objects:
  8754 ;;		On entry : 0/0
  8755 ;;		On exit  : 0/0
  8756 ;;		Unchanged: 0/0
  8757 ;; Data sizes:     COMRAM   BANK0   BANK1   BANK2   BANK3   BANK4   BANK5   BANK6   BANK7
  8758 ;;      Params:         4       0       0       0       0       0       0       0       0
  8759 ;;      Locals:         3       0       0       0       0       0       0       0       0
  8760 ;;      Temps:          4       0       0       0       0       0       0       0       0
  8761 ;;      Totals:        11       0       0       0       0       0       0       0       0
  8762 ;;Total ram usage:       11 bytes
  8763 ;; Hardware stack levels used: 1
  8764 ;; Hardware stack levels required when called: 1
  8765 ;; This function calls:
  8766 ;;		Nothing
  8767 ;; This function is called by:
  8768 ;;		_APP_DeviceJoystickTasks
  8769 ;; This function uses a non-reentrant model
  8770 ;;
  8771                           
  8772                           	psect	text38
  8773   0025E4                     __ptext38:
  8774                           	callstack 0
  8775   0025E4                     _USBTransferOnePacket:
  8776                           	callstack 28
  8777                           
  8778                           ;incstack = 0
  8779                           ;USBTransferOnePacket@ep stored from wreg
  8780   0025E4  6E09               	movwf	USBTransferOnePacket@ep^0,c
  8781   0025E6                     
  8782                           ;../source/usb/usb_device.c: 955: void* USBTransferOnePacket(uint8_t ep,uint8_t dir,uint
      +                          8_t* data,uint8_t len);../source/usb/usb_device.c: 956: {;../source/usb/usb_device.c: 95
      +                          7:     volatile BDT_ENTRY* handle;;../source/usb/usb_device.c: 960:     if(dir != 0)
  8783   0025E6  5001               	movf	USBTransferOnePacket@dir^0,w,c
  8784   0025E8  B4D8               	btfsc	status,2,c
  8785   0025EA  EFF9  F012         	goto	u3551
  8786   0025EE  EFFB  F012         	goto	u3550
  8787   0025F2                     u3551:
  8788   0025F2  EF09  F013         	goto	l4236
  8789   0025F6                     u3550:
  8790   0025F6                     
  8791                           ;../source/usb/usb_device.c: 961:     {;../source/usb/usb_device.c: 963:         handle 
      +                          = pBDTEntryIn[ep];
  8792   0025F6  5009               	movf	USBTransferOnePacket@ep^0,w,c
  8793   0025F8  0D02               	mullw	2
  8794   0025FA  0E57               	movlw	low _pBDTEntryIn
  8795   0025FC  24F3               	addwf	243,w,c
  8796   0025FE  6ED9               	movwf	fsr2l,c
  8797   002600  0E00               	movlw	high _pBDTEntryIn
  8798   002602  20F4               	addwfc	prodh,w,c
  8799   002604  6EDA               	movwf	fsr2h,c
  8800   002606  CFDE F00A          	movff	postinc2,USBTransferOnePacket@handle
  8801   00260A  CFDD F00B          	movff	postdec2,USBTransferOnePacket@handle+1
  8802                           
  8803                           ;../source/usb/usb_device.c: 964:     }
  8804   00260E  EF15  F013         	goto	l4238
  8805   002612                     l4236:
  8806                           
  8807                           ;../source/usb/usb_device.c: 966:     {;../source/usb/usb_device.c: 968:         handle 
      +                          = pBDTEntryOut[ep];
  8808   002612  5009               	movf	USBTransferOnePacket@ep^0,w,c
  8809   002614  0D02               	mullw	2
  8810   002616  0E72               	movlw	low _pBDTEntryOut
  8811   002618  24F3               	addwf	243,w,c
  8812   00261A  6ED9               	movwf	fsr2l,c
  8813   00261C  0E00               	movlw	high _pBDTEntryOut
  8814   00261E  20F4               	addwfc	prodh,w,c
  8815   002620  6EDA               	movwf	fsr2h,c
  8816   002622  CFDE F00A          	movff	postinc2,USBTransferOnePacket@handle
  8817   002626  CFDD F00B          	movff	postdec2,USBTransferOnePacket@handle+1
  8818   00262A                     l4238:
  8819                           
  8820                           ;../source/usb/usb_device.c: 973:     if(handle == 0)
  8821   00262A  500A               	movf	USBTransferOnePacket@handle^0,w,c
  8822   00262C  100B               	iorwf	(USBTransferOnePacket@handle+1)^0,w,c
  8823   00262E  A4D8               	btfss	status,2,c
  8824   002630  EF1C  F013         	goto	u3561
  8825   002634  EF1E  F013         	goto	u3560
  8826   002638                     u3561:
  8827   002638  EF24  F013         	goto	l4244
  8828   00263C                     u3560:
  8829   00263C                     
  8830                           ;../source/usb/usb_device.c: 974:     {;../source/usb/usb_device.c: 975:         return 
      +                          0;
  8831   00263C  0E00               	movlw	0
  8832   00263E  6E01               	movwf	?_USBTransferOnePacket^0,c
  8833   002640  0E00               	movlw	0
  8834   002642  6E02               	movwf	(?_USBTransferOnePacket+1)^0,c
  8835   002644  EF90  F013         	goto	l180
  8836   002648                     l4244:
  8837                           
  8838                           ;../source/usb/usb_device.c: 989:     handle->ADR = ((uint16_t)(data));
  8839   002648  EE20 F002          	lfsr	2,2
  8840   00264C  500A               	movf	USBTransferOnePacket@handle^0,w,c
  8841   00264E  26D9               	addwf	fsr2l,f,c
  8842   002650  500B               	movf	(USBTransferOnePacket@handle+1)^0,w,c
  8843   002652  22DA               	addwfc	fsr2h,f,c
  8844   002654  C002  FFDE         	movff	USBTransferOnePacket@data,postinc2
  8845   002658  C003  FFDD         	movff	USBTransferOnePacket@data+1,postdec2
  8846                           
  8847                           ;../source/usb/usb_device.c: 990:     handle->CNT = len;
  8848   00265C  EE20 F001          	lfsr	2,1
  8849   002660  500A               	movf	USBTransferOnePacket@handle^0,w,c
  8850   002662  26D9               	addwf	fsr2l,f,c
  8851   002664  500B               	movf	(USBTransferOnePacket@handle+1)^0,w,c
  8852   002666  22DA               	addwfc	fsr2h,f,c
  8853   002668  C004  FFDF         	movff	USBTransferOnePacket@len,indf2
  8854   00266C                     
  8855                           ;../source/usb/usb_device.c: 991:     handle->STAT.Val &= 0x40;
  8856   00266C  C00A  FFD9         	movff	USBTransferOnePacket@handle,fsr2l
  8857   002670  C00B  FFDA         	movff	USBTransferOnePacket@handle+1,fsr2h
  8858   002674  0E40               	movlw	64
  8859   002676  16DF               	andwf	indf2,f,c
  8860   002678                     
  8861                           ;../source/usb/usb_device.c: 992:     handle->STAT.Val |= (0x08 & 0x08);
  8862   002678  C00A  FFD9         	movff	USBTransferOnePacket@handle,fsr2l
  8863   00267C  C00B  FFDA         	movff	USBTransferOnePacket@handle+1,fsr2h
  8864   002680  0E00               	movlw	0
  8865   002682  86DB               	bsf	plusw2,3,c
  8866   002684                     
  8867                           ;../source/usb/usb_device.c: 993:     handle->STAT.Val |= 0x80;
  8868   002684  C00A  FFD9         	movff	USBTransferOnePacket@handle,fsr2l
  8869   002688  C00B  FFDA         	movff	USBTransferOnePacket@handle+1,fsr2h
  8870   00268C  0E00               	movlw	0
  8871   00268E  8EDB               	bsf	plusw2,7,c
  8872   002690                     
  8873                           ;../source/usb/usb_device.c: 996:     if(dir != 0)
  8874   002690  5001               	movf	USBTransferOnePacket@dir^0,w,c
  8875   002692  B4D8               	btfsc	status,2,c
  8876   002694  EF4E  F013         	goto	u3571
  8877   002698  EF50  F013         	goto	u3570
  8878   00269C                     u3571:
  8879   00269C  EF6F  F013         	goto	l4256
  8880   0026A0                     u3570:
  8881   0026A0                     
  8882                           ;../source/usb/usb_device.c: 997:     {;../source/usb/usb_device.c: 999:         pBDTEnt
      +                          ryIn[ep] = (BDT_ENTRY*)(((uint16_t)pBDTEntryIn[ep]) ^ 0x0004);
  8883   0026A0  5009               	movf	USBTransferOnePacket@ep^0,w,c
  8884   0026A2  0D02               	mullw	2
  8885   0026A4  0E57               	movlw	low _pBDTEntryIn
  8886   0026A6  24F3               	addwf	243,w,c
  8887   0026A8  6ED9               	movwf	fsr2l,c
  8888   0026AA  0E00               	movlw	high _pBDTEntryIn
  8889   0026AC  20F4               	addwfc	prodh,w,c
  8890   0026AE  6EDA               	movwf	fsr2h,c
  8891   0026B0  CFDE F005          	movff	postinc2,??_USBTransferOnePacket
  8892   0026B4  CFDD F006          	movff	postdec2,??_USBTransferOnePacket+1
  8893   0026B8  0E04               	movlw	4
  8894   0026BA  1805               	xorwf	??_USBTransferOnePacket^0,w,c
  8895   0026BC  6E07               	movwf	(??_USBTransferOnePacket+2)^0,c
  8896   0026BE  5006               	movf	(??_USBTransferOnePacket+1)^0,w,c
  8897   0026C0  6E08               	movwf	(??_USBTransferOnePacket+3)^0,c
  8898   0026C2  5009               	movf	USBTransferOnePacket@ep^0,w,c
  8899   0026C4  0D02               	mullw	2
  8900   0026C6  0E57               	movlw	low _pBDTEntryIn
  8901   0026C8  24F3               	addwf	243,w,c
  8902   0026CA  6ED9               	movwf	fsr2l,c
  8903   0026CC  0E00               	movlw	high _pBDTEntryIn
  8904   0026CE  20F4               	addwfc	prodh,w,c
  8905   0026D0  6EDA               	movwf	fsr2h,c
  8906   0026D2  C007  FFDE         	movff	??_USBTransferOnePacket+2,postinc2
  8907   0026D6  C008  FFDD         	movff	??_USBTransferOnePacket+3,postdec2
  8908                           
  8909                           ;../source/usb/usb_device.c: 1000:     }
  8910   0026DA  EF8C  F013         	goto	l4258
  8911   0026DE                     l4256:
  8912                           
  8913                           ;../source/usb/usb_device.c: 1002:     {;../source/usb/usb_device.c: 1004:         pBDTE
      +                          ntryOut[ep] = (BDT_ENTRY*)(((uint16_t)pBDTEntryOut[ep]) ^ 0x0004);
  8914   0026DE  5009               	movf	USBTransferOnePacket@ep^0,w,c
  8915   0026E0  0D02               	mullw	2
  8916   0026E2  0E72               	movlw	low _pBDTEntryOut
  8917   0026E4  24F3               	addwf	243,w,c
  8918   0026E6  6ED9               	movwf	fsr2l,c
  8919   0026E8  0E00               	movlw	high _pBDTEntryOut
  8920   0026EA  20F4               	addwfc	prodh,w,c
  8921   0026EC  6EDA               	movwf	fsr2h,c
  8922   0026EE  CFDE F005          	movff	postinc2,??_USBTransferOnePacket
  8923   0026F2  CFDD F006          	movff	postdec2,??_USBTransferOnePacket+1
  8924   0026F6  0E04               	movlw	4
  8925   0026F8  1805               	xorwf	??_USBTransferOnePacket^0,w,c
  8926   0026FA  6E07               	movwf	(??_USBTransferOnePacket+2)^0,c
  8927   0026FC  5006               	movf	(??_USBTransferOnePacket+1)^0,w,c
  8928   0026FE  6E08               	movwf	(??_USBTransferOnePacket+3)^0,c
  8929   002700  5009               	movf	USBTransferOnePacket@ep^0,w,c
  8930   002702  0D02               	mullw	2
  8931   002704  0E72               	movlw	low _pBDTEntryOut
  8932   002706  24F3               	addwf	243,w,c
  8933   002708  6ED9               	movwf	fsr2l,c
  8934   00270A  0E00               	movlw	high _pBDTEntryOut
  8935   00270C  20F4               	addwfc	prodh,w,c
  8936   00270E  6EDA               	movwf	fsr2h,c
  8937   002710  C007  FFDE         	movff	??_USBTransferOnePacket+2,postinc2
  8938   002714  C008  FFDD         	movff	??_USBTransferOnePacket+3,postdec2
  8939   002718                     l4258:
  8940                           
  8941                           ;../source/usb/usb_device.c: 1006:     return (void*)handle;
  8942   002718  C00A  F001         	movff	USBTransferOnePacket@handle,?_USBTransferOnePacket
  8943   00271C  C00B  F002         	movff	USBTransferOnePacket@handle+1,?_USBTransferOnePacket+1
  8944   002720                     l180:
  8945   002720  0012               	return		;funcret
  8946   002722                     __end_of_USBTransferOnePacket:
  8947                           	callstack 0
  8948                           
  8949 ;; *************** function _ADC_Readbits *****************
  8950 ;; Defined at:
  8951 ;;		line 68 in file "../source/adc.c"
  8952 ;; Parameters:    Size  Location     Type
  8953 ;;  channel         1    wreg     enum E36
  8954 ;; Auto vars:     Size  Location     Type
  8955 ;;  channel         1    6[COMRAM] enum E36
  8956 ;;  result          2    4[COMRAM] unsigned short 
  8957 ;; Return value:  Size  Location     Type
  8958 ;;                  2    0[COMRAM] unsigned short 
  8959 ;; Registers used:
  8960 ;;		wreg, status,2, status,0
  8961 ;; Tracked objects:
  8962 ;;		On entry : 0/0
  8963 ;;		On exit  : 0/0
  8964 ;;		Unchanged: 0/0
  8965 ;; Data sizes:     COMRAM   BANK0   BANK1   BANK2   BANK3   BANK4   BANK5   BANK6   BANK7
  8966 ;;      Params:         2       0       0       0       0       0       0       0       0
  8967 ;;      Locals:         3       0       0       0       0       0       0       0       0
  8968 ;;      Temps:          2       0       0       0       0       0       0       0       0
  8969 ;;      Totals:         7       0       0       0       0       0       0       0       0
  8970 ;;Total ram usage:        7 bytes
  8971 ;; Hardware stack levels used: 1
  8972 ;; Hardware stack levels required when called: 1
  8973 ;; This function calls:
  8974 ;;		Nothing
  8975 ;; This function is called by:
  8976 ;;		_APP_DeviceJoystickTasks
  8977 ;;		_ADC_HatSwitch
  8978 ;; This function uses a non-reentrant model
  8979 ;;
  8980                           
  8981                           	psect	text39
  8982   0032AE                     __ptext39:
  8983                           	callstack 0
  8984   0032AE                     _ADC_Readbits:
  8985                           	callstack 28
  8986                           
  8987                           ;incstack = 0
  8988                           ;ADC_Readbits@channel stored from wreg
  8989   0032AE  6E07               	movwf	ADC_Readbits@channel^0,c
  8990   0032B0                     
  8991                           ;../source/adc.c: 68: uint16_t ADC_Readbits(ADC_CHANNEL channel);../source/adc.c: 69: {;
      +                          ../source/adc.c: 70:     uint16_t result;;../source/adc.c: 72:     switch(channel)
  8992   0032B0  EF5E  F019         	goto	l4266
  8993   0032B4                     l494:
  8994                           
  8995                           ;../source/adc.c: 97:             return 0xFFFF;
  8996   0032B4  6801               	setf	?_ADC_Readbits^0,c
  8997   0032B6  6802               	setf	(?_ADC_Readbits+1)^0,c
  8998   0032B8  EF94  F019         	goto	l495
  8999   0032BC                     l4266:
  9000   0032BC  5007               	movf	ADC_Readbits@channel^0,w,c
  9001   0032BE  6E03               	movwf	??_ADC_Readbits^0,c
  9002   0032C0  6A04               	clrf	(??_ADC_Readbits+1)^0,c
  9003                           
  9004                           ; Switch on 2 bytes has been partitioned into a top level switch of size 1, and 1 sub-sw
      +                          itches
  9005                           ; Switch size 1, requested type "simple"
  9006                           ; Number of cases is 1, Range of values is 0 to 0
  9007                           ; switch strategies available:
  9008                           ; Name         Instructions Cycles
  9009                           ; simple_byte            4     3 (average)
  9010                           ;	Chosen strategy is simple_byte
  9011   0032C2  5004               	movf	(??_ADC_Readbits+1)^0,w,c
  9012   0032C4  0A00               	xorlw	0	; case 0
  9013   0032C6  B4D8               	btfsc	status,2,c
  9014   0032C8  EF68  F019         	goto	l4954
  9015   0032CC  EF5A  F019         	goto	l494
  9016   0032D0                     l4954:
  9017                           
  9018                           ; Switch size 1, requested type "simple"
  9019                           ; Number of cases is 3, Range of values is 0 to 2
  9020                           ; switch strategies available:
  9021                           ; Name         Instructions Cycles
  9022                           ; simple_byte           10     6 (average)
  9023                           ;	Chosen strategy is simple_byte
  9024   0032D0  5003               	movf	??_ADC_Readbits^0,w,c
  9025   0032D2  0A00               	xorlw	0	; case 0
  9026   0032D4  B4D8               	btfsc	status,2,c
  9027   0032D6  EF77  F019         	goto	l4268
  9028   0032DA  0A01               	xorlw	1	; case 1
  9029   0032DC  B4D8               	btfsc	status,2,c
  9030   0032DE  EF77  F019         	goto	l4268
  9031   0032E2  0A03               	xorlw	3	; case 2
  9032   0032E4  B4D8               	btfsc	status,2,c
  9033   0032E6  EF77  F019         	goto	l4268
  9034   0032EA  EF5A  F019         	goto	l494
  9035   0032EE                     l4268:
  9036                           
  9037                           ;../source/adc.c: 100:     ADCON0bits.CHS = channel;
  9038   0032EE  C007  F003         	movff	ADC_Readbits@channel,??_ADC_Readbits
  9039   0032F2  4603               	rlncf	??_ADC_Readbits^0,f,c
  9040   0032F4  4603               	rlncf	??_ADC_Readbits^0,f,c
  9041   0032F6  50C2               	movf	194,w,c	;volatile
  9042   0032F8  1803               	xorwf	??_ADC_Readbits^0,w,c
  9043   0032FA  0BC3               	andlw	-61
  9044   0032FC  1803               	xorwf	??_ADC_Readbits^0,w,c
  9045   0032FE  6EC2               	movwf	194,c	;volatile
  9046   003300                     
  9047                           ;../source/adc.c: 102:     ADCON0bits.GO = 1;
  9048   003300  82C2               	bsf	194,1,c	;volatile
  9049   003302                     l496:
  9050   003302  B2C2               	btfsc	194,1,c	;volatile
  9051   003304  EF86  F019         	goto	u3581
  9052   003308  EF88  F019         	goto	u3580
  9053   00330C                     u3581:
  9054   00330C  EF81  F019         	goto	l496
  9055   003310                     u3580:
  9056   003310                     
  9057                           ;../source/adc.c: 105:     result = ADRESH;
  9058   003310  CFC4 F005          	movff	4036,ADC_Readbits@result	;volatile
  9059   003314  6A06               	clrf	(ADC_Readbits@result+1)^0,c
  9060   003316                     
  9061                           ;../source/adc.c: 106:     result <<=8;
  9062   003316  5005               	movf	ADC_Readbits@result^0,w,c
  9063   003318  6E06               	movwf	(ADC_Readbits@result+1)^0,c
  9064   00331A  6A05               	clrf	ADC_Readbits@result^0,c
  9065   00331C                     
  9066                           ;../source/adc.c: 107:     result |= ADRESL;
  9067   00331C  50C3               	movf	195,w,c	;volatile
  9068   00331E  1205               	iorwf	ADC_Readbits@result^0,f,c
  9069   003320                     
  9070                           ;../source/adc.c: 109:     return result;
  9071   003320  C005  F001         	movff	ADC_Readbits@result,?_ADC_Readbits
  9072   003324  C006  F002         	movff	ADC_Readbits@result+1,?_ADC_Readbits+1
  9073   003328                     l495:
  9074   003328  0012               	return		;funcret
  9075   00332A                     __end_of_ADC_Readbits:
  9076                           	callstack 0
  9077                           
  9078 ;; *************** function _SYS_InterruptHigh *****************
  9079 ;; Defined at:
  9080 ;;		line 87 in file "system.c"
  9081 ;; Parameters:    Size  Location     Type
  9082 ;;		None
  9083 ;; Auto vars:     Size  Location     Type
  9084 ;;		None
  9085 ;; Return value:  Size  Location     Type
  9086 ;;                  1    wreg      void 
  9087 ;; Registers used:
  9088 ;;		None
  9089 ;; Tracked objects:
  9090 ;;		On entry : 0/0
  9091 ;;		On exit  : 0/0
  9092 ;;		Unchanged: 0/0
  9093 ;; Data sizes:     COMRAM   BANK0   BANK1   BANK2   BANK3   BANK4   BANK5   BANK6   BANK7
  9094 ;;      Params:         0       0       0       0       0       0       0       0       0
  9095 ;;      Locals:         0       0       0       0       0       0       0       0       0
  9096 ;;      Temps:          0       0       0       0       0       0       0       0       0
  9097 ;;      Totals:         0       0       0       0       0       0       0       0       0
  9098 ;;Total ram usage:        0 bytes
  9099 ;; Hardware stack levels used: 1
  9100 ;; This function calls:
  9101 ;;		Nothing
  9102 ;; This function is called by:
  9103 ;;		Interrupt level 2
  9104 ;; This function uses a non-reentrant model
  9105 ;;
  9106                           
  9107                           	psect	intcode
  9108   000008                     __pintcode:
  9109                           	callstack 0
  9110   000008                     _SYS_InterruptHigh:
  9111                           	callstack 21
  9112                           
  9113                           ;incstack = 0
  9114   000008  825F               	bsf	int$flags,1,c	;set compiler interrupt flag (level 2)
  9115   00000A  ED66  F01B         	call	int_func,f	;refresh shadow registers
  9116                           
  9117                           	psect	intcode_body
  9118   0036CC                     __pintcode_body:
  9119                           	callstack 21
  9120   0036CC                     int_func:
  9121                           	callstack 21
  9122   0036CC  0006               	pop		; remove dummy address from shadow register refresh
  9123   0036CE  925F               	bcf	int$flags,1,c	;clear compiler interrupt flag (level 2)
  9124   0036D0  0011               	retfie		f
  9125   0036D2                     __end_of_SYS_InterruptHigh:
  9126                           	callstack 0
  9127                           
  9128                           	psect	rparam
  9129   000000                     
  9130                           	psect	temp
  9131   00005F                     btemp:
  9132                           	callstack 0
  9133   00005F                     	ds	1
  9134   000000                     int$flags	set	btemp
  9135   000000                     wtemp8	set	btemp+1
  9136   000000                     ttemp5	set	btemp+1
  9137   000000                     ttemp6	set	btemp+4
  9138   000000                     ttemp7	set	btemp+8
  9139                           
  9140                           	psect	idloc
  9141                           
  9142                           ;Config register IDLOC0 @ 0x200000
  9143                           ;	unspecified, using default values
  9144   200000                     	org	2097152
  9145   200000  FF                 	db	255
  9146                           
  9147                           ;Config register IDLOC1 @ 0x200001
  9148                           ;	unspecified, using default values
  9149   200001                     	org	2097153
  9150   200001  FF                 	db	255
  9151                           
  9152                           ;Config register IDLOC2 @ 0x200002
  9153                           ;	unspecified, using default values
  9154   200002                     	org	2097154
  9155   200002  FF                 	db	255
  9156                           
  9157                           ;Config register IDLOC3 @ 0x200003
  9158                           ;	unspecified, using default values
  9159   200003                     	org	2097155
  9160   200003  FF                 	db	255
  9161                           
  9162                           ;Config register IDLOC4 @ 0x200004
  9163                           ;	unspecified, using default values
  9164   200004                     	org	2097156
  9165   200004  FF                 	db	255
  9166                           
  9167                           ;Config register IDLOC5 @ 0x200005
  9168                           ;	unspecified, using default values
  9169   200005                     	org	2097157
  9170   200005  FF                 	db	255
  9171                           
  9172                           ;Config register IDLOC6 @ 0x200006
  9173                           ;	unspecified, using default values
  9174   200006                     	org	2097158
  9175   200006  FF                 	db	255
  9176                           
  9177                           ;Config register IDLOC7 @ 0x200007
  9178                           ;	unspecified, using default values
  9179   200007                     	org	2097159
  9180   200007  FF                 	db	255
  9181                           
  9182                           	psect	config
  9183                           
  9184                           ;Config register CONFIG1L @ 0x300000
  9185                           ;	PLL Prescaler Selection bits
  9186                           ;	PLLDIV = 5, Divide by 5 (20 MHz oscillator input)
  9187                           ;	System Clock Postscaler Selection bits
  9188                           ;	CPUDIV = OSC1_PLL2, [Primary Oscillator Src: /1][96 MHz PLL Src: /2]
  9189                           ;	USB Clock Selection bit (used in Full-Speed USB mode only; UCFG:FSEN = 1)
  9190                           ;	USBDIV = 2, USB clock source comes from the 96 MHz PLL divided by 2
  9191   300000                     	org	3145728
  9192   300000  24                 	db	36
  9193                           
  9194                           ;Config register CONFIG1H @ 0x300001
  9195                           ;	Oscillator Selection bits
  9196                           ;	FOSC = HSPLL_HS, HS oscillator, PLL enabled (HSPLL)
  9197                           ;	Fail-Safe Clock Monitor Enable bit
  9198                           ;	FCMEN = OFF, Fail-Safe Clock Monitor disabled
  9199                           ;	Internal/External Oscillator Switchover bit
  9200                           ;	IESO = OFF, Oscillator Switchover mode disabled
  9201   300001                     	org	3145729
  9202   300001  0E                 	db	14
  9203                           
  9204                           ;Config register CONFIG2L @ 0x300002
  9205                           ;	Power-up Timer Enable bit
  9206                           ;	PWRT = OFF, PWRT disabled
  9207                           ;	Brown-out Reset Enable bits
  9208                           ;	BOR = ON, Brown-out Reset enabled in hardware only (SBOREN is disabled)
  9209                           ;	Brown-out Reset Voltage bits
  9210                           ;	BORV = 3, Minimum setting 2.05V
  9211                           ;	USB Voltage Regulator Enable bit
  9212                           ;	VREGEN = ON, USB voltage regulator enabled
  9213   300002                     	org	3145730
  9214   300002  3F                 	db	63
  9215                           
  9216                           ;Config register CONFIG2H @ 0x300003
  9217                           ;	Watchdog Timer Enable bit
  9218                           ;	WDT = OFF, WDT disabled (control is placed on the SWDTEN bit)
  9219                           ;	Watchdog Timer Postscale Select bits
  9220                           ;	WDTPS = 32768, 1:32768
  9221   300003                     	org	3145731
  9222   300003  1E                 	db	30
  9223                           
  9224                           ; Padding undefined space
  9225   300004                     	org	3145732
  9226   300004  FF                 	db	255
  9227                           
  9228                           ;Config register CONFIG3H @ 0x300005
  9229                           ;	CCP2 MUX bit
  9230                           ;	CCP2MX = 0x1, unprogrammed default
  9231                           ;	PORTB A/D Enable bit
  9232                           ;	PBADEN = OFF, PORTB<4:0> pins are configured as digital I/O on Reset
  9233                           ;	Low-Power Timer 1 Oscillator Enable bit
  9234                           ;	LPT1OSC = OFF, Timer1 configured for higher power operation
  9235                           ;	MCLR Pin Enable bit
  9236                           ;	MCLRE = ON, MCLR pin enabled; RE3 input pin disabled
  9237   300005                     	org	3145733
  9238   300005  81                 	db	129
  9239                           
  9240                           ;Config register CONFIG4L @ 0x300006
  9241                           ;	Stack Full/Underflow Reset Enable bit
  9242                           ;	STVREN = ON, Stack full/underflow will cause Reset
  9243                           ;	Single-Supply ICSP Enable bit
  9244                           ;	LVP = OFF, Single-Supply ICSP disabled
  9245                           ;	Dedicated In-Circuit Debug/Programming Port (ICPORT) Enable bit
  9246                           ;	ICPRT = 0x0, unprogrammed default
  9247                           ;	Extended Instruction Set Enable bit
  9248                           ;	XINST = OFF, Instruction set extension and Indexed Addressing mode disabled (Legacy mo
      +                          de)
  9249                           ;	Background Debugger Enable bit
  9250                           ;	DEBUG = 0x1, unprogrammed default
  9251   300006                     	org	3145734
  9252   300006  81                 	db	129
  9253                           
  9254                           ; Padding undefined space
  9255   300007                     	org	3145735
  9256   300007  FF                 	db	255
  9257                           
  9258                           ;Config register CONFIG5L @ 0x300008
  9259                           ;	Code Protection bit
  9260                           ;	CP0 = OFF, Block 0 (000800-001FFFh) is not code-protected
  9261                           ;	Code Protection bit
  9262                           ;	CP1 = OFF, Block 1 (002000-003FFFh) is not code-protected
  9263                           ;	Code Protection bit
  9264                           ;	CP2 = 0x1, unprogrammed default
  9265                           ;	Code Protection bit
  9266                           ;	CP3 = 0x1, unprogrammed default
  9267   300008                     	org	3145736
  9268   300008  0F                 	db	15
  9269                           
  9270                           ;Config register CONFIG5H @ 0x300009
  9271                           ;	Boot Block Code Protection bit
  9272                           ;	CPB = OFF, Boot block (000000-0007FFh) is not code-protected
  9273                           ;	Data EEPROM Code Protection bit
  9274                           ;	CPD = 0x1, unprogrammed default
  9275   300009                     	org	3145737
  9276   300009  C0                 	db	192
  9277                           
  9278                           ;Config register CONFIG6L @ 0x30000A
  9279                           ;	Write Protection bit
  9280                           ;	WRT0 = OFF, Block 0 (000800-001FFFh) is not write-protected
  9281                           ;	Write Protection bit
  9282                           ;	WRT1 = OFF, Block 1 (002000-003FFFh) is not write-protected
  9283                           ;	Write Protection bit
  9284                           ;	WRT2 = 0x1, unprogrammed default
  9285                           ;	Write Protection bit
  9286                           ;	WRT3 = 0x1, unprogrammed default
  9287   30000A                     	org	3145738
  9288   30000A  0F                 	db	15
  9289                           
  9290                           ;Config register CONFIG6H @ 0x30000B
  9291                           ;	Configuration Register Write Protection bit
  9292                           ;	WRTC = OFF, Configuration registers (300000-3000FFh) are not write-protected
  9293                           ;	Boot Block Write Protection bit
  9294                           ;	WRTB = OFF, Boot block (000000-0007FFh) is not write-protected
  9295                           ;	Data EEPROM Write Protection bit
  9296                           ;	WRTD = 0x1, unprogrammed default
  9297   30000B                     	org	3145739
  9298   30000B  E0                 	db	224
  9299                           
  9300                           ;Config register CONFIG7L @ 0x30000C
  9301                           ;	Table Read Protection bit
  9302                           ;	EBTR0 = OFF, Block 0 (000800-001FFFh) is not protected from table reads executed in ot
      +                          her blocks
  9303                           ;	Table Read Protection bit
  9304                           ;	EBTR1 = OFF, Block 1 (002000-003FFFh) is not protected from table reads executed in ot
      +                          her blocks
  9305                           ;	Table Read Protection bit
  9306                           ;	EBTR2 = 0x1, unprogrammed default
  9307                           ;	Table Read Protection bit
  9308                           ;	EBTR3 = 0x1, unprogrammed default
  9309   30000C                     	org	3145740
  9310   30000C  0F                 	db	15
  9311                           
  9312                           ;Config register CONFIG7H @ 0x30000D
  9313                           ;	Boot Block Table Read Protection bit
  9314                           ;	EBTRB = OFF, Boot block (000000-0007FFh) is not protected from table reads executed in
      +                           other blocks
  9315   30000D                     	org	3145741
  9316   30000D  40                 	db	64
  9317                           tosu	equ	0xFFF
  9318                           tosh	equ	0xFFE
  9319                           tosl	equ	0xFFD
  9320                           stkptr	equ	0xFFC
  9321                           pclatu	equ	0xFFB
  9322                           pclath	equ	0xFFA
  9323                           pcl	equ	0xFF9
  9324                           tblptru	equ	0xFF8
  9325                           tblptrh	equ	0xFF7
  9326                           tblptrl	equ	0xFF6
  9327                           tablat	equ	0xFF5
  9328                           prodh	equ	0xFF4
  9329                           prodl	equ	0xFF3
  9330                           indf0	equ	0xFEF
  9331                           postinc0	equ	0xFEE
  9332                           postdec0	equ	0xFED
  9333                           preinc0	equ	0xFEC
  9334                           plusw0	equ	0xFEB
  9335                           fsr0h	equ	0xFEA
  9336                           fsr0l	equ	0xFE9
  9337                           wreg	equ	0xFE8
  9338                           indf1	equ	0xFE7
  9339                           postinc1	equ	0xFE6
  9340                           postdec1	equ	0xFE5
  9341                           preinc1	equ	0xFE4
  9342                           plusw1	equ	0xFE3
  9343                           fsr1h	equ	0xFE2
  9344                           fsr1l	equ	0xFE1
  9345                           bsr	equ	0xFE0
  9346                           indf2	equ	0xFDF
  9347                           postinc2	equ	0xFDE
  9348                           postdec2	equ	0xFDD
  9349                           preinc2	equ	0xFDC
  9350                           plusw2	equ	0xFDB
  9351                           fsr2h	equ	0xFDA
  9352                           fsr2l	equ	0xFD9
  9353                           status	equ	0xFD8

Data Sizes:
    Strings     0
    Constant    165
    Data        0
    BSS         57
    Persistent  0
    Stack       0

Auto Spaces:
    Space          Size  Autos    Used
    COMRAM           94     86      94
    BANK0           160      0      49
    BANK1           256      0       0
    BANK2           256      0       0
    BANK3           256      0       0
    BANK4           208      0       0
    BANK5           253      0       0
    BANK6           256      0       0
    BANK7           256      0       0

Pointer List with Targets:

    USER_USB_CALLBACK_EVENT_HANDLER@pdata	PTR void  size(2) Largest target is 2047
		 -> RAM(DATA[2047]), USTATcopy(BANK0[1]), USBActiveConfiguration(BANK0[1]), NULL(NULL[0]), 
		 -> BDT(BIGRAMl[32]), 

    memset@dest	PTR void  size(2) Largest target is 32
		 -> USBAlternateInterface(BANK0[1]), BDT(BIGRAMl[32]), UEP1(BITBIGSFRlhhl[1]), 

    memset@s	PTR unsigned char  size(2) Largest target is 32
		 -> USBAlternateInterface(BANK0[1]), BDT(BIGRAMl[32]), UEP1(BITBIGSFRlhhl[1]), 

    memcpy@d1	PTR void  size(2) Largest target is 8
		 -> SetupPkt(BIGRAMhl[8]), 

    memcpy@d	PTR unsigned char  size(2) Largest target is 8
		 -> SetupPkt(BIGRAMhl[8]), 

    memcpy@s1	PTR const void  size(2) Largest target is 2047
		 -> CtrlTrfData(BIGRAMhl[8]), RAM(DATA[2047]), SetupPkt(BIGRAMhl[8]), 

    memcpy@s	PTR const unsigned char  size(2) Largest target is 2047
		 -> CtrlTrfData(BIGRAMhl[8]), RAM(DATA[2047]), SetupPkt(BIGRAMhl[8]), 

    lastTransmission	PTR void  size(2) Largest target is 2047
		 -> RAM(DATA[2047]), NULL(NULL[0]), BDT(BIGRAMl[32]), 

    USBStdFeatureReqHandler@pUEP	PTR unsigned char  size(2) Largest target is 1
		 -> UEP0(ABS[1]), 

    USBStdFeatureReqHandler@p	PTR struct __BDT size(2) Largest target is 2047
		 -> RAM(DATA[2047]), NULL(NULL[0]), BDT(BIGRAMl[32]), 

    sp__memcpy	PTR void  size(2) Largest target is 8
		 -> SetupPkt(BIGRAMhl[8]), 

    USBStdGetStatusHandler@p	PTR struct __BDT size(2) Largest target is 2047
		 -> RAM(DATA[2047]), NULL(NULL[0]), BDT(BIGRAMl[32]), 

    USB_SD_Ptr	const PTR const unsigned char [3] size(2) Largest target is 40
		 -> sd002(CODE[40]), sd001(CODE[36]), sd000(CODE[4]), 

    USB_CD_Ptr	const PTR const unsigned char [1] size(2) Largest target is 34
		 -> configDescriptor1(CODE[34]), 

    pDst	PTR unsigned char  size(2) Largest target is 8
		 -> CtrlTrfData(BIGRAMhl[8]), NULL(NULL[0]), 

    USBConfigureEndpoint@handle	PTR volatile struct __BDT size(2) Largest target is 32
		 -> BDT(BIGRAMl[32]), 

    pBDTEntryEP0OutCurrent	PTR volatile struct __BDT size(2) Largest target is 32
		 -> NULL(NULL[0]), BDT(BIGRAMl[32]), 

    pBDTEntryEP0OutNext	PTR volatile struct __BDT size(2) Largest target is 2047
		 -> RAM(DATA[2047]), NULL(NULL[0]), BDT(BIGRAMl[32]), 

    USBTransferOnePacket@data	PTR unsigned char  size(2) Largest target is 3
		 -> joystick_input(BIGRAMhl[3]), 

    sp__USBTransferOnePacket	PTR void  size(2) Largest target is 2047
		 -> RAM(DATA[2047]), NULL(NULL[0]), BDT(BIGRAMl[32]), 

    USBTransferOnePacket@handle	PTR volatile struct __BDT size(2) Largest target is 2047
		 -> RAM(DATA[2047]), NULL(NULL[0]), BDT(BIGRAMl[32]), 

    USBEnableEndpoint@p	PTR unsigned char  size(2) Largest target is 1
		 -> UEP0(ABS[1]), 

    pBDTEntryOut	PTR volatile struct __BDT[2] size(2) Largest target is 2047
		 -> RAM(DATA[2047]), NULL(NULL[0]), BDT(BIGRAMl[32]), 

    pBDTEntryIn	PTR volatile struct __BDT[2] size(2) Largest target is 2047
		 -> RAM(DATA[2047]), NULL(NULL[0]), BDT(BIGRAMl[32]), 

    S105$pFunc	PTR FTN()void  size(2) Largest target is 0

    outPipes.pFunc	PTR FTN()void  size(2) Largest target is 0

    S95$wRam	PTR unsigned short  size(2) Largest target is 0

    outPipes.pDst.wRam	PTR unsigned short  size(2) Largest target is 0

    S95$bRam	PTR unsigned char  size(2) Largest target is 0

    outPipes.pDst.bRam	PTR unsigned char  size(2) Largest target is 0

    S71$wRom	PTR const unsigned short  size(2) Largest target is 0

    inPipes.pSrc.wRom	PTR const unsigned short  size(2) Largest target is 0

    S71$wRam	PTR unsigned short  size(2) Largest target is 0

    inPipes.pSrc.wRam	PTR unsigned short  size(2) Largest target is 0

    S71$bRom	PTR const unsigned char  size(2) Largest target is 0

    inPipes.pSrc.bRom	PTR const unsigned char  size(2) Largest target is 0

    S71$bRam	PTR unsigned char  size(2) Largest target is 0

    inPipes.pSrc.bRam	PTR unsigned char  size(2) Largest target is 0

    sp__memset	PTR void  size(2) Largest target is 32
		 -> USBAlternateInterface(BANK0[1]), BDT(BIGRAMl[32]), UEP1(BITBIGSFRlhhl[1]), 


Critical Paths under _main in COMRAM

    _main->_APP_DeviceJoystickTasks
    _USBDeviceTasks->_USBCtrlEPService
    _USBWakeFromSuspend->_USER_USB_CALLBACK_EVENT_HANDLER
    _USBSuspend->_USER_USB_CALLBACK_EVENT_HANDLER
    _USBDeviceInit->_memset
    _USBCtrlTrfSetupHandler->_USBCheckStdRequest
    _USBCtrlEPAllowDataStage->_USBCtrlTrfTxService
    _USBCheckStdRequest->_USBStdFeatureReqHandler
    _USBStdSetCfgHandler->_USER_USB_CALLBACK_EVENT_HANDLER
    _USBStdFeatureReqHandler->_USER_USB_CALLBACK_EVENT_HANDLER
    _SYSTEM_Initialize->_ADC_Enable
    _APP_DeviceJoystickInitialize->_USBEnableEndpoint
    _USBEnableEndpoint->_USBConfigureEndpoint
    _USBCtrlTrfOutHandler->_USBCtrlTrfRxService
    _USBCtrlTrfInHandler->_USBCtrlTrfTxService
    _APP_DeviceJoystickTasks->___flge
    ___xxtofl->_ADC_Readbits
    ___fltol->___flsub
    ___flsub->___fladd
    ___fladd->___flmul
    ___flmul->___xxtofl
    ___flge->___flsub

Critical Paths under _SYS_InterruptHigh in COMRAM

    None.

Critical Paths under _main in BANK0

    None.

Critical Paths under _SYS_InterruptHigh in BANK0

    None.

Critical Paths under _main in BANK1

    None.

Critical Paths under _SYS_InterruptHigh in BANK1

    None.

Critical Paths under _main in BANK2

    None.

Critical Paths under _SYS_InterruptHigh in BANK2

    None.

Critical Paths under _main in BANK3

    None.

Critical Paths under _SYS_InterruptHigh in BANK3

    None.

Critical Paths under _main in BANK4

    None.

Critical Paths under _SYS_InterruptHigh in BANK4

    None.

Critical Paths under _main in BANK5

    None.

Critical Paths under _SYS_InterruptHigh in BANK5

    None.

Critical Paths under _main in BANK6

    None.

Critical Paths under _SYS_InterruptHigh in BANK6

    None.

Critical Paths under _main in BANK7

    None.

Critical Paths under _SYS_InterruptHigh in BANK7

    None.

Call Graph Tables:

 ---------------------------------------------------------------------------------
 (Depth) Function   	        Calls       Base Space   Used Autos Params    Refs
 ---------------------------------------------------------------------------------
 (0) _main                                                 0     0      0   44659
            _APP_DeviceJoystickTasks
                  _SYSTEM_Initialize
                      _USBDeviceInit
                     _USBDeviceTasks
 ---------------------------------------------------------------------------------
 (1) _USBDeviceTasks                                       1     1      0   28974
                                             32 COMRAM     1     1      0
          _USBCtrlEPAllowStatusStage
                   _USBCtrlEPService
                      _USBDeviceInit
      _USBIncrement1msInternalTimers
                    _USBStallHandler
                         _USBSuspend
                 _USBWakeFromSuspend
    _USER_USB_CALLBACK_EVENT_HANDLER
 ---------------------------------------------------------------------------------
 (2) _USBWakeFromSuspend                                   0     0      0    3402
    _USER_USB_CALLBACK_EVENT_HANDLER
 ---------------------------------------------------------------------------------
 (2) _USBSuspend                                           0     0      0    3402
    _USER_USB_CALLBACK_EVENT_HANDLER
 ---------------------------------------------------------------------------------
 (2) _USBStallHandler                                      1     1      0       0
                                              0 COMRAM     1     1      0
 ---------------------------------------------------------------------------------
 (2) _USBIncrement1msInternalTimers                        0     0      0       0
 ---------------------------------------------------------------------------------
 (2) _USBDeviceInit                                        1     1      0    1989
                                             12 COMRAM     1     1      0
                             _memset
 ---------------------------------------------------------------------------------
 (2) _USBCtrlEPService                                     1     1      0   16733
                                             31 COMRAM     1     1      0
                _USBCtrlTrfInHandler
               _USBCtrlTrfOutHandler
             _USBCtrlTrfSetupHandler
                             _memcpy
 ---------------------------------------------------------------------------------
 (3) _memcpy                                              11     5      6     410
                                              0 COMRAM    11     5      6
 ---------------------------------------------------------------------------------
 (3) _USBCtrlTrfSetupHandler                               0     0      0   16094
                 _USBCheckStdRequest
           _USBCtrlEPServiceComplete
    _USER_USB_CALLBACK_EVENT_HANDLER
 ---------------------------------------------------------------------------------
 (4) _USBCtrlEPServiceComplete                             0     0      0      92
            _USBCtrlEPAllowDataStage
          _USBCtrlEPAllowStatusStage
 ---------------------------------------------------------------------------------
 (5) _USBCtrlEPAllowDataStage                              0     0      0      92
                _USBCtrlTrfTxService
 ---------------------------------------------------------------------------------
 (4) _USBCheckStdRequest                                   2     2      0   12600
                                             29 COMRAM     2     2      0
            _USBStdFeatureReqHandler
                _USBStdGetDscHandler
             _USBStdGetStatusHandler
                _USBStdSetCfgHandler
    _USER_USB_CALLBACK_EVENT_HANDLER
 ---------------------------------------------------------------------------------
 (5) _USBStdSetCfgHandler                                  1     1      0    5279
                                             22 COMRAM     1     1      0
    _USER_USB_CALLBACK_EVENT_HANDLER
                             _memset
 ---------------------------------------------------------------------------------
 (3) _memset                                              12     6      6    1787
                                              0 COMRAM    12     6      6
 ---------------------------------------------------------------------------------
 (5) _USBStdGetStatusHandler                               4     4      0      46
                                              0 COMRAM     4     4      0
 ---------------------------------------------------------------------------------
 (5) _USBStdGetDscHandler                                  2     2      0       0
                                              0 COMRAM     2     2      0
 ---------------------------------------------------------------------------------
 (5) _USBStdFeatureReqHandler                              7     7      0    3873
                                             22 COMRAM     7     7      0
    _USER_USB_CALLBACK_EVENT_HANDLER
 ---------------------------------------------------------------------------------
 (2) _USER_USB_CALLBACK_EVENT_HANDLER                      8     2      6    3402
                                             14 COMRAM     8     2      6
       _APP_DeviceJoystickInitialize
                  _SYSTEM_Initialize
                 _USBCheckHIDRequest
 ---------------------------------------------------------------------------------
 (3) _USBCheckHIDRequest                                   2     2      0       0
                                              0 COMRAM     2     2      0
 ---------------------------------------------------------------------------------
 (3) _SYSTEM_Initialize                                    3     3      0      66
                                              3 COMRAM     3     3      0
                         _ADC_Enable
               _ADC_SetConfiguration
 ---------------------------------------------------------------------------------
 (4) _ADC_SetConfiguration                                 1     1      0      22
                                              0 COMRAM     1     1      0
 ---------------------------------------------------------------------------------
 (4) _ADC_Enable                                           3     3      0      22
                                              0 COMRAM     3     3      0
 ---------------------------------------------------------------------------------
 (3) _APP_DeviceJoystickInitialize                         0     0      0     644
                  _USBEnableEndpoint
 ---------------------------------------------------------------------------------
 (4) _USBEnableEndpoint                                    4     3      1     644
                                             10 COMRAM     4     3      1
               _USBConfigureEndpoint
 ---------------------------------------------------------------------------------
 (5) _USBConfigureEndpoint                                10     9      1     400
                                              0 COMRAM    10     9      1
 ---------------------------------------------------------------------------------
 (3) _USBCtrlTrfOutHandler                                 0     0      0     114
                _USBCtrlTrfRxService
 ---------------------------------------------------------------------------------
 (4) _USBCtrlTrfRxService                                  2     2      0     114
                                              0 COMRAM     2     2      0
          _USBCtrlEPAllowStatusStage
 ---------------------------------------------------------------------------------
 (5) _USBCtrlEPAllowStatusStage                            0     0      0       0
 ---------------------------------------------------------------------------------
 (3) _USBCtrlTrfInHandler                                  1     1      0     115
                                              1 COMRAM     1     1      0
                _USBCtrlTrfTxService
 ---------------------------------------------------------------------------------
 (6) _USBCtrlTrfTxService                                  1     1      0      92
                                              0 COMRAM     1     1      0
 ---------------------------------------------------------------------------------
 (1) _APP_DeviceJoystickTasks                              4     4      0   13630
                                             82 COMRAM     4     4      0
                       _ADC_Readbits
               _USBTransferOnePacket
                            ___fladd
                             ___flge
                            ___flmul
                            ___flsub
                            ___fltol
                           ___xxtofl
 ---------------------------------------------------------------------------------
 (2) ___xxtofl                                            14    10      4     945
                                              7 COMRAM    14    10      4
                       _ADC_Readbits (ARG)
 ---------------------------------------------------------------------------------
 (2) ___fltol                                             10     6      4     496
                                             70 COMRAM    10     6      4
                       _ADC_Readbits (ARG)
                            ___fladd (ARG)
                            ___flmul (ARG)
                            ___flsub (ARG)
                           ___xxtofl (ARG)
 ---------------------------------------------------------------------------------
 (2) ___flsub                                              8     0      8    4113
                                             62 COMRAM     8     0      8
                       _ADC_Readbits (ARG)
                            ___fladd
                            ___flmul (ARG)
                           ___xxtofl (ARG)
 ---------------------------------------------------------------------------------
 (3) ___fladd                                             16     8      8    3560
                                             46 COMRAM    16     8      8
                       _ADC_Readbits (ARG)
                            ___flmul (ARG)
                           ___xxtofl (ARG)
 ---------------------------------------------------------------------------------
 (2) ___flmul                                             25    17      8    2864
                                             21 COMRAM    25    17      8
                       _ADC_Readbits (ARG)
                           ___xxtofl (ARG)
 ---------------------------------------------------------------------------------
 (2) ___flge                                              12     4      8     894
                                             70 COMRAM    12     4      8
                       _ADC_Readbits (ARG)
                            ___fladd (ARG)
                            ___flmul (ARG)
                            ___flsub (ARG)
                           ___xxtofl (ARG)
 ---------------------------------------------------------------------------------
 (2) _USBTransferOnePacket                                11     7      4     643
                                              0 COMRAM    11     7      4
 ---------------------------------------------------------------------------------
 (2) _ADC_Readbits                                         7     5      2      69
                                              0 COMRAM     7     5      2
 ---------------------------------------------------------------------------------
 Estimated maximum stack depth 6
 ---------------------------------------------------------------------------------
 (Depth) Function   	        Calls       Base Space   Used Autos Params    Refs
 ---------------------------------------------------------------------------------
 (10) _SYS_InterruptHigh                                   0     0      0       0
 ---------------------------------------------------------------------------------
 Estimated maximum stack depth 10
 ---------------------------------------------------------------------------------

 Call Graph Graphs:

 _main (ROOT)
   _APP_DeviceJoystickTasks
     _ADC_Readbits
     _USBTransferOnePacket
     ___fladd
       _ADC_Readbits (ARG)
       ___flmul (ARG)
         _ADC_Readbits (ARG)
         ___xxtofl (ARG)
           _ADC_Readbits (ARG)
       ___xxtofl (ARG)
     ___flge
       _ADC_Readbits (ARG)
       ___fladd (ARG)
       ___flmul (ARG)
       ___flsub (ARG)
         _ADC_Readbits (ARG)
         ___fladd (ARG)
         ___flmul (ARG)
         ___xxtofl (ARG)
       ___xxtofl (ARG)
     ___flmul
     ___flsub
     ___fltol
       _ADC_Readbits (ARG)
       ___fladd (ARG)
       ___flmul (ARG)
       ___flsub (ARG)
       ___xxtofl (ARG)
     ___xxtofl
   _SYSTEM_Initialize
     _ADC_Enable
     _ADC_SetConfiguration
   _USBDeviceInit
     _memset
   _USBDeviceTasks
     _USBCtrlEPAllowStatusStage
     _USBCtrlEPService
       _USBCtrlTrfInHandler
         _USBCtrlTrfTxService
       _USBCtrlTrfOutHandler
         _USBCtrlTrfRxService
           _USBCtrlEPAllowStatusStage
       _USBCtrlTrfSetupHandler
         _USBCheckStdRequest
           _USBStdFeatureReqHandler
             _USER_USB_CALLBACK_EVENT_HANDLER
               _APP_DeviceJoystickInitialize
                 _USBEnableEndpoint
                   _USBConfigureEndpoint
               _SYSTEM_Initialize
               _USBCheckHIDRequest
           _USBStdGetDscHandler
           _USBStdGetStatusHandler
           _USBStdSetCfgHandler
             _USER_USB_CALLBACK_EVENT_HANDLER
             _memset
           _USER_USB_CALLBACK_EVENT_HANDLER
         _USBCtrlEPServiceComplete
           _USBCtrlEPAllowDataStage
             _USBCtrlTrfTxService
           _USBCtrlEPAllowStatusStage
         _USER_USB_CALLBACK_EVENT_HANDLER
       _memcpy
     _USBDeviceInit
     _USBIncrement1msInternalTimers
     _USBStallHandler
     _USBSuspend
       _USER_USB_CALLBACK_EVENT_HANDLER
     _USBWakeFromSuspend
       _USER_USB_CALLBACK_EVENT_HANDLER
     _USER_USB_CALLBACK_EVENT_HANDLER

 _SYS_InterruptHigh (ROOT)

 Address spaces:
Name               Size   Autos  Total    Cost      Usage
BIGRAMl            3FF      0       0      28        0.0%
BIGRAMhh           2FD      0       0      26        0.0%
EEDATA             100      0       0       0        0.0%
BITBANK7           100      0       0      18        0.0%
BANK7              100      0       0      19        0.0%
BITBANK6           100      0       0      16        0.0%
BANK6              100      0       0      17        0.0%
BITBANK3           100      0       0      10        0.0%
BANK3              100      0       0      11        0.0%
BITBANK2           100      0       0       8        0.0%
BANK2              100      0       0       9        0.0%
BITBANK1           100      0       0       6        0.0%
BANK1              100      0       0       7        0.0%
BITBANK5            FD      0       0      14        0.0%
BANK5               FD      0       0      15        0.0%
BIGRAMhl            D0      0       0      27        0.0%
BITBANK4            D0      0       0      12        0.0%
BANK4               D0      0       0      13        0.0%
BITBANK0            A0      0       0       4        0.0%
BANK0               A0      0      31       5       30.6%
BITCOMRAM           5E      0       0       0        0.0%
COMRAM              5E     56      5E       1      100.0%
BITBIGSFRhhh        3B      0       0      20        0.0%
BITBIGSFRlhhl       20      0       0      23        0.0%
BITBIGSFRhl         1E      0       0      21        0.0%
BITBIGSFRlhhh        D      0       0      22        0.0%
BITBIGSFRlll         8      0       0      24        0.0%
BIGSFR               0      0       0     200        0.0%
BITSFR               0      0       0     200        0.0%
SFR                  0      0       0     200        0.0%
STACK                0      0       0       2        0.0%
NULL                 0      0       0       0        0.0%
ABS                  0      0      8F      25        0.0%
DATA                 0      0      8F       3        0.0%
CODE                 0      0       0       0        0.0%


Microchip Technology PIC18 Macro Assembler V2.40 build 20220703182018 
Symbol Table                                                                                   Sun Apr 02 23:23:19 2023

                             _USB_SD_Ptr 0801                            _USBDeviceInit 220C  
                     _USBCheckHIDRequest 1F3E     USER_USB_CALLBACK_EVENT_HANDLER@event 000F  
   USER_USB_CALLBACK_EVENT_HANDLER@pdata 0011                                      l210 3180  
                                    l205 30D0                                      l213 23F4  
                                    l301 3606                                      l134 2270  
                                    l223 249E                                      l143 1C12  
                                    l151 1A4A                                      l312 32AC  
                                    l160 1B6A                                      l161 1C10  
                                    l145 19D2                                      l162 1B7C  
                                    l146 19D0                                      l251 25E2  
                                    l139 2354                                      l180 2720  
                                    l332 2B76                                      l333 2B7C  
                                    l325 2B68                                      l309 301E  
                                    l238 2A70                                      l174 353C  
                                    l502 34AC              __end_of_USBStdGetDscHandler 220C  
                                    l319 339E                                      l503 34F0  
                                    l511 36B4                                      l504 34B2  
                                    l272 220A                                      l280 274C  
                                    l249 25CC                                      l505 34B8  
                                    l281 2754                                      l337 2960  
                                    l354 1692                                      l258 2F64  
                                    l290 33FC                                      l531 0D7E  
                                    l195 2E78                                      l419 20AA  
                                    l339 2860                                      l532 1218  
                                    l276 2730                                      l348 28B4  
                                    l292 33FE                                      l373 1906  
                                    l365 1858                                      l382 363A  
                                    l199 2E78                                      l287 2842  
                                    l279 2824                                      l295 3668  
                                    l528 36CA                                      l457 321C  
                                    l377 19A4                                      l538 0FE2  
                                    l573 35A8                                      l494 32B4  
                                    l495 3328                                      l496 3302  
                                    l498 3310                                      _BDT 000400  
                                    l589 3454                                      l862 2D40  
                                    l867 2D86                                      l894 2C82  
                                    _UIE 000F69                                      _UIR 000F68  
                             _USBSuspend 363C                     USBStdSetCfgHandler@i 0017  
                                    prod 000FF3                                      wreg 000FE8  
                         _USBDeviceTasks 19A6                      ?_USBCheckHIDRequest 0001  
                         _USBDeviceState 008B                             ___flmul@aexp 0027  
                           ___flmul@bexp 0028                             ___flmul@sign 0022  
                           ___flmul@temp 002D                             ___flmul@prod 0029  
                  ??_USBCtrlTrfRxService 0001                 USBEnableEndpoint@options 000B  
                           ___fltol@exp1 0050                                     l1211 12DE  
                                   l1220 154C                                     l1221 153A  
                                   l1125 0A96                                     l1142 0BB0  
                                   l1134 0D66                                     l1126 0A84  
                                   l1215 1642                                     l1151 0C80  
                                   l1127 0A4A                                     l1152 0C6E  
                                   l1218 14D4                                     l1228 1604  
                                   l1252 1C6A                                     l1167 3582  
                                   l1255 1DC6                                     l4000 0B04  
                                   l3200 34BE                                     l4010 0B4A  
                                   l4002 0B12                                     l1266 1D5E  
                                   l3210 36A6                                     l1274 34A4  
                                   l1259 1D02                                     l4020 0BC6  
                                   l4012 0B7E                                     l4004 0B14  
                                   l3212 36AE                                     l4030 0C02  
                                   l4022 0BD6                                     l4014 0B80  
                                   l4006 0B1E                                     l3302 36B6  
                                   l3214 36B2                                     l3206 3692  
                                   l3230 1F82                                     l3222 1F58  
                                   l1278 1F3C                                     l3310 1DE6  
                                   l4110 2272                                     l4040 0C2E  
                                   l4032 0C04                                     l4016 0B90  
                                   l4008 0B24                                     l3400 2A5E  
                                   l3304 36C0                                     l3208 36A2  
                                   l3240 1FB6                                     l3232 1F94  
                                   l3312 1DF2                                     l4120 2282  
                                   l4112 2276                                     l4104 2246  
                                   l4200 33AE                                     l4050 0C66  
                                   l4034 0C12                                     l4026 0BEA  
                                   l4042 0C30                                     l4018 0BA0  
                                   l3402 2A60                                     l3410 2DB2  
                                   l3170 30DC                                     l3234 1F9C  
                                   l3226 1F6C                                     l3218 1F3E  
                                   l3330 1F14                                     l3322 1E9A  
                                   l3306 1DC8                                     l4210 2F66  
                                   l4122 2286                                     l4114 2278  
                                   l4106 225E                                     l4202 33C8  
                                   l4300 127C                                     l4060 0CE4  
                                   l4036 0C1A                                     l4028 0BF4  
                                   l4044 0C3E                                     l3420 2E00  
                                   l3412 2DC4                                     l3404 2D88  
                                   l3180 3168                                     l3172 311A  
                                   l3260 2030                                     l3252 2010  
                                   l3236 1FA4                                     l3340 3186  
                                   l3500 20C0                                     l3332 1F20  
                                   l3324 1EC6                                     l3316 1E28  
                                   l4220 2FB0                                     l4212 2F6C  
                                   l4140 2306                                     l4132 22B4  
                                   l4124 228E                                     l4116 227A  
                                   l4108 2260                                     l4204 33E2  
             USBConfigureEndpoint@handle 0009                                     l4310 12A8  
                                   l4302 1282                                     l4070 0D2A  
                                   l4054 0C90                                     l4062 0CE6  
                                   l4046 0C42                                     l4038 0C1E  
                                   l3430 2E40                                     l3422 2E04  
                                   l3414 2DD4                                     l3406 2D9A  
                                   l3182 3172                                     l3174 3124  
                                   l3190 351A                                     l3270 2058  
                                   l3262 2038                                     l3254 201A  
                                   l3238 1FAC                                     l3246 1FC2  
                                   l3342 3190                                     l3350 31AA  
                                   l3510 210C                                     l3502 20CA  
                                   l3334 1F26                                     l3318 1E80  
                                   l4230 301A                                     l4222 2FCE  
                                   l4214 2F82                                     l4150 2330  
                                   l4142 2316                                     l4134 22E4  
                                   l4126 229C                                     l4118 227C  
                                   l4206 33EE                                     l4240 263C  
                                   l4232 25E6                                     l4400 1608  
                                   l4320 12FE                                     l4312 12B8  
                                   l4304 1288                                     l4080 0D54  
                                   l4072 0D38                                     l4064 0CF6  
                                   l4056 0C9C                                     l4048 0C50  
                                   l3360 2962                                     l3432 2E44  
                                   l3424 2E14                                     l3416 2DE0  
                                   l3408 2DAE                                     l3176 3134  
                                   l3168 30D4                                     l3192 3524  
                                   l3184 34F4                                     l3264 2042  
                                   l3256 2022                                     l3248 1FF4  
                                   l3344 319A                                     l3600 1778  
                                   l3520 21A8                                     l3512 213E  
                                   l3504 20D4                                     l3336 1F2A  
                                   l3328 1EE0                                     l3440 302A  
                                   l4224 2FF6                                     l4216 2F9E  
                                   l4160 2350                                     l4152 2334  
                                   l4144 231E                                     l4136 22F4  
                                   l4208 33FA                                     l4250 2684  
                                   l4234 25F6                                     l4410 1632  
                                   l4402 1618                                     l4330 133E  
                                   l4314 12C8                                     l4306 1296  
                                   l4082 0D56                                     l4074 0D3E  
                                   l4066 0D06                                     l4058 0CAA  
                                   l3370 299A                                     l3362 2966  
                                   l3434 2E54                                     l3426 2E28  
                                   l3418 2DF0                                     l3178 3150  
                                   l3194 3530                                     l3186 3502  
                                   l3290 3412                                     l3266 204A  
                                   l3258 202A                                     l3274 2060  
                                   l3346 31A2                                     l3338 3182  
                                   l3610 17D0                                     l3602 1786  
                                   l3514 2172                                     l3506 20E0  
                                   l3450 3098                                     l3442 303C  
                                   l4226 2FFE                                     l4218 2FA6  
                                   l4154 2336                                     l4146 2322  
                                   l4138 2304                                     l4090 221A  
                                   l4170 35F0                                     l4162 35C6  
                                   l4252 2690                                     l4244 2648  
                                   l4236 2612                                     l4420 2C84  
                                   l4404 1626                                     l4340 1388  
                                   l4332 134A                                     l4324 1312  
                                   l4316 12CE                                     l4308 1298  
                                   l4076 0D40                                     l4068 0D26  
                                   l4500 1CAC                                     l3380 29CE  
                                   l3372 29AA                                     l3364 297E  
                                   l3436 2E68                                     l3428 2E34  
                                   l3188 350C                                     l3196 34A8  
                                   l3292 3418                                     l3284 3402  
                                   l3268 2052                                     l3620 1840  
                                   l3612 17EE                                     l3604 1796  
                                   l3516 217C                                     l3508 20F0  
                                   l3540 2744                                     l3460 2E7A  
                                   l3452 30A0                                     l3444 3060  
                                   l3700 248A                                     l4228 3006  
                                   l4156 233C                                     l4148 232C  
                                   l4092 2236                                     l4180 3640  
                                   l4172 35F2                                     l4164 35CC  
                                   l4270 3300                                     l4262 32B0  
                                   l4254 26A0                                     l4246 266C  
                                   l4238 262A                                     l4430 2D0E  
                                   l4422 2CB2                                     l4406 1628  
                                   l4350 13DA                                     l4342 1394  
                                   l4334 1362                                     l4326 131E  
                                   l4318 12EE                                     l4078 0D46  
                                   l4414 353E                                     l4510 1D34  
                                   l4502 1CB8                                     l3390 2A14  
                                   l3366 2982                                     l3374 29AE  
                                   l3710 24CC                                     l3286 3406  
                                   l3630 18AC                                     l3614 1800  
                                   l3622 1874                                     l3606 17A0  
                                   l3518 218C                                     l3550 27BC  
                                   l3542 2758                                     l3534 2722  
                                   l3462 2E7E                                     l3454 30A4  
                                   l3446 306C                                     l3438 3020  
                                   l4158 234C                                     l4094 223A  
                                   l4086 220C                                     l4190 3616  
                                   l4182 3642                                     l4174 3600  
                                   l4166 35E8                                     l4272 3316  
                                   l4256 26DE                                     l4248 2678  
                                   l4432 2D20                                     l4424 2CC2  
                                   l4408 162E                                     l4360 1458  
                                   l4352 13EA                                     l4344 13A4  
                                   l4336 136E                                     l4328 1328  
                                   l4416 354E                                     l4520 1D72  
                                   l4512 1D40                                     l4504 1CEA  
                                   l3384 29E0                                     l3392 2A16  
                                   l3376 29B6                                     l3368 2992  
                                   l3720 24FA                                     l3712 24D4  
                                   l3704 24A0                                     l3288 340C  
                                   l3296 3422                                     l3640 1916  
                                   l3632 18CC                                     l3624 187E  
                                   l3616 1816                                     l3608 17AE  
                                   l3528 21D6                                     l3560 2834  
                                   l3552 27D2                                     l3544 276E  
                                   l3480 2F0A                                     l3472 2EBC  
                                   l3464 2EB6                                     l3456 30B8  
                                   l3448 307C                                     l3800 3486  
                                   l4096 223E                                     l4088 220E  
                                   l4192 3626                                     l4184 3648  
                                   l4176 363C                                     l4168 35EA  
                                   l4600 1AF8                                     l4274 331C  
                                   l4266 32BC                                     l4258 2718  
                                   l4434 2D2E                                     l4426 2CF0  
                                   l4370 14D2                                     l4362 148E  
                                   l4354 1406                                     l4346 13B0  
                                   l4338 137A                                     l4290 1236  
                                   l4450 2BD2                                     l4442 2B7E  
                                   l4522 1D96                                     l4514 1D4E  
                                   l4506 1CEC                                     l3394 2A2A  
                                   l3386 2A0A                                     l3378 29C6  
                                   l3730 2564                                     l3722 250C  
                                   l3714 24DC                                     l3706 24B0  
                                   l3650 1982                                     l3642 1932  
                                   l3634 18D8                                     l3626 1894  
                                   l3618 1824                                     l3570 1644  
                                   l3562 283C                                     l3554 27E8  
                                   l3546 277C                                     l3538 2734  
                                   l3490 2F28                                     l3482 2F0C  
                                   l3474 2EDC                                     l3466 2EB8  
                                   l3458 30C4                                     l3810 324E  
                                   l3802 348A                                     l4098 2242  
                                   l4194 3628                                     l4186 364C  
                                   l4178 363E                                     l4610 1B34  
                                   l4602 1B06                                     l4276 3320  
                                   l4268 32EE                                     l4436 2D7E  
                                   l4428 2D00                                     l4380 1532  
                                   l4372 14E4                                     l4364 149C  
                                   l4356 1412                                     l4348 13C0  
                                   l4292 1246                                     l4284 121A  
                                   l3900 08FE                                     l4452 2BD4  
                                   l4444 2B94                                     l4524 1DA6  
                                   l4516 1D6C                                     l4508 1CF8  
                                   l3396 2A54                                     l3388 2A10  
                                   l3740 25C0                                     l3732 2574  
                                   l3724 251E                                     l3716 24F4  
                                   l3708 24C8                                     l3652 1998  
                                   l3644 194A                                     l3636 18E2  
                                   l3628 18A0                                     l3580 168C  
                                   l3572 1656                                     l3564 283E  
                                   l3548 279E                                     l3492 2F3A  
                                   l3484 2F14                                     l3476 2EDE  
                                   l3660 238A                                     l3820 327C  
                                   l3812 325A                                     l3804 321E  
                                   l4196 3638                                     l4188 3608  
                                   l4612 1B4E                                     l4604 1B14  
                                   l4540 19A6                                     l4532 19A6  
                                   l4438 2D84                                     l4390 15A0  
                                   l4374 14F2                                     l4366 14BA  
                                   l4358 142E                                     l4294 1256  
                                   l4286 1226                                     l3910 092E  
                                   l3902 090E                                     l4454 2BE4  
                                   l4526 1DB4                                     l4518 1D6E  
                                   l3398 2A5A                                     l3734 2580  
                                   l3726 2542                                     l3718 24F8  
                                   l3830 332A                                     l3646 1956  
                                   l3638 18F0                                     l3590 16F6  
                                   l3582 16A4                                     l3574 166A  
                                   l3558 27F0                                     l3494 2F42  
                                   l3486 2F1C                                     l3478 2EEE  
                                   l3670 23CC                                     l3662 238E  
                                   l3654 2356                                     l3822 3280  
                                   l3814 3264                                     l3806 3238  
                                   l4198 33A0                                     l4630 1B9C  
                                   l4614 1B52                                     l4606 1B18  
                                   l4550 1A04                                     l4542 19B8  
                                   l4384 155C                                     l4392 15A4  
                                   l4376 14F6                                     l4368 14C4  
                                   l4296 1266                                     l4288 1234  
                                   l3920 096E                                     l3912 093C  
                                   l3904 0914                                     l4480 2C62  
                                   l4464 2C0E                                     l4456 2BE8  
                                   l4448 2BA8                                     l4528 1DB6  
                                   l3744 25CE                                     l3728 2558  
                                   l3736 2590                                     l3840 338A  
                                   l3832 333E                                     l3648 1976  
                                   l3592 1708                                     l3584 16B8  
                                   l3576 166E                                     l3496 2F5E  
                                   l3488 2F24                                     l3760 2886  
                                   l3752 2864                                     l3680 2424  
                                   l3672 23E4                                     l3664 2394  
                                   l3656 2368                                     l3824 3288  
                                   l3816 3270                                     l3808 3244  
                                   l4640 1BE2                                     l4632 1BAA  
                                   l4624 1B8A                                     l4616 1B64  
                                   l4608 1B26                                     l4560 1A30  
                                   l4552 1A0C                                     l4544 19E0  
                                   l4712 3584                                     l4394 15BE  
                                   l4386 1568                                     l4378 1504  
                                   l4298 126C                                     l3930 09A8  
                                   l3922 0970                                     l3914 093E  
                                   l3906 0926                                     l4482 2C72  
                                   l4474 2C36                                     l4466 2C18  
                                   l4458 2BF6                                     l4490 1C34  
                                   l3850 2AA0                                     l3746 25DE  
                                   l3738 25B4                                     l3842 339A  
                                   l3834 3346                                     l3594 1726  
                                   l3586 16CC                                     l3578 1682  
                                   l3498 20AC                                     l3770 28A2  
                                   l3762 2888                                     l3754 286C  
                                   l3690 2456                                     l3682 2428  
                                   l3674 2404                                     l3658 2376  
                                   l3666 239C                                     l3826 328C  
                                   l3818 3274                                     l4642 1BFE  
                                   l4634 1BBC                                     l4626 1B8E  
                                   l4618 1B78                                     l4570 1A66  
                                   l4562 1A32                                     l4554 1A0E  
                                   l4546 19E6                                     l4714 358A  
                                   l4396 15D2                                     l4388 1576  
                                   l3940 09BC                                     l3932 09AC  
                                   l3916 094E                                     l3924 0978  
                                   l3908 0928                                     l4476 2C42  
                                   l4468 2C22                                     l4492 1C7A  
                                   l4660 0ECE                                     l4652 0D90  
                                   l3860 2AD8                                     l3852 2AA8  
                                   l3844 2A72                                     l3836 335A  
                                   l3596 1742                                     l3588 16E2  
                                   l3780 28CE                                     l3764 288C  
                                   l3756 2874                                     l3748 2844  
                                   l3692 246A                                     l3684 2438  
                                   l3676 241A                                     l3668 23C0  
                                   l3828 32A8                                     l4644 1C00  
                                   l4636 1BCA                                     l4628 1B9A  
                                   l4580 1A8E                                     l4572 1A6A  
                                   l4564 1A36                                     l4548 19F6  
                                   l4556 1A14                                     l4724 35BA  
                                   l4716 358E                                     l4398 15EC  
                                   l3950 09D0                                     l3942 09C0  
                                   l3934 09B0                                     l3926 0988  
                                   l3918 095E                                     l4478 2C52  
                                   l4494 1C90                                     l4486 1C16  
                                   l4670 10B2                                     l4662 0F60  
                                   l4654 0DA2                                     l4646 0D68  
                                   l3870 2B20                                     l3862 2AEC  
                                   l3854 2AB8                                     l3846 2A82  
                                   l3838 337E                                     l3598 1760  
                                   l3766 2892                                     l3758 287C  
                                   l3694 2476                                     l3678 241E  
                                   l3686 2440                                     l4638 1BDA  
                                   l4590 1ACC                                     l4582 1A92  
                                   l4574 1A70                                     l4566 1A44  
                                   l4558 1A22                                     l4718 3592  
                                   l3960 09E4                                     l3952 09D4  
                                   l3944 09C4                                     l3936 09B4  
                                   l3928 099A                                     l4488 1C26  
                                   l4672 1144                                     l4664 0F68  
                                   l4656 0DB8                                     l3872 2B30  
                                   l3864 2AF0                                     l3856 2AC2  
                                   l3848 2A8C                                     l3768 289A  
                                   l3784 28EE                                     l3696 2482  
                                   l3688 2446                                     l3792 3456  
                                   l4592 1AD0                                     l4584 1AA0  
                                   l4568 1A58                                     l4576 1A72  
                                   l3970 0A42                                     l3954 09D8  
                                   l3946 09C8                                     l3938 09B8  
                                   l3962 09E8                                     l3890 08C4  
                                   l4498 1CA4                                     l4674 114C  
                                   l4666 1052                                     l4658 0EC4  
                                   l3882 2B78                                     l3874 2B3C  
                                   l3866 2B04                                     l3858 2AC8  
                                   l3778 28B8                                     l3698 2486  
                                   l3794 346A                                     l4594 1AE2  
                                   l4586 1AAE                                     l4578 1A80  
                                   l3980 0A78                                     l3972 0A58  
                                   l3964 09EC                                     l3956 09DC  
                                   l3948 09CC                                     l3892 08D4  
                                   l3884 08A8                                     l4676 11BC  
                                   l4668 10A8                                     l3876 2B4C  
                                   l3868 2B10                                     l4940 21EC  
                                   l3796 3476                                     l4596 1AE4  
                                   l4588 1ACA                                     l3990 0AC8  
                                   l3982 0A82                                     l3974 0A64  
                                   l3966 0A16                                     l3958 09E0  
                                   l3894 08E4                                     l3886 08B4  
                                   l4678 11FA                                     l3878 2B58  
                                   l4950 3436                                     l4942 31C8  
                                   l3798 347A                                     l4598 1AF4  
                                   l3992 0AD8                                     l3984 0AA4  
                                   l3976 0A68                                     l3968 0A32  
                                   l3896 08F4                                     l3888 08C2  
                                   l4952 34D2                                     l4944 320E  
                                   l4936 2902                                     l4954 32D0  
                                   l3994 0AE6                                     l3986 0AB4  
                                   l3978 0A76                                     l3898 08F6  
                                   l4946 1FD6                                     l4938 2806  
                                   l3996 0AF4                                     l4948 2074  
                                   l3998 0B00                                     u3000 2AD8  
                                   u3001 2AD4                                     u3010 2B04  
                                   u3011 2B00                                     u3100 095E  
                                   u3020 2B30                                     u2220 3134  
                                   u2300 200C                                     u3101 095A  
                                   u3021 2B2C                                     u2221 3130  
                                   u2301 2008                                     u3110 099A  
                                   u3030 2B76                                     u2230 3502  
                                   u2310 1DE2                                     u3111 0996  
                                   u3031 2B72                                     u2231 34FE  
                                   u2311 1DDE                                     u3200 0AB4  
                                   u3120 09A8                                     u3040 08C2  
                                   u2400 2A08                                     u2240 351A  
                                   u2320 1E24                                     u4000 19B8  
                                   u3201 0AB0                                     u3121 09A4  
                                   u3041 08BE                                     u2241 3516  
                                   u2321 1E20                                     u4001 19B4  
                                   u3210 0AE6                                     u3130 0A16  
                                   u3050 08D4                                     u2410 2A26  
                                   u2250 36A2                                     u2330 1E96  
                                   u4010 19E0                                     u3211 0AE2  
                                   u3131 0A12                                     u3051 08D0  
                                   u2411 2A22                                     u2251 369E  
                                   u2331 1E92                                     u4011 19DC  
                                   u3300 0C2E                                     u3220 0AF4  
                                   u3140 0A2E                                     u3060 08E4  
                                   u2420 2A52                                     u2260 1F54  
                                   u2340 1EDC                                     u2500 2EEE  
                                   u4100 1A8E                                     u4020 19F6  
                                   u3301 0C2A                                     u3221 0AF0  
                                   u3141 0A28                                     u3061 08E0  
                                   u2261 1F50                                     u2341 1ED8  
                                   u2501 2EEA                                     u4101 1A8A  
                                   u4021 19F2                                     u3310 0C3E  
                                   u3230 0B12                                     u3150 0A30  
                                   u3070 0926                                     u2430 2A70  
                                   u2270 1F68                                     u2350 1F3C  
                                   u2510 2F3A                                     u4110 1AA0  
                                   u4030 1A04                                     u3311 0C3A  
                                   u3231 0B0E                                     u3071 0922  
                                   u2431 2A6C                                     u2407 29FE  
                                   u2271 1F64                                     u2351 1F38  
                                   u2511 2F36                                     u4111 1A9C  
                                   u4031 1A00                                     u3400 0D26  
                                   u3320 0C50                                     u3240 0B4A  
                                   u3160 0A58                                     u3080 093C  
                                   u2360 297E                                     u2440 2D9A  
                                   u2280 1F7E                                     u2520 20C0  
                                   u2600 277C                                     u4200 1B78  
                                   u4120 1AAE                                     u4040 1A22  
                                   u3401 0D22                                     u3321 0C4C  
                                   u3241 0B46                                     u3161 0A54  
                                   u3081 0938                                     u2361 297A  
                                   u2441 2D96                                     u2281 1F7A  
                                   u2521 20BC                                     u2601 2778  
                                   u4201 1B74                                     u4121 1AAA  
                                   u4041 1A1E                                     u3410 0D38  
                                   u3330 0C66                                     u3250 0B90  
                                   u3170 0A76                                     u3090 094E  
                                   u2370 2992                                     u2450 2DAE  
                                   u2290 1F94                                     u2530 20F0  
                                   u2610 27D2                                     u4210 1B8A  
                                   u4130 1AE2                                     u4050 1A30  
                                   u3411 0D34                                     u3331 0C62  
                                   u3251 0B8C                                     u3171 0A72  
                                   u3091 094A                                     u2427 2A48  
                                   u2371 298E                                     u2451 2DAA  
                                   u2291 1F90                                     u2531 20EC  
                                   u2611 27CE                                     u4211 1B86  
                                   u4131 1ADE                                     u4051 1A2C  
                                   u3420 0D54                                     u3340 0C7C  
                                   u3260 0BC6                                     u3180 0A96  
                                   u4300 0F60                                     u2380 29AA  
                                   u2460 2DC4                                     u2700 16E2  
                                   u2540 213A                                     u2620 27E8  
                                   u3500 33C8                                     u4220 1BAA  
                                   u4140 1AF4                                     u4060 1A44  
                                   u3421 0D50                                     u3341 0C78  
                                   u3261 0BC2                                     u3181 0A92  
                                   u4301 0F5C                                     u2381 29A6  
                                   u2461 2DC0                                     u2701 16DE  
                                   u2621 27E4                                     u3501 33C4  
                                   u4221 1BA6                                     u4141 1AF0  
                                   u4061 1A40                                     u3350 0C90  
                                   u3270 0BD6                                     u3190 0AA4  
                                   u4310 10A8                                     u2390 29DC  
                                   u2470 2E00                                     u2710 16F6  
                                   u2550 216A                                     u2630 2834  
                                   u3430 2270                                     u3510 33E2  
                                   u4230 1BDA                                     u4150 1B06  
                                   u4070 1A58                                     u3351 0C8C  
                                   u3271 0BD2                                     u3191 0AA0  
                                   u4311 10A4                                     u2391 29D8  
                                   u2471 2DFC                                     u2711 16F2  
                                   u2631 2830                                     u3431 226C  
                                   u3511 33DE                                     u4231 1BD6  
                                   u4151 1B02                                     u4071 1A54  
                                   u3600 1246                                     u3360 0CAA  
                                   u3280 0C02                                     u4320 1144  
                                   u2800 1906                                     u2720 1708  
                                   u2640 1656                                     u2560 218C  
                                   u2480 303C                                     u3520 2F82  
                                   u3440 229C                                     u4240 1C10  
                                   u4160 1B14                                     u4080 1A66  
                                   u4400 35B6                                     u3601 1242  
                                   u3361 0CA6                                     u3281 0BFE  
                                   u4321 1140                                     u2801 1902  
                                   u2721 1704                                     u2641 1652  
                                   u2561 2188                                     u2481 3038  
                                   u3521 2F7E                                     u3441 2298  
                                   u4241 1C0C                                     u4161 1B10  
                                   u4081 1A62                                     u4401 35B2  
                                   u3610 1256                                     u3370 0CE4  
                                   u3290 0C12                                     u4250 0D7A  
                                   u2810 1916                                     u2730 1786  
                                   u2650 166A                                     u2570 21C8  
                                   u2490 3098                                     u3530 2FCE  
                                   u3450 2316                                     u4170 1B26  
                                   u4090 1A80                                     u3611 1252  
                                   u3371 0CE0                                     u3291 0C0E  
                                   u4251 0D76                                     u2811 1912  
                                   u2731 1782                                     u2651 1666  
                                   u2547 2130                                     u2491 3094  
                                   u3531 2FCA                                     u3451 2312  
                                   u4171 1B22                                     u4091 1A7C  
                                   u3700 1504                                     u3620 1296  
                                   u3380 0CF6                                     u4260 0D8C  
                                   u2900 250C                                     u2740 17AE  
                                   u2660 1682                                     u2580 2744  
                                   u2820 2368                                     u3540 301A  
                                   u3460 3600                                     u4180 1B34  
                                   u3701 1500                                     u3621 1292  
                                   u3381 0CF2                                     u4261 0D88  
                                   u2901 2508                                     u2741 17AA  
                                   u2661 167E                                     u2557 2160  
                                   u2581 2740                                     u2821 2364  
                                   u3541 3016                                     u3461 35FC  
                                   u4181 1B30                                     u3550 25F6  
                                   u3710 1532                                     u3630 12A8  
                                   u3390 0D06                                     u4270 0DA2  
                                   u2910 251E                                     u2750 1800  
                                   u2670 16A4                                     u2590 276E  
                                   u2830 2376                                     u3470 3626  
                                   u4190 1B64                                     u3551 25F2  
                                   u3711 152E                                     u3631 12A4  
                                   u3391 0D02                                     u4271 0D9E  
                                   u2911 251A                                     u2751 17FC  
                                   u2671 16A0                                     u2591 276A  
                                   u2831 2372                                     u3471 3622  
                                   u4191 1B60                                     u3560 263C  
                                   u3800 2D0E                                     u3720 1548  
                                   u3640 12B8                                     u4280 0DB8  
                                   u2920 2558                                     u2760 1816  
                                   u2680 16B8                                     u2840 238A  
                                   u3480 3638                                     u3561 2638  
                                   u3801 2D0A                                     u3721 1544  
                                   u3641 12B4                                     u4281 0DB4  
                                   u2921 2554                                     u2761 1812  
                                   u2681 16B4                                     u2577 21BE  
                                   u2841 2386                                     u3481 3634  
                                   u3570 26A0                                     u3810 2D2E  
                                   u3730 155C                                     u3650 12EE  
                                   u4290 0EC4                                     u2930 25DE  
                                   u2770 1824                                     u2690 16CC  
                                   u2850 2404                                     u3490 33AE  
                                   u3571 269C                                     u3811 2D2A  
                                   u3731 1558                                     u3651 12EA  
                                   u4291 0EC0                                     u2931 25DA  
                                   u2771 1820                                     u2691 16C8  
                                   u2851 2400                                     u3491 33AA  
                                   u3580 3310                                     u3820 2D7E  
                                   u3740 1576                                     u3660 12FE  
                                   u3900 1C26                                     u2780 1894  
                                   u2940 285C                                     u2860 241A  
                                   u3581 330C                                     u3821 2D7A  
                                   u3741 1572                                     u3661 12FA  
                                   u3901 1C22                                     u2781 1890  
                                   u2941 2858                                     u2861 2416  
                                   u3750 15BE                                     u3670 1478  
                                   u3590 1234                                     u3830 2B94  
                                   u3910 1C34                                     u2790 18F0  
                                   u2870 2438                                     u2950 34A4  
                                   u4390 35A4                                     u3751 15BA  
                                   u3591 1230                                     u3831 2B90  
                                   u3911 1C30                                     u2791 18EC  
                                   u2871 2434                                     u2951 34A0  
                                   u4391 35A0                                     u3760 15EC  
                                   u3680 14D2                                     u3840 2BC8  
                                   u3920 1C90                                     u2960 333E  
                                   u2880 249A                                     u3761 15E8  
                                   u3681 14CE                                     u3921 1C8C  
                                   u2961 333A                                     u2881 2496  
                                   u3770 1626                                     u3690 14F2  
                                   u3850 2BF6                                     u3930 1CE6  
                                   u2890 24C8                                     u2970 335A  
                                   u3771 1622                                     u3691 14EE  
                                   u3675 146E                                     u3851 2BF2  
                                   u3931 1CE2                                     u2891 24C4  
                                   u2971 3356                                     u3780 2CB2  
                                   u3860 2C0A                                     u3940 1D30  
                                   u2980 2AA0                                     u3781 2CAE  
                                   u3861 2C06                                     u3845 2BBE  
                                   u3941 1D2C                                     u2981 2A9C  
                                   u3790 2CF0                                     u3870 2C32  
                                   u3950 1D4E                                     u2990 2AB8  
                                   u3791 2CEC                                     u3871 2C2E  
                                   u3951 1D4A                                     u2991 2AB4  
                                   u3880 2C52                                     u3960 1D5E  
                                   u3881 2C4E                                     u3961 1D5A  
                                   u3890 2C62                                     u3970 1D6C  
                                   u3891 2C5E                                     u3971 1D68  
                                   u3980 1DA6                                     u3981 1DA2  
                                   u3990 1DB4                                     u3991 1DB0  
                  ??_USBCtrlTrfTxService 0001                                     _UCFG 000F6F  
                                   _UEP0 000F70                                     _UEP1 000F71  
                                   _UEIE 000F6B                                     _UEIR 000F6A  
                                   _UCON 000F6D   USBStdFeatureReqHandler@current_ep_data 001B  
                                   _pDst 007C                                     _main 3584  
                                   fsr1h 000FE2                                     fsr2h 000FDA  
                                   indf1 000FE7                                     indf2 000FDF  
                                   fsr1l 000FE1                                     fsr2l 000FD9  
                                   btemp 005F                                     prodh 000FF4  
                                   prodl 000FF3                                     start 000E  
        __end_of_APP_DeviceJoystickTasks 121A                     ??_USBCheckHIDRequest 0001  
             __end_of_USBCheckStdRequest 2962                   ??_USBCtrlTrfOutHandler 0003  
                           ___param_bank 000000                ??_USBStdFeatureReqHandler 0017  
               ??_USBStdGetStatusHandler 0001                           ?_USBDeviceInit 0001  
                          ___fltol@sign1 004F                          __end_of___fladd 0D68  
                                  ?_main 0001                          __end_of___flmul 1644  
                        __end_of___flsub 3584                          __end_of___fltol 2C84  
                 __end_of_USBDeviceTasks 1C14                ?_USBCtrlEPServiceComplete 0001  
                                  i2l594 36CE                                    _UADDR 000F6E  
                                  _USTAT 000F6C          __end_of_USBCtrlEPAllowDataStage 30D2  
                                  _sd000 08A2                                    _sd001 0831  
                                  _sd002 0809           ?_USBIncrement1msInternalTimers 0001  
                                  tablat 000FF5                                    plusw2 000FDB  
                                  ttemp5 0060                                    ttemp6 0063  
                                  ttemp7 0067                                    status 000FD8  
                                  wtemp8 0060                          __initialization 366A  
                           __end_of_main 35C6                             _ADC_Readbits 32AE  
                                 ??_main 0057                            __activetblptr 000002  
                        ?_USBDeviceTasks 0001                              ?_USBSuspend 0001  
                                 _ADCON0 000FC2                                   _ADCON2 000FC0  
                                 _ADRESH 000FC4                                   _ADRESL 000FC3  
                 SYSTEM_Initialize@state 0006                             ??_ADC_Enable 0001  
                       __end_of___xxtofl 1DC8                        _shortPacketStatus 008A  
                        USBDeviceTasks@i 0021              USBStdFeatureReqHandler@pUEP 0019  
               USBTransferOnePacket@data 0002               USBCtrlTrfInHandler@lastDTS 0002  
                                 ___flge 2C84                          ??_USBDeviceInit 000D  
                              ??___fladd 0037                                ??___flmul 001E  
                              ??___flsub 0047                                ??___fltol 004B  
                      _USBEnableEndpoint 34F2                                   _memcpy 3456  
                                 _memset 1DC8                                   clear_0 3670  
                                 clear_1 367C                                   isa$std 000001  
                     ?_USBEnableEndpoint 000B                       __end_of_ADC_Enable 34F2  
                           __mediumconst 0000                                   tblptrh 000FF7  
                                 tblptrl 000FF6                                   tblptru 000FF8  
                    ??_USBEnableEndpoint 000C                              _CtrlTrfData 000428  
                   _controlTransferState 0089                               ___flge@ff1 0047  
                             ___flge@ff2 004B                             ___xxtofl@arg 0012  
                           ___xxtofl@exp 0011                        _SYSTEM_Initialize 3400  
                           ___xxtofl@val 0008                               __accesstop 0060  
                __end_of__initialization 3682                       ?_SYSTEM_Initialize 0001  
                          ___rparam_used 000001                               ___fltol@f1 0047  
                         __pcstackCOMRAM 0001                __end_of_USBEnableEndpoint 353E  
                          __end_of_sd000 08A6                            __end_of_sd001 0855  
                          __end_of_sd002 0831                      ??_SYSTEM_Initialize 0004  
                        _active_protocol 008C              __end_of_USBCtrlTrfInHandler 2B7E  
               ??_USBCtrlTrfSetupHandler 0020                  _USBTicksSinceSuspendEnd 007E  
              __end_of_SYSTEM_Initialize 3456                   _USBStdGetStatusHandler 2722  
                             __pbssBANK0 0060                              _pBDTEntryIn 0057  
       __end_of_USBCtrlEPServiceComplete 24A0                     USBCtrlTrfRxService@i 0001  
                                ?___flge 0047                                  ?_memcpy 0001  
                                ?_memset 0001                               _device_dsc 0890  
                       _USBCtrlEPService 2F66                               _ep_data_in 007A  
            __end_of_USBCtrlTrfRxService 25E4                       _USBCheckStdRequest 2844  
                      _configDescriptor1 0855                                ?___xxtofl 0008  
                     ADC_Readbits@result 0005              __end_of_USBCtrlTrfTxService 2A72  
                    _USBStdSetCfgHandler 2E7A                      ?_USBCheckStdRequest 0001  
                                _UIEbits 000F69                                  _UIRbits 000F68  
                                __Hparam 0000          ??_USBIncrement1msInternalTimers 0001  
                   ?_USBStdSetCfgHandler 0001                                  __Lparam 0000  
                      __end_of_hid_rpt01 0890        ADC_SetConfiguration@configuration 0001  
                   ??_USBCheckStdRequest 001E                                  ___fladd 08A8  
                                ___flmul 121A                                  ___flsub 353E  
                                ___fltol 2B7E                         ??_USBDeviceTasks 0021  
                      ??_USBStallHandler 0001                             __psmallconst 0800  
                                __pcinit 366A                __end_of_configDescriptor1 0877  
                                __ramtop 0800                                  __ptext0 3584  
                                __ptext1 19A6                                  __ptext2 35C6  
                                __ptext3 363C                                  __ptext4 33A0  
                                __ptext5 3608                                  __ptext6 220C  
                                __ptext7 2F66                                  __ptext8 3456  
                                __ptext9 321E                                  _inPipes 0068  
            _USBDeferOUTDataStagePackets 007F                             ??_USBSuspend 0017  
                             ??___xxtofl 000C                  _APP_DeviceJoystickTasks 0D68  
                     __end_of_USB_CD_Ptr 0809                           __pintcode_body 36CC  
                   end_of_initialization 3682                       __end_of_USB_SD_Ptr 0807  
                                memcpy@d 0007                                  memcpy@n 0005  
                                memcpy@s 0009                      _pBDTEntryEP0OutNext 005B  
                                memset@c 0003                                  memset@k 0009  
                                memset@n 0005                                  memset@s 000B  
                          __Lmediumconst 0000                                  int_func 36CC  
                        _USB1msTickCount 006E                 ?_USBStdFeatureReqHandler 0001  
                  ??_USBStdSetCfgHandler 0017                       __end_of_USBSuspend 366A  
                _USBCtrlEPAllowDataStage 3020                                  postdec2 000FDD  
                                postinc0 000FEE                                  postinc2 000FDE  
               _USBCtrlEPServiceComplete 2356               _USBStatusStageEnabledFlag1 0082  
             _USBStatusStageEnabledFlag2 0081                       USBEnableEndpoint@p 000C  
                            ___fladd@grs 003E                            ___xxtofl@sign 0010  
                              _TRISAbits 000F92                           _joystick_input 000500  
                     _BothEP0OutUOWNsSet 0085                USBConfigureEndpoint@EPNum 0008  
             ?_USBCtrlEPAllowStatusStage 0001      USER_USB_CALLBACK_EVENT_HANDLER@size 0013  
                              _USTATcopy 008E                              ___flmul@grs 0023  
           __end_of_USBTransferOnePacket 2722                   _USBCtrlTrfSetupHandler 321E  
                         __end_of___flge 2D88                    __end_of_USBDeviceInit 2356  
  __end_of_USBIncrement1msInternalTimers 363C            _USBIncrement1msInternalTimers 3608  
              ??_APP_DeviceJoystickTasks 0053                           __end_of_memcpy 34A6  
                         __end_of_memset 1F3E                        _USBBusIsSuspended 0087  
                    start_initialization 366A                  ?_USBStdGetStatusHandler 0001  
          USBCtrlTrfRxService@byteToRead 0002             __end_of_USBConfigureEndpoint 3182  
        __end_of_USBStdFeatureReqHandler 19A6        __end_of_USBCtrlEPAllowStatusStage 2E7A  
               __end_of_USBCtrlEPService 3020                ??_USBCtrlEPAllowDataStage 0002  
                         USBDeviceInit@i 000D                   _pBDTEntryEP0OutCurrent 005D  
                USBTransferOnePacket@dir 0001                  USBTransferOnePacket@len 0004  
                               ??___flge 004F             __end_of_ADC_SetConfiguration 36B6  
   __end_of_APP_DeviceJoystickInitialize 36CC             _APP_DeviceJoystickInitialize 36B6  
                    _USBStdGetDscHandler 20AC                                 ??_memcpy 0007  
                               ??_memset 0007                               memset@dest 0001  
                              ___fladd@a 0033                                ___fladd@b 002F  
                 _USBActiveConfiguration 0090           __end_of_USBStdGetStatusHandler 2844  
                              ___flmul@a 001A                                ___flmul@b 0016  
                            __pbssCOMRAM 0057                                ___flsub@a 0043  
                              ___flsub@b 003F             _APP_DeviceJoystickTasks$2981 0053  
                   ?_USBStdGetDscHandler 0001               __end_of_USBWakeFromSuspend 3608  
                        _USBStallHandler 33A0                         _lastTransmission 0076  
                           _pBDTEntryOut 0072                                __pintcode 0008  
                          ?_ADC_Readbits 0001                                 ?___fladd 002F  
                               ?___flmul 0016                                 ?___flsub 003F  
                               ?___fltol 0047                                _hid_rpt01 0877  
          ?_APP_DeviceJoystickInitialize 0001                                _idle_rate 008D  
                   _USBTransferOnePacket 25E4                              __smallconst 0800  
           __end_of_USBCtrlTrfOutHandler 33A0                    ??_USBStdGetDscHandler 0001  
                            _ep_data_out 0078                      ADC_Readbits@channel 0007  
          USBConfigureEndpoint@direction 0001               __end_of_USBCheckHIDRequest 20AC  
             ??_USBCtrlEPServiceComplete 0002                                 _PIE2bits 000FA0  
                               _PIR2bits 000FA1                           ??_ADC_Readbits 0003  
                               _UEP0bits 000F70               _USBDeferINDataStagePackets 0080  
                               _UCONbits 000F6D                     _USBConfigureEndpoint 30D2  
                             _ADCON0bits 000FC2                               _ADCON1bits 000FC1  
                             _ADCON2bits 000FC0                    ?_USBTransferOnePacket 0001  
                      _SYS_InterruptHigh 0008                             _RemoteWakeup 0088  
                     ?_SYS_InterruptHigh 0001                  __end_of_USBStallHandler 3400  
                   _ADC_SetConfiguration 3690              ??_USBCtrlEPAllowStatusStage 0001  
            __end_of_USBStdSetCfgHandler 2F66                               _ADC_Enable 34A6  
                    ??_SYS_InterruptHigh 0001                       __end_of_device_dsc 08A2  
                ?_USBCtrlTrfSetupHandler 0001                  USBStdGetStatusHandler@p 0003  
                               __Hrparam 0000                                memcpy@tmp 000B  
                               __Lrparam 0000                   USBTransferOnePacket@ep 0009  
                               _SetupPkt 000420                    ?_USBConfigureEndpoint 0001  
              __end_of_SYS_InterruptHigh 36D2           ??_APP_DeviceJoystickInitialize 000F  
                               ___xxtofl 1C14                                 __ptext10 2356  
                               __ptext11 3020                                 __ptext20 3400  
                               __ptext12 2844                                 __ptext21 3690  
                               __ptext13 2E7A                                 __ptext30 2962  
                               __ptext22 34A6                                 __ptext14 1DC8  
                               __ptext31 0D68                                 __ptext23 36B6  
                               __ptext15 2722                                 __ptext32 1C14  
                               __ptext24 34F2                                 __ptext16 20AC  
                               __ptext33 2B7E                                 __ptext25 30D2  
                               __ptext17 1644                                 __ptext34 353E  
                               __ptext26 332A                                 __ptext18 3182  
                               __ptext35 08A8                                 __ptext27 24A0  
                               __ptext19 1F3E                                 __ptext36 121A  
                               __ptext28 2D88                                 __ptext37 2C84  
                               __ptext29 2A72                                 __ptext38 25E4  
                               __ptext39 32AE                    ?_ADC_SetConfiguration 0001  
         __end_of_USBCtrlTrfSetupHandler 32AE                        ?_USBCtrlEPService 0001  
                     ??_USBCtrlEPService 0020                      _USBCtrlTrfInHandler 2A72  
                               isa$xinst 000000                                 _outPipes 0060  
                   _USBCtrlTrfOutHandler 332A                                 int$flags 005F  
              _USBCtrlEPAllowStatusStage 2D88                   ??_USBTransferOnePacket 0005  
              _USBDeferStatusStagePacket 0083                     ?_USBCtrlTrfInHandler 0001  
                               memcpy@d1 0001                                 memcpy@s1 0003  
          USBCtrlTrfTxService@byteToSend 0001                     __end_of_ADC_Readbits 332A  
                       ?_USBStallHandler 0001                 USBStdFeatureReqHandler@p 001C  
                               intlevel2 0000                              ?_ADC_Enable 0001  
__end_of_USER_USB_CALLBACK_EVENT_HANDLER 321E        ??_USER_USB_CALLBACK_EVENT_HANDLER 0015  
       ?_USER_USB_CALLBACK_EVENT_HANDLER 000F          _USER_USB_CALLBACK_EVENT_HANDLER 3182  
                 ??_USBConfigureEndpoint 0002                    ?_USBCtrlTrfOutHandler 0001  
               ?_APP_DeviceJoystickTasks 0001                      _USBCtrlTrfRxService 24A0  
                     _USBWakeFromSuspend 35C6                  _USBStdFeatureReqHandler 1644  
                    _USBCtrlTrfTxService 2962                        ADC_Enable@channel 0003  
                    ?_USBWakeFromSuspend 0001                    ??_USBCtrlTrfInHandler 0002  
                  _USBAlternateInterface 008F                   ??_ADC_SetConfiguration 0001  
                    USBEnableEndpoint@ep 000E                          _endpoint_number 0086  
                   ?_USBCtrlTrfRxService 0001                            ___fladd@signs 003B  
               ?_USBCtrlEPAllowDataStage 0001                     ?_USBCtrlTrfTxService 0001  
                           ___fladd@aexp 003C                             ___fladd@bexp 003D  
           _USBStatusStageTimeoutCounter 0084                     ??_USBWakeFromSuspend 0017  
             USBTransferOnePacket@handle 000A                               _USB_CD_Ptr 0807  
